///////////////////////////////////////////////////////////////////////////////
//                                                                            /
// IAR C/C++ Compiler V8.10.3.40338/W32 for 8051        25/Sep/2012  15:01:04 /
// Copyright 2004-2011 IAR Systems AB.                                        /
//                                                                            /
//    Core               =  plain                                             /
//    Code model         =  banked                                            /
//    Data model         =  large                                             /
//    Calling convention =  xdata reentrant                                   /
//    Constant location  =  data_rom                                          /
//    Dptr setup         =  1,16                                              /
//    Source file        =  C:\Texas Instruments\ZStack-CC2530-2.5.1a\Project /
//                          s\zstack\Samples\testApp_2.5\Source\GenericApp.c  /
//    Command line       =  -f "C:\Texas Instruments\ZStack-CC2530-2.5.1a\Pro /
//                          jects\zstack\Samples\testApp_2.5\CC2530DB\..\..\. /
//                          .\Tools\CC2530DB\f8wCoord.cfg" (-DCPU32MHZ        /
//                          -DROOT=__near_func -DMAC_CFG_APP_PENDING_QUEUE=TR /
//                          UE -DMAC_CFG_TX_DATA_MAX=5 -DMAC_CFG_TX_MAX=8     /
//                          -DMAC_CFG_RX_MAX=5 -DZDO_COORDINATOR -DRTR_NWK)   /
//                          -f "C:\Texas Instruments\ZStack-CC2530-2.5.1a\Pro /
//                          jects\zstack\Samples\testApp_2.5\CC2530DB\..\..\. /
//                          .\Tools\CC2530DB\f8wConfig.cfg" (-DZIGBEEPRO      /
//                          -DSECURE=0 -DZG_SECURE_DYNAMIC=0 -DREFLECTOR      /
//                          -DDEFAULT_CHANLIST=0x00000800                     /
//                          -DZDAPP_CONFIG_PAN_ID=0xFFFF                      /
//                          -DNWK_START_DELAY=100 -DEXTENDED_JOINING_RANDOM_M /
//                          ASK=0x007F -DBEACON_REQUEST_DELAY=100             /
//                          -DBEACON_REQ_DELAY_MASK=0x00FF                    /
//                          -DLINK_STATUS_JITTER_MASK=0x007F                  /
//                          -DROUTE_EXPIRY_TIME=30 -DAPSC_ACK_WAIT_DURATION_P /
//                          OLLED=3000 -DNWK_INDIRECT_MSG_TIMEOUT=7           /
//                          -DMAX_RREQ_ENTRIES=8 -DAPSC_MAX_FRAME_RETRIES=3   /
//                          -DNWK_MAX_DATA_RETRIES=2                          /
//                          -DMAX_POLL_FAILURE_RETRIES=2 -DMAX_BCAST=9        /
//                          -DAPS_MAX_GROUPS=16 -DMAX_RTG_ENTRIES=40          /
//                          -DNWK_MAX_BINDING_ENTRIES=4                       /
//                          -DMAX_BINDING_CLUSTER_IDS=4                       /
//                          "-DDEFAULT_KEY={0x01, 0x03, 0x05, 0x07, 0x09,     /
//                          0x0B, 0x0D, 0x0F, 0x00, 0x02, 0x04, 0x06, 0x08,   /
//                          0x0A, 0x0C, 0x0D}" -DMAC_MAX_FRAME_SIZE=116       /
//                          -DZDNWKMGR_MIN_TRANSMISSIONS=20 "-DCONST=const    /
//                          __code" -DGENERIC=__generic                       /
//                          -DRFD_RCVC_ALWAYS_ON=FALSE -DPOLL_RATE=1000       /
//                          -DQUEUED_POLL_RATE=100 -DRESPONSE_POLL_RATE=100)  /
//                          -DREJOIN_POLL_RATE=440 "C:\Texas                  /
//                          Instruments\ZStack-CC2530-2.5.1a\Projects\zstack\ /
//                          Samples\testApp_2.5\Source\GenericApp.c" -D       /
//                          ZTOOL_P1 -D MT_TASK -D LCD_SUPPORTED=DEBUG -D     /
//                          HAL_UART=TRUE -D xNV_INIT -D NV_RESTORE -D        /
//                          xPOWER_SAVING -D BUILD_ALL_DEVICES -D             /
//                          HOLD_AUTO_START -lC "C:\Texas                     /
//                          Instruments\ZStack-CC2530-2.5.1a\Projects\zstack\ /
//                          Samples\testApp_2.5\CC2530DB\CoordinatorEB\List\" /
//                           -lA "C:\Texas Instruments\ZStack-CC2530-2.5.1a\P /
//                          rojects\zstack\Samples\testApp_2.5\CC2530DB\Coord /
//                          inatorEB\List\" --diag_suppress Pe001,Pa010 -o    /
//                          "C:\Texas Instruments\ZStack-CC2530-2.5.1a\Projec /
//                          ts\zstack\Samples\testApp_2.5\CC2530DB\Coordinato /
//                          rEB\Obj\" -e --no_code_motion --debug             /
//                          --core=plain --dptr=16,1 --data_model=large       /
//                          --code_model=banked --calling_convention=xdata_re /
//                          entrant --place_constants=data_rom                /
//                          --nr_virtual_regs 16 -I "C:\Texas                 /
//                          Instruments\ZStack-CC2530-2.5.1a\Projects\zstack\ /
//                          Samples\testApp_2.5\CC2530DB\" -I "C:\Texas       /
//                          Instruments\ZStack-CC2530-2.5.1a\Projects\zstack\ /
//                          Samples\testApp_2.5\CC2530DB\..\Source\" -I       /
//                          "C:\Texas Instruments\ZStack-CC2530-2.5.1a\Projec /
//                          ts\zstack\Samples\testApp_2.5\CC2530DB\..\..\..\Z /
//                          Main\TI2530DB\" -I "C:\Texas                      /
//                          Instruments\ZStack-CC2530-2.5.1a\Projects\zstack\ /
//                          Samples\testApp_2.5\CC2530DB\..\..\..\..\..\Compo /
//                          nents\hal\include\" -I "C:\Texas                  /
//                          Instruments\ZStack-CC2530-2.5.1a\Projects\zstack\ /
//                          Samples\testApp_2.5\CC2530DB\..\..\..\..\..\Compo /
//                          nents\hal\target\CC2530EB\" -I "C:\Texas          /
//                          Instruments\ZStack-CC2530-2.5.1a\Projects\zstack\ /
//                          Samples\testApp_2.5\CC2530DB\..\..\..\..\..\Compo /
//                          nents\mac\include\" -I "C:\Texas                  /
//                          Instruments\ZStack-CC2530-2.5.1a\Projects\zstack\ /
//                          Samples\testApp_2.5\CC2530DB\..\..\..\..\..\Compo /
//                          nents\mac\high_level\" -I "C:\Texas               /
//                          Instruments\ZStack-CC2530-2.5.1a\Projects\zstack\ /
//                          Samples\testApp_2.5\CC2530DB\..\..\..\..\..\Compo /
//                          nents\mac\low_level\srf04\" -I "C:\Texas          /
//                          Instruments\ZStack-CC2530-2.5.1a\Projects\zstack\ /
//                          Samples\testApp_2.5\CC2530DB\..\..\..\..\..\Compo /
//                          nents\mac\low_level\srf04\single_chip\" -I        /
//                          "C:\Texas Instruments\ZStack-CC2530-2.5.1a\Projec /
//                          ts\zstack\Samples\testApp_2.5\CC2530DB\..\..\..\. /
//                          .\..\Components\mt\" -I "C:\Texas                 /
//                          Instruments\ZStack-CC2530-2.5.1a\Projects\zstack\ /
//                          Samples\testApp_2.5\CC2530DB\..\..\..\..\..\Compo /
//                          nents\osal\include\" -I "C:\Texas                 /
//                          Instruments\ZStack-CC2530-2.5.1a\Projects\zstack\ /
//                          Samples\testApp_2.5\CC2530DB\..\..\..\..\..\Compo /
//                          nents\services\saddr\" -I "C:\Texas               /
//                          Instruments\ZStack-CC2530-2.5.1a\Projects\zstack\ /
//                          Samples\testApp_2.5\CC2530DB\..\..\..\..\..\Compo /
//                          nents\services\sdata\" -I "C:\Texas               /
//                          Instruments\ZStack-CC2530-2.5.1a\Projects\zstack\ /
//                          Samples\testApp_2.5\CC2530DB\..\..\..\..\..\Compo /
//                          nents\stack\af\" -I "C:\Texas                     /
//                          Instruments\ZStack-CC2530-2.5.1a\Projects\zstack\ /
//                          Samples\testApp_2.5\CC2530DB\..\..\..\..\..\Compo /
//                          nents\stack\nwk\" -I "C:\Texas                    /
//                          Instruments\ZStack-CC2530-2.5.1a\Projects\zstack\ /
//                          Samples\testApp_2.5\CC2530DB\..\..\..\..\..\Compo /
//                          nents\stack\sapi\" -I "C:\Texas                   /
//                          Instruments\ZStack-CC2530-2.5.1a\Projects\zstack\ /
//                          Samples\testApp_2.5\CC2530DB\..\..\..\..\..\Compo /
//                          nents\stack\sec\" -I "C:\Texas                    /
//                          Instruments\ZStack-CC2530-2.5.1a\Projects\zstack\ /
//                          Samples\testApp_2.5\CC2530DB\..\..\..\..\..\Compo /
//                          nents\stack\sys\" -I "C:\Texas                    /
//                          Instruments\ZStack-CC2530-2.5.1a\Projects\zstack\ /
//                          Samples\testApp_2.5\CC2530DB\..\..\..\..\..\Compo /
//                          nents\stack\zdo\" -I "C:\Texas                    /
//                          Instruments\ZStack-CC2530-2.5.1a\Projects\zstack\ /
//                          Samples\testApp_2.5\CC2530DB\..\..\..\..\..\Compo /
//                          nents\zmac\" -I "C:\Texas                         /
//                          Instruments\ZStack-CC2530-2.5.1a\Projects\zstack\ /
//                          Samples\testApp_2.5\CC2530DB\..\..\..\..\..\Compo /
//                          nents\zmac\f8w\" -Ohz --require_prototypes        /
//    List file          =  C:\Texas Instruments\ZStack-CC2530-2.5.1a\Project /
//                          s\zstack\Samples\testApp_2.5\CC2530DB\Coordinator /
//                          EB\List\GenericApp.s51                            /
//                                                                            /
//                                                                            /
///////////////////////////////////////////////////////////////////////////////

        NAME GenericApp

        RTMODEL "__SystemLibrary", "CLib"
        RTMODEL "__calling_convention", "xdata_reentrant"
        RTMODEL "__code_model", "banked"
        RTMODEL "__core", "plain"
        RTMODEL "__data_model", "large"
        RTMODEL "__dptr_size", "16"
        RTMODEL "__extended_stack", "disabled"
        RTMODEL "__location_for_constants", "data"
        RTMODEL "__number_of_dptrs", "1"
        RTMODEL "__rt_version", "1"

        RSEG DOVERLAY:DATA:NOROOT(0)
        RSEG IOVERLAY:IDATA:NOROOT(0)
        RSEG ISTACK:IDATA:NOROOT(0)
        RSEG PSTACK:XDATA:NOROOT(0)
        RSEG XSTACK:XDATA:NOROOT(0)

        EXTERN ?ALLOC_XSTACK8
        EXTERN ?BANKED_ENTER_XDATA
        EXTERN ?BANKED_LEAVE_XDATA
        EXTERN ?BDISPATCH
        EXTERN ?BRET
        EXTERN ?DEALLOC_XSTACK8
        EXTERN ?PUSH_XSTACK_I_ONE
        EXTERN ?PUSH_XSTACK_I_TWO
        EXTERN ?US_SWITCH_SPARSE
        EXTERN ?V0
        EXTERN ?XLOAD_R2345
        EXTERN ?XSP
        EXTERN ?XSTACK_DISP0_8
        EXTERN ?XSTORE_R2345
        EXTERN __INIT_XDATA_I
        EXTERN __INIT_XDATA_Z

        PUBLIC ??Delay?relay
        FUNCTION ??Delay?relay,0203H
        PUBLIC ??GenericApp_Init?relay
        FUNCTION ??GenericApp_Init?relay,0203H
        FUNCTION ??GenericApp_MessageMSGCB?relay,0203H
        PUBLIC ??GenericApp_ProcessEvent?relay
        FUNCTION ??GenericApp_ProcessEvent?relay,0203H
        PUBLIC ??SendData?relay
        FUNCTION ??SendData?relay,0203H
        FUNCTION ??Serial_callBack?relay,0203H
        PUBLIC ??UART_Send_String?relay
        FUNCTION ??UART_Send_String?relay,0203H
        PUBLIC ??cb_ReadConfiguration?relay
        FUNCTION ??cb_ReadConfiguration?relay,0203H
        PUBLIC ??cb_WriteConfiguration?relay
        FUNCTION ??cb_WriteConfiguration?relay,0203H
        PUBLIC ??io_init?relay
        FUNCTION ??io_init?relay,0203H
        PUBLIC ??serial_init?relay
        FUNCTION ??serial_init?relay,0203H
        PUBLIC ??set_panid?relay
        FUNCTION ??set_panid?relay,0203H
        PUBLIC ??uprint?relay
        FUNCTION ??uprint?relay,0203H
        PUBLIC App_NwkState
        PUBLIC Delay
        FUNCTION Delay,0203H
        ARGFRAME XSTACK, 0, STACK
        PUBLIC GenericApp_ClusterList
        PUBLIC GenericApp_DstAddr
        PUBLIC GenericApp_Init
        FUNCTION GenericApp_Init,021203H
        ARGFRAME XSTACK, 0, STACK
        LOCFRAME XSTACK, 10, STACK
        FUNCTION GenericApp_MessageMSGCB,021203H
        ARGFRAME XSTACK, 12, STACK
        ARGFRAME IOVERLAY, 0, STATIC
        ARGFRAME DOVERLAY, 0, STATIC
        LOCFRAME ISTACK, 2, STACK
        PUBLIC GenericApp_NwkState
        PUBLIC GenericApp_ProcessEvent
        FUNCTION GenericApp_ProcessEvent,0a1203H
        ARGFRAME XSTACK, 0, STACK
        LOCFRAME XSTACK, 12, STACK
        PUBLIC GenericApp_SimpleDesc
        PUBLIC GenericApp_TaskID
        PUBLIC GenericApp_TransID
        PUBLIC GenericApp_epDesc
        PUBWEAK P0DIR
        PUBWEAK P0IFG
        PUBLIC SendData
        FUNCTION SendData,021203H
        ARGFRAME XSTACK, 86, STACK
        ARGFRAME IOVERLAY, 0, STATIC
        ARGFRAME DOVERLAY, 0, STATIC
        LOCFRAME XSTACK, 31, STACK
        FUNCTION Serial_callBack,021603H
        ARGFRAME XSTACK, 0, STACK
        LOCFRAME ISTACK, 1, STACK
        LOCFRAME XSTACK, 95, STACK
        PUBLIC UART_Send_String
        FUNCTION UART_Send_String,021203H
        ARGFRAME XSTACK, 86, STACK
        ARGFRAME IOVERLAY, 0, STATIC
        ARGFRAME DOVERLAY, 0, STATIC
        LOCFRAME ISTACK, 2, STACK
        PUBWEAK WDCTL
        PUBWEAK _A_IEN0
        PUBWEAK _A_P0
        PUBWEAK _A_P1
        PUBWEAK __Constant_1000
        PUBWEAK __Constant_10000
        PUBWEAK __Constant_100000
        PUBWEAK __Constant_1000000
        PUBWEAK __Constant_2000
        PUBWEAK __Constant_20000
        PUBWEAK __Constant_200000
        PUBWEAK __Constant_2000000
        PUBWEAK __Constant_4000
        PUBWEAK __Constant_40000
        PUBWEAK __Constant_400000
        PUBWEAK __Constant_4000000
        PUBWEAK __Constant_800
        PUBWEAK __Constant_8000
        PUBWEAK __Constant_80000
        PUBWEAK __Constant_800000
        PUBLIC cb_ReadConfiguration
        FUNCTION cb_ReadConfiguration,021203H
        ARGFRAME XSTACK, 10, STACK
        ARGFRAME IOVERLAY, 0, STATIC
        ARGFRAME DOVERLAY, 0, STATIC
        LOCFRAME XSTACK, 16, STACK
        PUBLIC cb_WriteConfiguration
        FUNCTION cb_WriteConfiguration,021203H
        ARGFRAME XSTACK, 0, STACK
        LOCFRAME XSTACK, 14, STACK
        PUBLIC devlist
        PUBLIC ieeeAddr
        PUBLIC io_init
        FUNCTION io_init,0203H
        ARGFRAME XSTACK, 10, STACK
        ARGFRAME IOVERLAY, 0, STATIC
        ARGFRAME DOVERLAY, 0, STATIC
        PUBLIC panid
        PUBLIC serial_init
        FUNCTION serial_init,021203H
        ARGFRAME XSTACK, 10, STACK
        ARGFRAME IOVERLAY, 0, STATIC
        ARGFRAME DOVERLAY, 0, STATIC
        LOCFRAME ISTACK, 2, STACK
        LOCFRAME XSTACK, 29, STACK
        PUBLIC set_panid
        FUNCTION set_panid,021203H
        ARGFRAME XSTACK, 86, STACK
        ARGFRAME IOVERLAY, 0, STATIC
        ARGFRAME DOVERLAY, 0, STATIC
        LOCFRAME XSTACK, 16, STACK
        PUBLIC short_ddr
        PUBLIC uprint
        FUNCTION uprint,021203H
        ARGFRAME XSTACK, 86, STACK
        ARGFRAME IOVERLAY, 0, STATIC
        ARGFRAME DOVERLAY, 0, STATIC
        LOCFRAME XSTACK, 9, STACK
        
        CFI Names cfiNames0
        CFI StackFrame CFA_SP SP IDATA
        CFI StackFrame CFA_PSP16 PSP16 XDATA
        CFI StackFrame CFA_XSP16 XSP16 XDATA
        CFI StaticOverlayFrame CFA_IOVERLAY IOVERLAY
        CFI StaticOverlayFrame CFA_DOVERLAY DOVERLAY
        CFI Resource `PSW.CY`:1, `B.BR0`:1, `B.BR1`:1, `B.BR2`:1, `B.BR3`:1
        CFI Resource `B.BR4`:1, `B.BR5`:1, `B.BR6`:1, `B.BR7`:1, `VB.BR8`:1
        CFI Resource `VB.BR9`:1, `VB.BR10`:1, `VB.BR11`:1, `VB.BR12`:1
        CFI Resource `VB.BR13`:1, `VB.BR14`:1, `VB.BR15`:1, VB:8, B:8, A:8
        CFI Resource PSW:8, DPL0:8, DPH0:8, R0:8, R1:8, R2:8, R3:8, R4:8, R5:8
        CFI Resource R6:8, R7:8, V0:8, V1:8, V2:8, V3:8, V4:8, V5:8, V6:8, V7:8
        CFI Resource V8:8, V9:8, V10:8, V11:8, V12:8, V13:8, V14:8, V15:8, SP:8
        CFI Resource PSPH:8, PSPL:8, PSP16:16, XSPH:8, XSPL:8, XSP16:16
        CFI VirtualResource ?RET:24
        CFI Resource ?BRET_EXT:8
        CFI VirtualResource ?RET_HIGH:8, ?RET_LOW:8
        CFI ResourceParts PSP16 PSPH, PSPL
        CFI ResourceParts XSP16 XSPH, XSPL
        CFI ResourceParts ?RET ?BRET_EXT, ?RET_HIGH, ?RET_LOW
        CFI EndNames cfiNames0
        
        CFI Common cfiCommon0 Using cfiNames0
        CFI CodeAlign 1
        CFI DataAlign -1
        CFI ReturnAddress ?RET CODE
        CFI CFA_DOVERLAY Used
        CFI CFA_IOVERLAY Used
        CFI CFA_SP SP+-3
        CFI CFA_PSP16 PSP16+0
        CFI CFA_XSP16 XSP16+0
        CFI `PSW.CY` SameValue
        CFI `B.BR0` SameValue
        CFI `B.BR1` SameValue
        CFI `B.BR2` SameValue
        CFI `B.BR3` SameValue
        CFI `B.BR4` SameValue
        CFI `B.BR5` SameValue
        CFI `B.BR6` SameValue
        CFI `B.BR7` SameValue
        CFI `VB.BR8` SameValue
        CFI `VB.BR9` SameValue
        CFI `VB.BR10` SameValue
        CFI `VB.BR11` SameValue
        CFI `VB.BR12` SameValue
        CFI `VB.BR13` SameValue
        CFI `VB.BR14` SameValue
        CFI `VB.BR15` SameValue
        CFI VB SameValue
        CFI B Undefined
        CFI A Undefined
        CFI PSW SameValue
        CFI DPL0 SameValue
        CFI DPH0 SameValue
        CFI R0 Undefined
        CFI R1 Undefined
        CFI R2 Undefined
        CFI R3 Undefined
        CFI R4 Undefined
        CFI R5 Undefined
        CFI R6 SameValue
        CFI R7 SameValue
        CFI V0 SameValue
        CFI V1 SameValue
        CFI V2 SameValue
        CFI V3 SameValue
        CFI V4 SameValue
        CFI V5 SameValue
        CFI V6 SameValue
        CFI V7 SameValue
        CFI V8 SameValue
        CFI V9 SameValue
        CFI V10 SameValue
        CFI V11 SameValue
        CFI V12 SameValue
        CFI V13 SameValue
        CFI V14 SameValue
        CFI V15 SameValue
        CFI PSPH Undefined
        CFI PSPL Undefined
        CFI XSPH Undefined
        CFI XSPL Undefined
        CFI ?RET Concat
        CFI ?BRET_EXT Frame(CFA_SP, 3)
        CFI ?RET_HIGH Frame(CFA_SP, 2)
        CFI ?RET_LOW Frame(CFA_SP, 1)
        CFI EndCommon cfiCommon0
        
        
        CFI Common cfiCommon1 Using cfiNames0
        CFI CodeAlign 1
        CFI DataAlign -1
        CFI ReturnAddress ?RET CODE
        CFI CFA_DOVERLAY Used
        CFI CFA_IOVERLAY Used
        CFI CFA_SP SP+-2
        CFI CFA_PSP16 PSP16+0
        CFI CFA_XSP16 XSP16+0
        CFI `PSW.CY` SameValue
        CFI `B.BR0` SameValue
        CFI `B.BR1` SameValue
        CFI `B.BR2` SameValue
        CFI `B.BR3` SameValue
        CFI `B.BR4` SameValue
        CFI `B.BR5` SameValue
        CFI `B.BR6` SameValue
        CFI `B.BR7` SameValue
        CFI `VB.BR8` SameValue
        CFI `VB.BR9` SameValue
        CFI `VB.BR10` SameValue
        CFI `VB.BR11` SameValue
        CFI `VB.BR12` SameValue
        CFI `VB.BR13` SameValue
        CFI `VB.BR14` SameValue
        CFI `VB.BR15` SameValue
        CFI VB SameValue
        CFI B SameValue
        CFI A SameValue
        CFI PSW SameValue
        CFI DPL0 SameValue
        CFI DPH0 SameValue
        CFI R0 SameValue
        CFI R1 SameValue
        CFI R2 SameValue
        CFI R3 SameValue
        CFI R4 SameValue
        CFI R5 SameValue
        CFI R6 SameValue
        CFI R7 SameValue
        CFI V0 SameValue
        CFI V1 SameValue
        CFI V2 SameValue
        CFI V3 SameValue
        CFI V4 SameValue
        CFI V5 SameValue
        CFI V6 SameValue
        CFI V7 SameValue
        CFI V8 SameValue
        CFI V9 SameValue
        CFI V10 SameValue
        CFI V11 SameValue
        CFI V12 SameValue
        CFI V13 SameValue
        CFI V14 SameValue
        CFI V15 SameValue
        CFI PSPH Undefined
        CFI PSPL Undefined
        CFI XSPH Undefined
        CFI XSPL Undefined
        CFI ?RET Concat
        CFI ?BRET_EXT SameValue
        CFI ?RET_HIGH Frame(CFA_SP, 2)
        CFI ?RET_LOW Frame(CFA_SP, 1)
        CFI EndCommon cfiCommon1
        
AF_DataRequest      SYMBOL "AF_DataRequest"
HalUARTWrite        SYMBOL "HalUARTWrite"
strlen              SYMBOL "strlen"
HalUARTRead         SYMBOL "HalUARTRead"
NLME_GetExtAddr     SYMBOL "NLME_GetExtAddr"
osal_nv_item_init   SYMBOL "osal_nv_item_init"
osal_nv_write       SYMBOL "osal_nv_write"
zgWriteStartupOptions SYMBOL "zgWriteStartupOptions"
AssocCount          SYMBOL "AssocCount"
strncpy             SYMBOL "strncpy"
strtol              SYMBOL "strtol"
NLME_UpdateNV       SYMBOL "NLME_UpdateNV"
strstr              SYMBOL "strstr"
osal_nv_read        SYMBOL "osal_nv_read"
SSP_UpdateNwkKey    SYMBOL "SSP_UpdateNwkKey"
SSP_SwitchNwkKey    SYMBOL "SSP_SwitchNwkKey"
ZDApp_NVUpdate      SYMBOL "ZDApp_NVUpdate"
HalLedSet           SYMBOL "HalLedSet"
NLME_GetShortAddr   SYMBOL "NLME_GetShortAddr"
ZDP_EndDeviceBindReq SYMBOL "ZDP_EndDeviceBindReq"
ZDP_MatchDescReq    SYMBOL "ZDP_MatchDescReq"
ZMacSetReq          SYMBOL "ZMacSetReq"
HalAdcRead          SYMBOL "HalAdcRead"
HalUARTOpen         SYMBOL "HalUARTOpen"
macRadioSetPanID    SYMBOL "macRadioSetPanID"
osal_nv_item_len    SYMBOL "osal_nv_item_len"
afRegister          SYMBOL "afRegister"
RegisterForKeys     SYMBOL "RegisterForKeys"
HalLcdWriteString   SYMBOL "HalLcdWriteString"
ZDOInitDevice       SYMBOL "ZDOInitDevice"
osal_msg_receive    SYMBOL "osal_msg_receive"
osal_msg_deallocate SYMBOL "osal_msg_deallocate"
ZDO_ParseEPListRsp  SYMBOL "ZDO_ParseEPListRsp"
osal_mem_free       SYMBOL "osal_mem_free"
??AF_DataRequest?relay SYMBOL "?relay", AF_DataRequest
??AssocCount?relay  SYMBOL "?relay", AssocCount
??HalAdcRead?relay  SYMBOL "?relay", HalAdcRead
??HalLcdWriteString?relay SYMBOL "?relay", HalLcdWriteString
??HalLedSet?relay   SYMBOL "?relay", HalLedSet
??HalUARTOpen?relay SYMBOL "?relay", HalUARTOpen
??HalUARTRead?relay SYMBOL "?relay", HalUARTRead
??HalUARTWrite?relay SYMBOL "?relay", HalUARTWrite
??NLME_GetExtAddr?relay SYMBOL "?relay", NLME_GetExtAddr
??NLME_GetShortAddr?relay SYMBOL "?relay", NLME_GetShortAddr
??NLME_UpdateNV?relay SYMBOL "?relay", NLME_UpdateNV
??RegisterForKeys?relay SYMBOL "?relay", RegisterForKeys
??SSP_SwitchNwkKey?relay SYMBOL "?relay", SSP_SwitchNwkKey
??SSP_UpdateNwkKey?relay SYMBOL "?relay", SSP_UpdateNwkKey
??ZDApp_NVUpdate?relay SYMBOL "?relay", ZDApp_NVUpdate
??ZDOInitDevice?relay SYMBOL "?relay", ZDOInitDevice
??ZDO_ParseEPListRsp?relay SYMBOL "?relay", ZDO_ParseEPListRsp
??ZDP_EndDeviceBindReq?relay SYMBOL "?relay", ZDP_EndDeviceBindReq
??ZDP_MatchDescReq?relay SYMBOL "?relay", ZDP_MatchDescReq
??ZMacSetReq?relay  SYMBOL "?relay", ZMacSetReq
??afRegister?relay  SYMBOL "?relay", afRegister
??macRadioSetPanID?relay SYMBOL "?relay", macRadioSetPanID
??osal_mem_free?relay SYMBOL "?relay", osal_mem_free
??osal_msg_deallocate?relay SYMBOL "?relay", osal_msg_deallocate
??osal_msg_receive?relay SYMBOL "?relay", osal_msg_receive
??osal_nv_item_init?relay SYMBOL "?relay", osal_nv_item_init
??osal_nv_item_len?relay SYMBOL "?relay", osal_nv_item_len
??osal_nv_read?relay SYMBOL "?relay", osal_nv_read
??osal_nv_write?relay SYMBOL "?relay", osal_nv_write
??strlen?relay      SYMBOL "?relay", strlen
??strncpy?relay     SYMBOL "?relay", strncpy
??strstr?relay      SYMBOL "?relay", strstr
??strtol?relay      SYMBOL "?relay", strtol
??zgWriteStartupOptions?relay SYMBOL "?relay", zgWriteStartupOptions
Delay               SYMBOL "Delay"
??Delay?relay       SYMBOL "?relay", Delay
GenericApp_Init     SYMBOL "GenericApp_Init"
??GenericApp_Init?relay SYMBOL "?relay", GenericApp_Init
GenericApp_ProcessEvent SYMBOL "GenericApp_ProcessEvent"
??GenericApp_ProcessEvent?relay SYMBOL "?relay", GenericApp_ProcessEvent
SendData            SYMBOL "SendData"
??SendData?relay    SYMBOL "?relay", SendData
UART_Send_String    SYMBOL "UART_Send_String"
??UART_Send_String?relay SYMBOL "?relay", UART_Send_String
cb_ReadConfiguration SYMBOL "cb_ReadConfiguration"
??cb_ReadConfiguration?relay SYMBOL "?relay", cb_ReadConfiguration
cb_WriteConfiguration SYMBOL "cb_WriteConfiguration"
??cb_WriteConfiguration?relay SYMBOL "?relay", cb_WriteConfiguration
io_init             SYMBOL "io_init"
??io_init?relay     SYMBOL "?relay", io_init
serial_init         SYMBOL "serial_init"
??serial_init?relay SYMBOL "?relay", serial_init
set_panid           SYMBOL "set_panid"
??set_panid?relay   SYMBOL "?relay", set_panid
uprint              SYMBOL "uprint"
??uprint?relay      SYMBOL "?relay", uprint

        EXTERN AF_DataRequest
        FUNCTION AF_DataRequest,0202H
        ARGFRAME ISTACK, 0, STACK
        ARGFRAME PSTACK, 0, STACK
        ARGFRAME XSTACK, 31, STACK
        ARGFRAME IOVERLAY, 0, STATIC
        ARGFRAME DOVERLAY, 0, STATIC
        EXTERN HalUARTWrite
        FUNCTION HalUARTWrite,0202H
        ARGFRAME ISTACK, 2, STACK
        ARGFRAME PSTACK, 0, STACK
        ARGFRAME XSTACK, 0, STACK
        ARGFRAME IOVERLAY, 0, STATIC
        ARGFRAME DOVERLAY, 0, STATIC
        EXTERN strlen
        FUNCTION strlen,010202H
        ARGFRAME ISTACK, 0, STACK
        ARGFRAME PSTACK, 0, STACK
        ARGFRAME XSTACK, 9, STACK
        ARGFRAME IOVERLAY, 0, STATIC
        ARGFRAME DOVERLAY, 0, STATIC
        EXTERN HalUARTRead
        FUNCTION HalUARTRead,0202H
        ARGFRAME ISTACK, 0, STACK
        ARGFRAME PSTACK, 0, STACK
        ARGFRAME XSTACK, 86, STACK
        ARGFRAME IOVERLAY, 0, STATIC
        ARGFRAME DOVERLAY, 0, STATIC
        EXTERN NLME_GetExtAddr
        FUNCTION NLME_GetExtAddr,0202H
        ARGFRAME ISTACK, 0, STACK
        ARGFRAME PSTACK, 0, STACK
        ARGFRAME XSTACK, 86, STACK
        ARGFRAME IOVERLAY, 0, STATIC
        ARGFRAME DOVERLAY, 0, STATIC
        EXTERN osal_nv_item_init
        FUNCTION osal_nv_item_init,0202H
        ARGFRAME ISTACK, 0, STACK
        ARGFRAME PSTACK, 0, STACK
        ARGFRAME XSTACK, 88, STACK
        ARGFRAME IOVERLAY, 0, STATIC
        ARGFRAME DOVERLAY, 0, STATIC
        EXTERN osal_nv_write
        FUNCTION osal_nv_write,0202H
        ARGFRAME ISTACK, 0, STACK
        ARGFRAME PSTACK, 0, STACK
        ARGFRAME XSTACK, 90, STACK
        ARGFRAME IOVERLAY, 0, STATIC
        ARGFRAME DOVERLAY, 0, STATIC
        EXTERN zgWriteStartupOptions
        FUNCTION zgWriteStartupOptions,0202H
        ARGFRAME ISTACK, 0, STACK
        ARGFRAME PSTACK, 0, STACK
        ARGFRAME XSTACK, 86, STACK
        ARGFRAME IOVERLAY, 0, STATIC
        ARGFRAME DOVERLAY, 0, STATIC
        EXTERN AssocCount
        FUNCTION AssocCount,0202H
        ARGFRAME ISTACK, 0, STACK
        ARGFRAME PSTACK, 0, STACK
        ARGFRAME XSTACK, 86, STACK
        ARGFRAME IOVERLAY, 0, STATIC
        ARGFRAME DOVERLAY, 0, STATIC
        EXTERN strncpy
        FUNCTION strncpy,010202H
        ARGFRAME ISTACK, 0, STACK
        ARGFRAME PSTACK, 0, STACK
        ARGFRAME XSTACK, 88, STACK
        ARGFRAME IOVERLAY, 0, STATIC
        ARGFRAME DOVERLAY, 0, STATIC
        EXTERN strtol
        FUNCTION strtol,010202H
        ARGFRAME ISTACK, 0, STACK
        ARGFRAME PSTACK, 0, STACK
        ARGFRAME XSTACK, 88, STACK
        ARGFRAME IOVERLAY, 0, STATIC
        ARGFRAME DOVERLAY, 0, STATIC
        EXTERN NLME_UpdateNV
        FUNCTION NLME_UpdateNV,0202H
        ARGFRAME ISTACK, 0, STACK
        ARGFRAME PSTACK, 0, STACK
        ARGFRAME XSTACK, 86, STACK
        ARGFRAME IOVERLAY, 0, STATIC
        ARGFRAME DOVERLAY, 0, STATIC
        EXTERN strstr
        FUNCTION strstr,010202H
        ARGFRAME ISTACK, 0, STACK
        ARGFRAME PSTACK, 0, STACK
        ARGFRAME XSTACK, 86, STACK
        ARGFRAME IOVERLAY, 0, STATIC
        ARGFRAME DOVERLAY, 0, STATIC
        EXTERN osal_nv_read
        FUNCTION osal_nv_read,0202H
        ARGFRAME ISTACK, 0, STACK
        ARGFRAME PSTACK, 0, STACK
        ARGFRAME XSTACK, 90, STACK
        ARGFRAME IOVERLAY, 0, STATIC
        ARGFRAME DOVERLAY, 0, STATIC
        EXTERN SSP_UpdateNwkKey
        FUNCTION SSP_UpdateNwkKey,0202H
        ARGFRAME ISTACK, 0, STACK
        ARGFRAME PSTACK, 0, STACK
        ARGFRAME XSTACK, 86, STACK
        ARGFRAME IOVERLAY, 0, STATIC
        ARGFRAME DOVERLAY, 0, STATIC
        EXTERN SSP_SwitchNwkKey
        FUNCTION SSP_SwitchNwkKey,0202H
        ARGFRAME ISTACK, 0, STACK
        ARGFRAME PSTACK, 0, STACK
        ARGFRAME XSTACK, 86, STACK
        ARGFRAME IOVERLAY, 0, STATIC
        ARGFRAME DOVERLAY, 0, STATIC
        EXTERN ZDApp_NVUpdate
        FUNCTION ZDApp_NVUpdate,0202H
        ARGFRAME ISTACK, 0, STACK
        ARGFRAME PSTACK, 0, STACK
        ARGFRAME XSTACK, 86, STACK
        ARGFRAME IOVERLAY, 0, STATIC
        ARGFRAME DOVERLAY, 0, STATIC
        EXTERN HalLedSet
        FUNCTION HalLedSet,0202H
        ARGFRAME ISTACK, 0, STACK
        ARGFRAME PSTACK, 0, STACK
        ARGFRAME XSTACK, 86, STACK
        ARGFRAME IOVERLAY, 0, STATIC
        ARGFRAME DOVERLAY, 0, STATIC
        EXTERN NLME_GetShortAddr
        FUNCTION NLME_GetShortAddr,0202H
        ARGFRAME ISTACK, 0, STACK
        ARGFRAME PSTACK, 0, STACK
        ARGFRAME XSTACK, 86, STACK
        ARGFRAME IOVERLAY, 0, STATIC
        ARGFRAME DOVERLAY, 0, STATIC
        EXTERN ZDP_EndDeviceBindReq
        FUNCTION ZDP_EndDeviceBindReq,0202H
        ARGFRAME ISTACK, 0, STACK
        ARGFRAME PSTACK, 0, STACK
        ARGFRAME XSTACK, 95, STACK
        ARGFRAME IOVERLAY, 0, STATIC
        ARGFRAME DOVERLAY, 0, STATIC
        EXTERN ZDP_MatchDescReq
        FUNCTION ZDP_MatchDescReq,0202H
        ARGFRAME ISTACK, 0, STACK
        ARGFRAME PSTACK, 0, STACK
        ARGFRAME XSTACK, 94, STACK
        ARGFRAME IOVERLAY, 0, STATIC
        ARGFRAME DOVERLAY, 0, STATIC
        EXTERN ZMacSetReq
        FUNCTION ZMacSetReq,0202H
        ARGFRAME ISTACK, 0, STACK
        ARGFRAME PSTACK, 0, STACK
        ARGFRAME XSTACK, 86, STACK
        ARGFRAME IOVERLAY, 0, STATIC
        ARGFRAME DOVERLAY, 0, STATIC
        EXTERN HalAdcRead
        FUNCTION HalAdcRead,0202H
        ARGFRAME ISTACK, 0, STACK
        ARGFRAME PSTACK, 0, STACK
        ARGFRAME XSTACK, 86, STACK
        ARGFRAME IOVERLAY, 0, STATIC
        ARGFRAME DOVERLAY, 0, STATIC
        EXTERN HalUARTOpen
        FUNCTION HalUARTOpen,0202H
        ARGFRAME ISTACK, 2, STACK
        ARGFRAME PSTACK, 0, STACK
        ARGFRAME XSTACK, 29, STACK
        ARGFRAME IOVERLAY, 0, STATIC
        ARGFRAME DOVERLAY, 0, STATIC
        EXTERN macRadioSetPanID
        FUNCTION macRadioSetPanID,0202H
        ARGFRAME ISTACK, 0, STACK
        ARGFRAME PSTACK, 0, STACK
        ARGFRAME XSTACK, 12, STACK
        ARGFRAME IOVERLAY, 0, STATIC
        ARGFRAME DOVERLAY, 0, STATIC
        EXTERN osal_nv_item_len
        FUNCTION osal_nv_item_len,0202H
        ARGFRAME ISTACK, 0, STACK
        ARGFRAME PSTACK, 0, STACK
        ARGFRAME XSTACK, 12, STACK
        ARGFRAME IOVERLAY, 0, STATIC
        ARGFRAME DOVERLAY, 0, STATIC
        EXTERN afRegister
        FUNCTION afRegister,0202H
        ARGFRAME ISTACK, 0, STACK
        ARGFRAME PSTACK, 0, STACK
        ARGFRAME XSTACK, 10, STACK
        ARGFRAME IOVERLAY, 0, STATIC
        ARGFRAME DOVERLAY, 0, STATIC
        EXTERN RegisterForKeys
        FUNCTION RegisterForKeys,0202H
        ARGFRAME ISTACK, 0, STACK
        ARGFRAME PSTACK, 0, STACK
        ARGFRAME XSTACK, 10, STACK
        ARGFRAME IOVERLAY, 0, STATIC
        ARGFRAME DOVERLAY, 0, STATIC
        EXTERN HalLcdWriteString
        FUNCTION HalLcdWriteString,0202H
        ARGFRAME ISTACK, 0, STACK
        ARGFRAME PSTACK, 0, STACK
        ARGFRAME XSTACK, 10, STACK
        ARGFRAME IOVERLAY, 0, STATIC
        ARGFRAME DOVERLAY, 0, STATIC
        EXTERN ZDOInitDevice
        FUNCTION ZDOInitDevice,0202H
        ARGFRAME ISTACK, 0, STACK
        ARGFRAME PSTACK, 0, STACK
        ARGFRAME XSTACK, 10, STACK
        ARGFRAME IOVERLAY, 0, STATIC
        ARGFRAME DOVERLAY, 0, STATIC
        EXTERN osal_msg_receive
        FUNCTION osal_msg_receive,0202H
        ARGFRAME ISTACK, 0, STACK
        ARGFRAME PSTACK, 0, STACK
        ARGFRAME XSTACK, 12, STACK
        ARGFRAME IOVERLAY, 0, STATIC
        ARGFRAME DOVERLAY, 0, STATIC
        EXTERN osal_msg_deallocate
        FUNCTION osal_msg_deallocate,0202H
        ARGFRAME ISTACK, 0, STACK
        ARGFRAME PSTACK, 0, STACK
        ARGFRAME XSTACK, 12, STACK
        ARGFRAME IOVERLAY, 0, STATIC
        ARGFRAME DOVERLAY, 0, STATIC
        EXTERN ZDO_ParseEPListRsp
        FUNCTION ZDO_ParseEPListRsp,0202H
        ARGFRAME ISTACK, 0, STACK
        ARGFRAME PSTACK, 0, STACK
        ARGFRAME XSTACK, 12, STACK
        ARGFRAME IOVERLAY, 0, STATIC
        ARGFRAME DOVERLAY, 0, STATIC
        EXTERN osal_mem_free
        FUNCTION osal_mem_free,0202H
        ARGFRAME ISTACK, 0, STACK
        ARGFRAME PSTACK, 0, STACK
        ARGFRAME XSTACK, 12, STACK
        ARGFRAME IOVERLAY, 0, STATIC
        ARGFRAME DOVERLAY, 0, STATIC
        EXTERN ??AF_DataRequest?relay
        FUNCTION ??AF_DataRequest?relay,00H
        EXTERN ??AssocCount?relay
        FUNCTION ??AssocCount?relay,00H
        EXTERN ??HalAdcRead?relay
        FUNCTION ??HalAdcRead?relay,00H
        EXTERN ??HalLcdWriteString?relay
        FUNCTION ??HalLcdWriteString?relay,00H
        EXTERN ??HalLedSet?relay
        FUNCTION ??HalLedSet?relay,00H
        EXTERN ??HalUARTOpen?relay
        FUNCTION ??HalUARTOpen?relay,00H
        EXTERN ??HalUARTRead?relay
        FUNCTION ??HalUARTRead?relay,00H
        EXTERN ??HalUARTWrite?relay
        FUNCTION ??HalUARTWrite?relay,00H
        EXTERN ??NLME_GetExtAddr?relay
        FUNCTION ??NLME_GetExtAddr?relay,00H
        EXTERN ??NLME_GetShortAddr?relay
        FUNCTION ??NLME_GetShortAddr?relay,00H
        EXTERN ??NLME_UpdateNV?relay
        FUNCTION ??NLME_UpdateNV?relay,00H
        EXTERN ??RegisterForKeys?relay
        FUNCTION ??RegisterForKeys?relay,00H
        EXTERN ??SSP_SwitchNwkKey?relay
        FUNCTION ??SSP_SwitchNwkKey?relay,00H
        EXTERN ??SSP_UpdateNwkKey?relay
        FUNCTION ??SSP_UpdateNwkKey?relay,00H
        EXTERN ??ZDApp_NVUpdate?relay
        FUNCTION ??ZDApp_NVUpdate?relay,00H
        EXTERN ??ZDOInitDevice?relay
        FUNCTION ??ZDOInitDevice?relay,00H
        EXTERN ??ZDO_ParseEPListRsp?relay
        FUNCTION ??ZDO_ParseEPListRsp?relay,00H
        EXTERN ??ZDP_EndDeviceBindReq?relay
        FUNCTION ??ZDP_EndDeviceBindReq?relay,00H
        EXTERN ??ZDP_MatchDescReq?relay
        FUNCTION ??ZDP_MatchDescReq?relay,00H
        EXTERN ??ZMacSetReq?relay
        FUNCTION ??ZMacSetReq?relay,00H
        EXTERN ??afRegister?relay
        FUNCTION ??afRegister?relay,00H
        EXTERN ??macRadioSetPanID?relay
        FUNCTION ??macRadioSetPanID?relay,00H
        EXTERN ??osal_mem_free?relay
        FUNCTION ??osal_mem_free?relay,00H
        EXTERN ??osal_msg_deallocate?relay
        FUNCTION ??osal_msg_deallocate?relay,00H
        EXTERN ??osal_msg_receive?relay
        FUNCTION ??osal_msg_receive?relay,00H
        EXTERN ??osal_nv_item_init?relay
        FUNCTION ??osal_nv_item_init?relay,00H
        EXTERN ??osal_nv_item_len?relay
        FUNCTION ??osal_nv_item_len?relay,00H
        EXTERN ??osal_nv_read?relay
        FUNCTION ??osal_nv_read?relay,00H
        EXTERN ??osal_nv_write?relay
        FUNCTION ??osal_nv_write?relay,00H
        EXTERN ??strlen?relay
        FUNCTION ??strlen?relay,00H
        EXTERN ??strncpy?relay
        FUNCTION ??strncpy?relay,00H
        EXTERN ??strstr?relay
        FUNCTION ??strstr?relay,00H
        EXTERN ??strtol?relay
        FUNCTION ??strtol?relay,00H
        EXTERN ??zgWriteStartupOptions?relay
        FUNCTION ??zgWriteStartupOptions?relay,00H
        EXTERN AssociatedDevList
        EXTERN ZDO_Config_Node_Descriptor
        EXTERN _NIB
        EXTERN zgDefaultChannelList
        EXTERN zgDeviceLogicalType

// C:\Texas Instruments\ZStack-CC2530-2.5.1a\Projects\zstack\Samples\testApp_2.5\Source\GenericApp.c
//    1 
//    2 #include <iocc2530.h>

        ASEGN SFR_AN:DATA:NOROOT,080H
// union <unnamed> volatile __sfr _A_P0
_A_P0:
        DATA8
        DS 1

        ASEGN SFR_AN:DATA:NOROOT,089H
// unsigned char volatile __sfr P0IFG
P0IFG:
        DATA8
        DS 1

        ASEGN SFR_AN:DATA:NOROOT,090H
// union <unnamed> volatile __sfr _A_P1
_A_P1:
        DATA8
        DS 1

        ASEGN SFR_AN:DATA:NOROOT,0a8H
// union <unnamed> volatile __sfr _A_IEN0
_A_IEN0:
        DATA8
        DS 1

        ASEGN SFR_AN:DATA:NOROOT,0c9H
// unsigned char volatile __sfr WDCTL
WDCTL:
        DATA8
        DS 1

        ASEGN SFR_AN:DATA:NOROOT,0fdH
// unsigned char volatile __sfr P0DIR
P0DIR:
        DATA8
        DS 1
//    3 #include <stdio.h>
//    4 #include <stdlib.h>
//    5 #include <string.h>
//    6 
//    7 #include "OSAL.h"
//    8 #include "OSAL_Nv.h"
//    9 
//   10 #include "AF.h"
//   11 #include "ZDApp.h"
//   12 #include "ZDObject.h"
//   13 #include "ZDProfile.h"
//   14 #include "ZDSecMgr.h"
//   15 
//   16 
//   17 #include "GenericApp.h"
//   18 #include "DebugTrace.h"
//   19 
//   20 #if !defined( WIN32 )
//   21   #include "OnBoard.h"
//   22 #endif
//   23 
//   24 /* HAL */
//   25 #include "hal_adc.h"
//   26 #include "hal_mcu.h"
//   27 #include "hal_lcd.h"
//   28 #include "hal_led.h"
//   29 #include "hal_key.h"
//   30 #include "hal_uart.h"
//   31 #include "hal_drivers.h"
//   32 
//   33 #include "nwk_util.h"
//   34 
//   35 #include "mac_low_level.h"
//   36 
//   37 
//   38 /* RTOS */
//   39 #if defined( IAR_ARMCM3_LM )
//   40 #include "RTOS_App.h"
//   41 #endif  
//   42 
//   43 //#define HAL_KEY_SW_6_BIT    BV(1)
//   44 //#define HAL_KEY_JOY_MOVE_BIT    BV(0)
//   45 

        RSEG XDATA_Z:XDATA:NOROOT(0)
        DATA8
//   46 uint16 devlist[ NWK_MAX_DEVICES + 1];
devlist:
        DS 44
        REQUIRE __INIT_XDATA_Z

        RSEG XDATA_Z:XDATA:NOROOT(0)
        DATA16
//   47 uint8* ieeeAddr;
ieeeAddr:
        DS 2
        REQUIRE __INIT_XDATA_Z

        RSEG XDATA_Z:XDATA:NOROOT(0)
        DATA16
//   48 uint16 short_ddr;
short_ddr:
        DS 2
        REQUIRE __INIT_XDATA_Z

        RSEG XDATA_Z:XDATA:NOROOT(0)
        DATA16
//   49 uint16 panid;
panid:
        DS 2
        REQUIRE __INIT_XDATA_Z
//   50 
//   51 
//   52 // This list should be filled with Application specific Cluster IDs.

        RSEG XDATA_ROM_C:CONST:REORDER:NOROOT(0)
        DATA16
//   53 const cId_t GenericApp_ClusterList[GENERICAPP_MAX_CLUSTERS] =
GenericApp_ClusterList:
        DW 1
//   54 {
//   55   GENERICAPP_CLUSTERID
//   56 };
//   57 
//   58 

        RSEG XDATA_I:XDATA:NOROOT(0)
//   59 SimpleDescriptionFormat_t GenericApp_SimpleDesc =
GenericApp_SimpleDesc:
        DATA8
        DS 12
        REQUIRE `?<Initializer for GenericApp_SimpleDesc>`
        REQUIRE __INIT_XDATA_I
//   60 {
//   61   GENERICAPP_ENDPOINT,              //  int Endpoint;
//   62   GENERICAPP_PROFID,                //  uint16 AppProfId[2];
//   63   GENERICAPP_DEVICEID,              //  uint16 AppDeviceId[2];
//   64   GENERICAPP_DEVICE_VERSION,        //  int   AppDevVer:4;
//   65   GENERICAPP_FLAGS,                 //  int   AppFlags:4;
//   66   GENERICAPP_MAX_CLUSTERS,          //  byte  AppNumInClusters;
//   67   (cId_t *)GenericApp_ClusterList,  //  byte *pAppInClusterList;
//   68   GENERICAPP_MAX_CLUSTERS,          //  byte  AppNumInClusters;
//   69   (cId_t *)GenericApp_ClusterList   //  byte *pAppInClusterList;
//   70 };
//   71 
//   72 // This is the Endpoint/Interface description.  It is defined here, but
//   73 // filled-in in GenericApp_Init().  Another way to go would be to fill
//   74 // in the structure here and make it a "const" (in code space).  The
//   75 // way it's defined in this sample app it is define in RAM.

        RSEG XDATA_Z:XDATA:NOROOT(0)
        DATA8
//   76 endPointDesc_t GenericApp_epDesc;
GenericApp_epDesc:
        DS 6
        REQUIRE __INIT_XDATA_Z
//   77 
//   78 /*********************************************************************
//   79  * EXTERNAL VARIABLES
//   80  */
//   81 
//   82 /*********************************************************************
//   83  * EXTERNAL FUNCTIONS
//   84  */
//   85 
//   86 /*********************************************************************
//   87  * LOCAL VARIABLES
//   88  */

        RSEG XDATA_Z:XDATA:NOROOT(0)
        DATA8
//   89 byte GenericApp_TaskID;   // Task ID for internal task/event processing
GenericApp_TaskID:
        DS 1
        REQUIRE __INIT_XDATA_Z
//   90                           // This variable will be received when
//   91                           // GenericApp_Init() is called.

        RSEG XDATA_Z:XDATA:NOROOT(0)
        DATA8
//   92 devStates_t GenericApp_NwkState;
GenericApp_NwkState:
        DS 1
        REQUIRE __INIT_XDATA_Z
//   93 
//   94 

        RSEG XDATA_Z:XDATA:NOROOT(0)
        DATA8
//   95 byte GenericApp_TransID;  // This is the unique message ID (counter)
GenericApp_TransID:
        DS 1
        REQUIRE __INIT_XDATA_Z
//   96 
//   97 

        RSEG XDATA_Z:XDATA:NOROOT(0)
        DATA8
//   98 devStates_t App_NwkState;
App_NwkState:
        DS 1
        REQUIRE __INIT_XDATA_Z
//   99 

        RSEG XDATA_Z:XDATA:NOROOT(0)
        DATA8
//  100 afAddrType_t GenericApp_DstAddr;
GenericApp_DstAddr:
        DS 12
        REQUIRE __INIT_XDATA_Z
//  101 
//  102 
//  103 #define uint unsigned int
//  104 #define uchar unsigned char
//  105 
//  106 
//  107 #define SER_PORT 0
//  108 
//  109 #define TEST_BUTTON P0_1
//  110 
//  111 void Delay(unsigned  );
//  112 void UART_Send_String( unsigned char *,int );
//  113 void uprint( uint8*);
//  114 
//  115 void serial_init(void );
//  116 void io_init(void);
//  117 void _halProcessKeyInterrupt (void);
//  118 
//  119 void set_panid( uint16 );
//  120 uint8 cb_ReadConfiguration( uint8 , uint8 , void * );
//  121 uint8 cb_WriteConfiguration( uint8 , uint8 , void *);
//  122 uint8 SendData( uint16, uint8 *, uint8);
//  123 

        RSEG BANKED_CODE:CODE:NOROOT(0)
//  124 uint8 SendData( uint16 addr, uint8 *buf, uint8 Leng)
SendData:
        CFI Block cfiBlock0 Using cfiCommon0
        CFI Function SendData
        CODE
//  125 {
        FUNCALL SendData, AF_DataRequest
        LOCFRAME ISTACK, 0, STACK
        LOCFRAME PSTACK, 0, STACK
        LOCFRAME XSTACK, 31, STACK
        LOCFRAME IOVERLAY, 0, STATIC
        LOCFRAME DOVERLAY, 0, STATIC
        ARGFRAME ISTACK, 0, STACK
        ARGFRAME PSTACK, 0, STACK
        ARGFRAME XSTACK, 31, STACK
        ARGFRAME IOVERLAY, 0, STATIC
        ARGFRAME DOVERLAY, 0, STATIC
        MOV     A,#-0xa
        LCALL   ?BANKED_ENTER_XDATA
        CFI DPH0 load(1, XDATA, add(CFA_XSP16, literal(-1)))
        CFI DPL0 load(1, XDATA, add(CFA_XSP16, literal(-2)))
        CFI ?BRET_EXT load(1, XDATA, add(CFA_XSP16, literal(-3)))
        CFI ?RET_HIGH load(1, XDATA, add(CFA_XSP16, literal(-4)))
        CFI ?RET_LOW load(1, XDATA, add(CFA_XSP16, literal(-5)))
        CFI R7 load(1, XDATA, add(CFA_XSP16, literal(-6)))
        CFI V1 load(1, XDATA, add(CFA_XSP16, literal(-7)))
        CFI V0 load(1, XDATA, add(CFA_XSP16, literal(-8)))
        CFI VB load(1, XDATA, add(CFA_XSP16, literal(-9)))
        CFI R6 load(1, XDATA, add(CFA_XSP16, literal(-10)))
        CFI CFA_SP SP+0
        CFI CFA_XSP16 add(XSP16, 10)
        ; Saved register size: 10
        ; Auto size: 12
        MOV     A,#-0xc
        LCALL   ?ALLOC_XSTACK8
        CFI CFA_XSP16 add(XSP16, 22)
        MOV     A,R1
        MOV     R6,A
//  126         afAddrType_t SendDataAddr;
//  127         
//  128         SendDataAddr.addrMode = (afAddrMode_t)Addr16Bit;
        MOV     A,#0x8
        LCALL   ?XSTACK_DISP0_8
        MOV     A,#0x2
        MOVX    @DPTR,A
//  129         SendDataAddr.endPoint = GENERICAPP_ENDPOINT;
        MOV     A,#0x9
        LCALL   ?XSTACK_DISP0_8
        MOV     A,#0x14
        LCALL   ?Subroutine8 & 0xFFFF
//  130         SendDataAddr.addr.shortAddr = addr;
??CrossCallReturnLabel_15:
        MOV     A,R2
        MOVX    @DPTR,A
        INC     DPTR
        MOV     A,R3
        MOVX    @DPTR,A
//  131         if ( AF_DataRequest( &SendDataAddr, &GenericApp_epDesc,
//  132                        GENERICAPP_CLUSTERID,
//  133                        Leng,
//  134                        buf,
//  135                        &GenericApp_TransID,
//  136                        AF_DISCV_ROUTE,
//  137                      //  AF_ACK_REQUEST,
//  138                        AF_DEFAULT_RADIUS ) == afStatus_SUCCESS )
        ; Setup parameters for call to function AF_DataRequest
        MOV     ?V0 + 0,#0x1e
        MOV     R0,#?V0 + 0
        LCALL   ?PUSH_XSTACK_I_ONE
        CFI CFA_XSP16 add(XSP16, 23)
        MOV     ?V0 + 0,#GenericApp_TransID & 0xff
        MOV     ?V0 + 1,#(GenericApp_TransID >> 8) & 0xff
        MOV     R0,#?V0 + 0
        LCALL   ?PUSH_XSTACK_I_TWO
        CFI CFA_XSP16 add(XSP16, 25)
        MOV     ?V0 + 0,R4
        MOV     ?V0 + 1,R5
        MOV     R0,#?V0 + 0
        LCALL   ?PUSH_XSTACK_I_TWO
        CFI CFA_XSP16 add(XSP16, 27)
        MOV     ?V0 + 0,R6
        MOV     ?V0 + 1,#0x0
        MOV     R0,#?V0 + 0
        LCALL   ?PUSH_XSTACK_I_TWO
        CFI CFA_XSP16 add(XSP16, 29)
        MOV     ?V0 + 0,#0x1
        MOV     R0,#?V0 + 0
        LCALL   ?PUSH_XSTACK_I_TWO
        CFI CFA_XSP16 add(XSP16, 31)
        MOV     R1,#0x20
        MOV     R4,#GenericApp_epDesc & 0xff
        MOV     R5,#(GenericApp_epDesc >> 8) & 0xff
        MOV     A,#0x9
        LCALL   ?XSTACK_DISP0_8
        MOV     R2,DPL
        MOV     R3,DPH
        LCALL   ??AF_DataRequest?relay
        MOV     A,#0x9
        LCALL   ?DEALLOC_XSTACK8
        CFI CFA_XSP16 add(XSP16, 22)
        MOV     A,R1
        JNZ     ??SendData_0
//  139         {
//  140                 return 1;
        MOV     R1,#0x1
        SJMP    ??SendData_1
//  141         }
//  142         else
//  143         {
//  144                 return 0;// Error occurred in request to send.
??SendData_0:
        MOV     R1,#0x0
??SendData_1:
        MOV     A,#0xc
//  145         }
        LJMP    ?Subroutine0 & 0xFFFF
        CFI EndBlock cfiBlock0
//  146 }
//  147 

        RSEG BANKED_CODE:CODE:NOROOT(0)
//  148 void Delay(unsigned n)  
Delay:
        CFI Block cfiBlock1 Using cfiCommon0
        CFI Function Delay
        CODE
//  149 {
        ; Saved register size: 0
        ; Auto size: 0
//  150  unsigned tt;
//  151  for(tt=0;tt<n;tt++);
        MOV     R0,#0x0
        MOV     R1,#0x0
        SJMP    ??CrossCallReturnLabel_6
??Delay_0:
        LCALL   ?Subroutine5 & 0xFFFF
??CrossCallReturnLabel_6:
        CLR     C
        MOV     A,R0
        SUBB    A,R2
        MOV     A,R1
        SUBB    A,R3
        JC      ??Delay_0
//  152  for(tt=0;tt<n;tt++);
        MOV     R0,#0x0
        MOV     R1,#0x0
        SJMP    ??CrossCallReturnLabel_7
??Delay_1:
        LCALL   ?Subroutine5 & 0xFFFF
??CrossCallReturnLabel_7:
        CLR     C
        MOV     A,R0
        SUBB    A,R2
        MOV     A,R1
        SUBB    A,R3
        JC      ??Delay_1
//  153  for(tt=0;tt<n;tt++);
        MOV     R0,#0x0
        MOV     R1,#0x0
        SJMP    ??CrossCallReturnLabel_8
??Delay_2:
        LCALL   ?Subroutine5 & 0xFFFF
??CrossCallReturnLabel_8:
        CLR     C
        MOV     A,R0
        SUBB    A,R2
        MOV     A,R1
        SUBB    A,R3
        JC      ??Delay_2
//  154  for(tt=0;tt<n;tt++);
        MOV     R0,#0x0
        MOV     R1,#0x0
        SJMP    ??CrossCallReturnLabel_9
??Delay_3:
        LCALL   ?Subroutine5 & 0xFFFF
??CrossCallReturnLabel_9:
        CLR     C
        MOV     A,R0
        SUBB    A,R2
        MOV     A,R1
        SUBB    A,R3
        JC      ??Delay_3
//  155  for(tt=0;tt<n;tt++);
        MOV     R0,#0x0
        MOV     R1,#0x0
        SJMP    ??CrossCallReturnLabel_10
??Delay_4:
        LCALL   ?Subroutine5 & 0xFFFF
??CrossCallReturnLabel_10:
        CLR     C
        MOV     A,R0
        SUBB    A,R2
        MOV     A,R1
        SUBB    A,R3
        JC      ??Delay_4
//  156 }
        LJMP    ?BRET
        CFI EndBlock cfiBlock1

        RSEG BANKED_CODE:CODE:NOROOT(0)
?Subroutine5:
        CFI Block cfiCond2 Using cfiCommon0
        CFI NoFunction
        CFI Conditional ??CrossCallReturnLabel_6
        CFI Block cfiCond3 Using cfiCommon0
        CFI (cfiCond3) NoFunction
        CFI (cfiCond3) Conditional ??CrossCallReturnLabel_7
        CFI Block cfiCond4 Using cfiCommon0
        CFI (cfiCond4) NoFunction
        CFI (cfiCond4) Conditional ??CrossCallReturnLabel_8
        CFI Block cfiCond5 Using cfiCommon0
        CFI (cfiCond5) NoFunction
        CFI (cfiCond5) Conditional ??CrossCallReturnLabel_9
        CFI Block cfiCond6 Using cfiCommon0
        CFI (cfiCond6) NoFunction
        CFI (cfiCond6) Conditional ??CrossCallReturnLabel_10
        CFI Block cfiPicker7 Using cfiCommon1
        CFI (cfiPicker7) NoFunction
        CFI (cfiPicker7) Picker
        MOV     A,R0
        ADD     A,#0x1
        INC     R0
        MOV     A,R1
        ADDC    A,#0x0
        MOV     R1,A
        RET
        CFI EndBlock cfiCond2
        CFI EndBlock cfiCond3
        CFI EndBlock cfiCond4
        CFI EndBlock cfiCond5
        CFI EndBlock cfiCond6
        CFI EndBlock cfiPicker7
//  157 

        RSEG BANKED_CODE:CODE:NOROOT(0)
//  158 void UART_Send_String( unsigned char *Data,int len)
UART_Send_String:
        CFI Block cfiBlock8 Using cfiCommon0
        CFI Function UART_Send_String
        CODE
//  159 {
        FUNCALL UART_Send_String, HalUARTWrite
        LOCFRAME ISTACK, 2, STACK
        LOCFRAME PSTACK, 0, STACK
        LOCFRAME XSTACK, 0, STACK
        LOCFRAME IOVERLAY, 0, STATIC
        LOCFRAME DOVERLAY, 0, STATIC
        ARGFRAME ISTACK, 2, STACK
        ARGFRAME PSTACK, 0, STACK
        ARGFRAME XSTACK, 0, STACK
        ARGFRAME IOVERLAY, 0, STATIC
        ARGFRAME DOVERLAY, 0, STATIC
        PUSH    DPL
        CFI DPL0 Frame(CFA_SP, 4)
        CFI CFA_SP SP+-4
        PUSH    DPH
        CFI DPH0 Frame(CFA_SP, 5)
        CFI CFA_SP SP+-5
        ; Saved register size: 2
        ; Auto size: 0
//  160 
//  161   HalUARTWrite( SER_PORT,  Data, len);
        ; Setup parameters for call to function HalUARTWrite
        MOV     R1,#0x0
        LCALL   ??HalUARTWrite?relay
        CFI EndBlock cfiBlock8
//  162 }
        REQUIRE ?Subroutine1
        ; // Fall through to label ?Subroutine1

        RSEG BANKED_CODE:CODE:NOROOT(0)
?Subroutine1:
        CFI Block cfiBlock9 Using cfiCommon0
        CFI NoFunction
        CFI CFA_SP SP+-5
        CFI DPL0 Frame(CFA_SP, 4)
        CFI DPH0 Frame(CFA_SP, 5)
        POP     DPH
        CFI CFA_SP SP+-4
        CFI DPH0 SameValue
        POP     DPL
        CFI CFA_SP SP+-3
        CFI DPL0 SameValue
        LJMP    ?BRET
        CFI EndBlock cfiBlock9
//  163 
//  164 

        RSEG BANKED_CODE:CODE:NOROOT(0)
//  165 void uprint( uint8 * Data)
uprint:
        CFI Block cfiBlock10 Using cfiCommon0
        CFI Function uprint
        CODE
//  166 {
        FUNCALL uprint, strlen
        LOCFRAME ISTACK, 0, STACK
        LOCFRAME PSTACK, 0, STACK
        LOCFRAME XSTACK, 9, STACK
        LOCFRAME IOVERLAY, 0, STATIC
        LOCFRAME DOVERLAY, 0, STATIC
        ARGFRAME ISTACK, 0, STACK
        ARGFRAME PSTACK, 0, STACK
        ARGFRAME XSTACK, 9, STACK
        ARGFRAME IOVERLAY, 0, STATIC
        ARGFRAME DOVERLAY, 0, STATIC
        FUNCALL uprint, UART_Send_String
        LOCFRAME ISTACK, 0, STACK
        LOCFRAME PSTACK, 0, STACK
        LOCFRAME XSTACK, 9, STACK
        LOCFRAME IOVERLAY, 0, STATIC
        LOCFRAME DOVERLAY, 0, STATIC
        ARGFRAME ISTACK, 0, STACK
        ARGFRAME PSTACK, 0, STACK
        ARGFRAME XSTACK, 9, STACK
        ARGFRAME IOVERLAY, 0, STATIC
        ARGFRAME DOVERLAY, 0, STATIC
        MOV     A,#-0x9
        LCALL   ?BANKED_ENTER_XDATA
        CFI DPH0 load(1, XDATA, add(CFA_XSP16, literal(-1)))
        CFI DPL0 load(1, XDATA, add(CFA_XSP16, literal(-2)))
        CFI ?BRET_EXT load(1, XDATA, add(CFA_XSP16, literal(-3)))
        CFI ?RET_HIGH load(1, XDATA, add(CFA_XSP16, literal(-4)))
        CFI ?RET_LOW load(1, XDATA, add(CFA_XSP16, literal(-5)))
        CFI R7 load(1, XDATA, add(CFA_XSP16, literal(-6)))
        CFI V0 load(1, XDATA, add(CFA_XSP16, literal(-7)))
        CFI VB load(1, XDATA, add(CFA_XSP16, literal(-8)))
        CFI R6 load(1, XDATA, add(CFA_XSP16, literal(-9)))
        CFI CFA_SP SP+0
        CFI CFA_XSP16 add(XSP16, 9)
        ; Saved register size: 9
        ; Auto size: 0
        MOV     A,R2
        MOV     R6,A
        MOV     A,R3
        MOV     R7,A
//  167   UART_Send_String( Data, strlen(Data) );
        ; Setup parameters for call to function UART_Send_String
        ; Setup parameters for call to function strlen
        LCALL   ??strlen?relay
        MOV     A,R2
        MOV     R4,A
        MOV     A,R3
        MOV     R5,A
        MOV     A,R6
        MOV     R2,A
        MOV     A,R7
        MOV     R3,A
        LCALL   ??UART_Send_String?relay
//  168 }
        MOV     R7,#0x1
        LJMP    ?BANKED_LEAVE_XDATA
        CFI EndBlock cfiBlock10
//  169 
//  170 

        RSEG BANKED_CODE:CODE:NOROOT(0)
//  171 static void Serial_callBack(uint8 port, uint8 event)
Serial_callBack:
        CFI Block cfiBlock11 Using cfiCommon0
        CFI Function Serial_callBack
        CODE
//  172 {
        FUNCALL Serial_callBack, HalUARTRead
        LOCFRAME ISTACK, 0, STACK
        LOCFRAME PSTACK, 0, STACK
        LOCFRAME XSTACK, 86, STACK
        LOCFRAME IOVERLAY, 0, STATIC
        LOCFRAME DOVERLAY, 0, STATIC
        ARGFRAME ISTACK, 0, STACK
        ARGFRAME PSTACK, 0, STACK
        ARGFRAME XSTACK, 86, STACK
        ARGFRAME IOVERLAY, 0, STATIC
        ARGFRAME DOVERLAY, 0, STATIC
        FUNCALL Serial_callBack, UART_Send_String
        LOCFRAME ISTACK, 0, STACK
        LOCFRAME PSTACK, 0, STACK
        LOCFRAME XSTACK, 86, STACK
        LOCFRAME IOVERLAY, 0, STATIC
        LOCFRAME DOVERLAY, 0, STATIC
        ARGFRAME ISTACK, 0, STACK
        ARGFRAME PSTACK, 0, STACK
        ARGFRAME XSTACK, 86, STACK
        ARGFRAME IOVERLAY, 0, STATIC
        ARGFRAME DOVERLAY, 0, STATIC
        FUNCALL Serial_callBack, UART_Send_String
        LOCFRAME ISTACK, 0, STACK
        LOCFRAME PSTACK, 0, STACK
        LOCFRAME XSTACK, 86, STACK
        LOCFRAME IOVERLAY, 0, STATIC
        LOCFRAME DOVERLAY, 0, STATIC
        ARGFRAME ISTACK, 0, STACK
        ARGFRAME PSTACK, 0, STACK
        ARGFRAME XSTACK, 86, STACK
        ARGFRAME IOVERLAY, 0, STATIC
        ARGFRAME DOVERLAY, 0, STATIC
        FUNCALL Serial_callBack, UART_Send_String
        LOCFRAME ISTACK, 0, STACK
        LOCFRAME PSTACK, 0, STACK
        LOCFRAME XSTACK, 86, STACK
        LOCFRAME IOVERLAY, 0, STATIC
        LOCFRAME DOVERLAY, 0, STATIC
        ARGFRAME ISTACK, 0, STACK
        ARGFRAME PSTACK, 0, STACK
        ARGFRAME XSTACK, 86, STACK
        ARGFRAME IOVERLAY, 0, STATIC
        ARGFRAME DOVERLAY, 0, STATIC
        FUNCALL Serial_callBack, NLME_GetExtAddr
        LOCFRAME ISTACK, 0, STACK
        LOCFRAME PSTACK, 0, STACK
        LOCFRAME XSTACK, 86, STACK
        LOCFRAME IOVERLAY, 0, STATIC
        LOCFRAME DOVERLAY, 0, STATIC
        ARGFRAME ISTACK, 0, STACK
        ARGFRAME PSTACK, 0, STACK
        ARGFRAME XSTACK, 86, STACK
        ARGFRAME IOVERLAY, 0, STATIC
        ARGFRAME DOVERLAY, 0, STATIC
        FUNCALL Serial_callBack, UART_Send_String
        LOCFRAME ISTACK, 0, STACK
        LOCFRAME PSTACK, 0, STACK
        LOCFRAME XSTACK, 86, STACK
        LOCFRAME IOVERLAY, 0, STATIC
        LOCFRAME DOVERLAY, 0, STATIC
        ARGFRAME ISTACK, 0, STACK
        ARGFRAME PSTACK, 0, STACK
        ARGFRAME XSTACK, 86, STACK
        ARGFRAME IOVERLAY, 0, STATIC
        ARGFRAME DOVERLAY, 0, STATIC
        FUNCALL Serial_callBack, osal_nv_item_init
        LOCFRAME ISTACK, 0, STACK
        LOCFRAME PSTACK, 0, STACK
        LOCFRAME XSTACK, 88, STACK
        LOCFRAME IOVERLAY, 0, STATIC
        LOCFRAME DOVERLAY, 0, STATIC
        ARGFRAME ISTACK, 0, STACK
        ARGFRAME PSTACK, 0, STACK
        ARGFRAME XSTACK, 88, STACK
        ARGFRAME IOVERLAY, 0, STATIC
        ARGFRAME DOVERLAY, 0, STATIC
        FUNCALL Serial_callBack, osal_nv_write
        LOCFRAME ISTACK, 0, STACK
        LOCFRAME PSTACK, 0, STACK
        LOCFRAME XSTACK, 90, STACK
        LOCFRAME IOVERLAY, 0, STATIC
        LOCFRAME DOVERLAY, 0, STATIC
        ARGFRAME ISTACK, 0, STACK
        ARGFRAME PSTACK, 0, STACK
        ARGFRAME XSTACK, 90, STACK
        ARGFRAME IOVERLAY, 0, STATIC
        ARGFRAME DOVERLAY, 0, STATIC
        FUNCALL Serial_callBack, uprint
        LOCFRAME ISTACK, 0, STACK
        LOCFRAME PSTACK, 0, STACK
        LOCFRAME XSTACK, 86, STACK
        LOCFRAME IOVERLAY, 0, STATIC
        LOCFRAME DOVERLAY, 0, STATIC
        ARGFRAME ISTACK, 0, STACK
        ARGFRAME PSTACK, 0, STACK
        ARGFRAME XSTACK, 86, STACK
        ARGFRAME IOVERLAY, 0, STATIC
        ARGFRAME DOVERLAY, 0, STATIC
        FUNCALL Serial_callBack, zgWriteStartupOptions
        LOCFRAME ISTACK, 0, STACK
        LOCFRAME PSTACK, 0, STACK
        LOCFRAME XSTACK, 86, STACK
        LOCFRAME IOVERLAY, 0, STATIC
        LOCFRAME DOVERLAY, 0, STATIC
        ARGFRAME ISTACK, 0, STACK
        ARGFRAME PSTACK, 0, STACK
        ARGFRAME XSTACK, 86, STACK
        ARGFRAME IOVERLAY, 0, STATIC
        ARGFRAME DOVERLAY, 0, STATIC
        FUNCALL Serial_callBack, uprint
        LOCFRAME ISTACK, 0, STACK
        LOCFRAME PSTACK, 0, STACK
        LOCFRAME XSTACK, 86, STACK
        LOCFRAME IOVERLAY, 0, STATIC
        LOCFRAME DOVERLAY, 0, STATIC
        ARGFRAME ISTACK, 0, STACK
        ARGFRAME PSTACK, 0, STACK
        ARGFRAME XSTACK, 86, STACK
        ARGFRAME IOVERLAY, 0, STATIC
        ARGFRAME DOVERLAY, 0, STATIC
        FUNCALL Serial_callBack, osal_nv_item_init
        LOCFRAME ISTACK, 0, STACK
        LOCFRAME PSTACK, 0, STACK
        LOCFRAME XSTACK, 88, STACK
        LOCFRAME IOVERLAY, 0, STATIC
        LOCFRAME DOVERLAY, 0, STATIC
        ARGFRAME ISTACK, 0, STACK
        ARGFRAME PSTACK, 0, STACK
        ARGFRAME XSTACK, 88, STACK
        ARGFRAME IOVERLAY, 0, STATIC
        ARGFRAME DOVERLAY, 0, STATIC
        FUNCALL Serial_callBack, osal_nv_write
        LOCFRAME ISTACK, 0, STACK
        LOCFRAME PSTACK, 0, STACK
        LOCFRAME XSTACK, 90, STACK
        LOCFRAME IOVERLAY, 0, STATIC
        LOCFRAME DOVERLAY, 0, STATIC
        ARGFRAME ISTACK, 0, STACK
        ARGFRAME PSTACK, 0, STACK
        ARGFRAME XSTACK, 90, STACK
        ARGFRAME IOVERLAY, 0, STATIC
        ARGFRAME DOVERLAY, 0, STATIC
        FUNCALL Serial_callBack, uprint
        LOCFRAME ISTACK, 0, STACK
        LOCFRAME PSTACK, 0, STACK
        LOCFRAME XSTACK, 86, STACK
        LOCFRAME IOVERLAY, 0, STATIC
        LOCFRAME DOVERLAY, 0, STATIC
        ARGFRAME ISTACK, 0, STACK
        ARGFRAME PSTACK, 0, STACK
        ARGFRAME XSTACK, 86, STACK
        ARGFRAME IOVERLAY, 0, STATIC
        ARGFRAME DOVERLAY, 0, STATIC
        FUNCALL Serial_callBack, zgWriteStartupOptions
        LOCFRAME ISTACK, 0, STACK
        LOCFRAME PSTACK, 0, STACK
        LOCFRAME XSTACK, 86, STACK
        LOCFRAME IOVERLAY, 0, STATIC
        LOCFRAME DOVERLAY, 0, STATIC
        ARGFRAME ISTACK, 0, STACK
        ARGFRAME PSTACK, 0, STACK
        ARGFRAME XSTACK, 86, STACK
        ARGFRAME IOVERLAY, 0, STATIC
        ARGFRAME DOVERLAY, 0, STATIC
        FUNCALL Serial_callBack, uprint
        LOCFRAME ISTACK, 0, STACK
        LOCFRAME PSTACK, 0, STACK
        LOCFRAME XSTACK, 86, STACK
        LOCFRAME IOVERLAY, 0, STATIC
        LOCFRAME DOVERLAY, 0, STATIC
        ARGFRAME ISTACK, 0, STACK
        ARGFRAME PSTACK, 0, STACK
        ARGFRAME XSTACK, 86, STACK
        ARGFRAME IOVERLAY, 0, STATIC
        ARGFRAME DOVERLAY, 0, STATIC
        FUNCALL Serial_callBack, osal_nv_item_init
        LOCFRAME ISTACK, 0, STACK
        LOCFRAME PSTACK, 0, STACK
        LOCFRAME XSTACK, 88, STACK
        LOCFRAME IOVERLAY, 0, STATIC
        LOCFRAME DOVERLAY, 0, STATIC
        ARGFRAME ISTACK, 0, STACK
        ARGFRAME PSTACK, 0, STACK
        ARGFRAME XSTACK, 88, STACK
        ARGFRAME IOVERLAY, 0, STATIC
        ARGFRAME DOVERLAY, 0, STATIC
        FUNCALL Serial_callBack, osal_nv_write
        LOCFRAME ISTACK, 0, STACK
        LOCFRAME PSTACK, 0, STACK
        LOCFRAME XSTACK, 90, STACK
        LOCFRAME IOVERLAY, 0, STATIC
        LOCFRAME DOVERLAY, 0, STATIC
        ARGFRAME ISTACK, 0, STACK
        ARGFRAME PSTACK, 0, STACK
        ARGFRAME XSTACK, 90, STACK
        ARGFRAME IOVERLAY, 0, STATIC
        ARGFRAME DOVERLAY, 0, STATIC
        FUNCALL Serial_callBack, uprint
        LOCFRAME ISTACK, 0, STACK
        LOCFRAME PSTACK, 0, STACK
        LOCFRAME XSTACK, 86, STACK
        LOCFRAME IOVERLAY, 0, STATIC
        LOCFRAME DOVERLAY, 0, STATIC
        ARGFRAME ISTACK, 0, STACK
        ARGFRAME PSTACK, 0, STACK
        ARGFRAME XSTACK, 86, STACK
        ARGFRAME IOVERLAY, 0, STATIC
        ARGFRAME DOVERLAY, 0, STATIC
        FUNCALL Serial_callBack, zgWriteStartupOptions
        LOCFRAME ISTACK, 0, STACK
        LOCFRAME PSTACK, 0, STACK
        LOCFRAME XSTACK, 86, STACK
        LOCFRAME IOVERLAY, 0, STATIC
        LOCFRAME DOVERLAY, 0, STATIC
        ARGFRAME ISTACK, 0, STACK
        ARGFRAME PSTACK, 0, STACK
        ARGFRAME XSTACK, 86, STACK
        ARGFRAME IOVERLAY, 0, STATIC
        ARGFRAME DOVERLAY, 0, STATIC
        FUNCALL Serial_callBack, uprint
        LOCFRAME ISTACK, 0, STACK
        LOCFRAME PSTACK, 0, STACK
        LOCFRAME XSTACK, 86, STACK
        LOCFRAME IOVERLAY, 0, STATIC
        LOCFRAME DOVERLAY, 0, STATIC
        ARGFRAME ISTACK, 0, STACK
        ARGFRAME PSTACK, 0, STACK
        ARGFRAME XSTACK, 86, STACK
        ARGFRAME IOVERLAY, 0, STATIC
        ARGFRAME DOVERLAY, 0, STATIC
        FUNCALL Serial_callBack, AssocCount
        LOCFRAME ISTACK, 0, STACK
        LOCFRAME PSTACK, 0, STACK
        LOCFRAME XSTACK, 86, STACK
        LOCFRAME IOVERLAY, 0, STATIC
        LOCFRAME DOVERLAY, 0, STATIC
        ARGFRAME ISTACK, 0, STACK
        ARGFRAME PSTACK, 0, STACK
        ARGFRAME XSTACK, 86, STACK
        ARGFRAME IOVERLAY, 0, STATIC
        ARGFRAME DOVERLAY, 0, STATIC
        FUNCALL Serial_callBack, UART_Send_String
        LOCFRAME ISTACK, 0, STACK
        LOCFRAME PSTACK, 0, STACK
        LOCFRAME XSTACK, 86, STACK
        LOCFRAME IOVERLAY, 0, STATIC
        LOCFRAME DOVERLAY, 0, STATIC
        ARGFRAME ISTACK, 0, STACK
        ARGFRAME PSTACK, 0, STACK
        ARGFRAME XSTACK, 86, STACK
        ARGFRAME IOVERLAY, 0, STATIC
        ARGFRAME DOVERLAY, 0, STATIC
        FUNCALL Serial_callBack, strncpy
        LOCFRAME ISTACK, 0, STACK
        LOCFRAME PSTACK, 0, STACK
        LOCFRAME XSTACK, 88, STACK
        LOCFRAME IOVERLAY, 0, STATIC
        LOCFRAME DOVERLAY, 0, STATIC
        ARGFRAME ISTACK, 0, STACK
        ARGFRAME PSTACK, 0, STACK
        ARGFRAME XSTACK, 88, STACK
        ARGFRAME IOVERLAY, 0, STATIC
        ARGFRAME DOVERLAY, 0, STATIC
        FUNCALL Serial_callBack, strncpy
        LOCFRAME ISTACK, 0, STACK
        LOCFRAME PSTACK, 0, STACK
        LOCFRAME XSTACK, 88, STACK
        LOCFRAME IOVERLAY, 0, STATIC
        LOCFRAME DOVERLAY, 0, STATIC
        ARGFRAME ISTACK, 0, STACK
        ARGFRAME PSTACK, 0, STACK
        ARGFRAME XSTACK, 88, STACK
        ARGFRAME IOVERLAY, 0, STATIC
        ARGFRAME DOVERLAY, 0, STATIC
        FUNCALL Serial_callBack, strtol
        LOCFRAME ISTACK, 0, STACK
        LOCFRAME PSTACK, 0, STACK
        LOCFRAME XSTACK, 88, STACK
        LOCFRAME IOVERLAY, 0, STATIC
        LOCFRAME DOVERLAY, 0, STATIC
        ARGFRAME ISTACK, 0, STACK
        ARGFRAME PSTACK, 0, STACK
        ARGFRAME XSTACK, 88, STACK
        ARGFRAME IOVERLAY, 0, STATIC
        ARGFRAME DOVERLAY, 0, STATIC
        FUNCALL Serial_callBack, strtol
        LOCFRAME ISTACK, 0, STACK
        LOCFRAME PSTACK, 0, STACK
        LOCFRAME XSTACK, 88, STACK
        LOCFRAME IOVERLAY, 0, STATIC
        LOCFRAME DOVERLAY, 0, STATIC
        ARGFRAME ISTACK, 0, STACK
        ARGFRAME PSTACK, 0, STACK
        ARGFRAME XSTACK, 88, STACK
        ARGFRAME IOVERLAY, 0, STATIC
        ARGFRAME DOVERLAY, 0, STATIC
        FUNCALL Serial_callBack, set_panid
        LOCFRAME ISTACK, 0, STACK
        LOCFRAME PSTACK, 0, STACK
        LOCFRAME XSTACK, 86, STACK
        LOCFRAME IOVERLAY, 0, STATIC
        LOCFRAME DOVERLAY, 0, STATIC
        ARGFRAME ISTACK, 0, STACK
        ARGFRAME PSTACK, 0, STACK
        ARGFRAME XSTACK, 86, STACK
        ARGFRAME IOVERLAY, 0, STATIC
        ARGFRAME DOVERLAY, 0, STATIC
        FUNCALL Serial_callBack, zgWriteStartupOptions
        LOCFRAME ISTACK, 0, STACK
        LOCFRAME PSTACK, 0, STACK
        LOCFRAME XSTACK, 86, STACK
        LOCFRAME IOVERLAY, 0, STATIC
        LOCFRAME DOVERLAY, 0, STATIC
        ARGFRAME ISTACK, 0, STACK
        ARGFRAME PSTACK, 0, STACK
        ARGFRAME XSTACK, 86, STACK
        ARGFRAME IOVERLAY, 0, STATIC
        ARGFRAME DOVERLAY, 0, STATIC
        FUNCALL Serial_callBack, strncpy
        LOCFRAME ISTACK, 0, STACK
        LOCFRAME PSTACK, 0, STACK
        LOCFRAME XSTACK, 88, STACK
        LOCFRAME IOVERLAY, 0, STATIC
        LOCFRAME DOVERLAY, 0, STATIC
        ARGFRAME ISTACK, 0, STACK
        ARGFRAME PSTACK, 0, STACK
        ARGFRAME XSTACK, 88, STACK
        ARGFRAME IOVERLAY, 0, STATIC
        ARGFRAME DOVERLAY, 0, STATIC
        FUNCALL Serial_callBack, strncpy
        LOCFRAME ISTACK, 0, STACK
        LOCFRAME PSTACK, 0, STACK
        LOCFRAME XSTACK, 88, STACK
        LOCFRAME IOVERLAY, 0, STATIC
        LOCFRAME DOVERLAY, 0, STATIC
        ARGFRAME ISTACK, 0, STACK
        ARGFRAME PSTACK, 0, STACK
        ARGFRAME XSTACK, 88, STACK
        ARGFRAME IOVERLAY, 0, STATIC
        ARGFRAME DOVERLAY, 0, STATIC
        FUNCALL Serial_callBack, strtol
        LOCFRAME ISTACK, 0, STACK
        LOCFRAME PSTACK, 0, STACK
        LOCFRAME XSTACK, 88, STACK
        LOCFRAME IOVERLAY, 0, STATIC
        LOCFRAME DOVERLAY, 0, STATIC
        ARGFRAME ISTACK, 0, STACK
        ARGFRAME PSTACK, 0, STACK
        ARGFRAME XSTACK, 88, STACK
        ARGFRAME IOVERLAY, 0, STATIC
        ARGFRAME DOVERLAY, 0, STATIC
        FUNCALL Serial_callBack, strtol
        LOCFRAME ISTACK, 0, STACK
        LOCFRAME PSTACK, 0, STACK
        LOCFRAME XSTACK, 88, STACK
        LOCFRAME IOVERLAY, 0, STATIC
        LOCFRAME DOVERLAY, 0, STATIC
        ARGFRAME ISTACK, 0, STACK
        ARGFRAME PSTACK, 0, STACK
        ARGFRAME XSTACK, 88, STACK
        ARGFRAME IOVERLAY, 0, STATIC
        ARGFRAME DOVERLAY, 0, STATIC
        FUNCALL Serial_callBack, NLME_UpdateNV
        LOCFRAME ISTACK, 0, STACK
        LOCFRAME PSTACK, 0, STACK
        LOCFRAME XSTACK, 86, STACK
        LOCFRAME IOVERLAY, 0, STATIC
        LOCFRAME DOVERLAY, 0, STATIC
        ARGFRAME ISTACK, 0, STACK
        ARGFRAME PSTACK, 0, STACK
        ARGFRAME XSTACK, 86, STACK
        ARGFRAME IOVERLAY, 0, STATIC
        ARGFRAME DOVERLAY, 0, STATIC
        FUNCALL Serial_callBack, strstr
        LOCFRAME ISTACK, 0, STACK
        LOCFRAME PSTACK, 0, STACK
        LOCFRAME XSTACK, 86, STACK
        LOCFRAME IOVERLAY, 0, STATIC
        LOCFRAME DOVERLAY, 0, STATIC
        ARGFRAME ISTACK, 0, STACK
        ARGFRAME PSTACK, 0, STACK
        ARGFRAME XSTACK, 86, STACK
        ARGFRAME IOVERLAY, 0, STATIC
        ARGFRAME DOVERLAY, 0, STATIC
        FUNCALL Serial_callBack, osal_nv_read
        LOCFRAME ISTACK, 0, STACK
        LOCFRAME PSTACK, 0, STACK
        LOCFRAME XSTACK, 90, STACK
        LOCFRAME IOVERLAY, 0, STATIC
        LOCFRAME DOVERLAY, 0, STATIC
        ARGFRAME ISTACK, 0, STACK
        ARGFRAME PSTACK, 0, STACK
        ARGFRAME XSTACK, 90, STACK
        ARGFRAME IOVERLAY, 0, STATIC
        ARGFRAME DOVERLAY, 0, STATIC
        FUNCALL Serial_callBack, UART_Send_String
        LOCFRAME ISTACK, 0, STACK
        LOCFRAME PSTACK, 0, STACK
        LOCFRAME XSTACK, 86, STACK
        LOCFRAME IOVERLAY, 0, STATIC
        LOCFRAME DOVERLAY, 0, STATIC
        ARGFRAME ISTACK, 0, STACK
        ARGFRAME PSTACK, 0, STACK
        ARGFRAME XSTACK, 86, STACK
        ARGFRAME IOVERLAY, 0, STATIC
        ARGFRAME DOVERLAY, 0, STATIC
        FUNCALL Serial_callBack, uprint
        LOCFRAME ISTACK, 0, STACK
        LOCFRAME PSTACK, 0, STACK
        LOCFRAME XSTACK, 86, STACK
        LOCFRAME IOVERLAY, 0, STATIC
        LOCFRAME DOVERLAY, 0, STATIC
        ARGFRAME ISTACK, 0, STACK
        ARGFRAME PSTACK, 0, STACK
        ARGFRAME XSTACK, 86, STACK
        ARGFRAME IOVERLAY, 0, STATIC
        ARGFRAME DOVERLAY, 0, STATIC
        FUNCALL Serial_callBack, strstr
        LOCFRAME ISTACK, 0, STACK
        LOCFRAME PSTACK, 0, STACK
        LOCFRAME XSTACK, 86, STACK
        LOCFRAME IOVERLAY, 0, STATIC
        LOCFRAME DOVERLAY, 0, STATIC
        ARGFRAME ISTACK, 0, STACK
        ARGFRAME PSTACK, 0, STACK
        ARGFRAME XSTACK, 86, STACK
        ARGFRAME IOVERLAY, 0, STATIC
        ARGFRAME DOVERLAY, 0, STATIC
        FUNCALL Serial_callBack, SSP_UpdateNwkKey
        LOCFRAME ISTACK, 0, STACK
        LOCFRAME PSTACK, 0, STACK
        LOCFRAME XSTACK, 86, STACK
        LOCFRAME IOVERLAY, 0, STATIC
        LOCFRAME DOVERLAY, 0, STATIC
        ARGFRAME ISTACK, 0, STACK
        ARGFRAME PSTACK, 0, STACK
        ARGFRAME XSTACK, 86, STACK
        ARGFRAME IOVERLAY, 0, STATIC
        ARGFRAME DOVERLAY, 0, STATIC
        FUNCALL Serial_callBack, SSP_SwitchNwkKey
        LOCFRAME ISTACK, 0, STACK
        LOCFRAME PSTACK, 0, STACK
        LOCFRAME XSTACK, 86, STACK
        LOCFRAME IOVERLAY, 0, STATIC
        LOCFRAME DOVERLAY, 0, STATIC
        ARGFRAME ISTACK, 0, STACK
        ARGFRAME PSTACK, 0, STACK
        ARGFRAME XSTACK, 86, STACK
        ARGFRAME IOVERLAY, 0, STATIC
        ARGFRAME DOVERLAY, 0, STATIC
        FUNCALL Serial_callBack, ZDApp_NVUpdate
        LOCFRAME ISTACK, 0, STACK
        LOCFRAME PSTACK, 0, STACK
        LOCFRAME XSTACK, 86, STACK
        LOCFRAME IOVERLAY, 0, STATIC
        LOCFRAME DOVERLAY, 0, STATIC
        ARGFRAME ISTACK, 0, STACK
        ARGFRAME PSTACK, 0, STACK
        ARGFRAME XSTACK, 86, STACK
        ARGFRAME IOVERLAY, 0, STATIC
        ARGFRAME DOVERLAY, 0, STATIC
        FUNCALL Serial_callBack, uprint
        LOCFRAME ISTACK, 0, STACK
        LOCFRAME PSTACK, 0, STACK
        LOCFRAME XSTACK, 86, STACK
        LOCFRAME IOVERLAY, 0, STATIC
        LOCFRAME DOVERLAY, 0, STATIC
        ARGFRAME ISTACK, 0, STACK
        ARGFRAME PSTACK, 0, STACK
        ARGFRAME XSTACK, 86, STACK
        ARGFRAME IOVERLAY, 0, STATIC
        ARGFRAME DOVERLAY, 0, STATIC
        FUNCALL Serial_callBack, uprint
        LOCFRAME ISTACK, 0, STACK
        LOCFRAME PSTACK, 0, STACK
        LOCFRAME XSTACK, 86, STACK
        LOCFRAME IOVERLAY, 0, STATIC
        LOCFRAME DOVERLAY, 0, STATIC
        ARGFRAME ISTACK, 0, STACK
        ARGFRAME PSTACK, 0, STACK
        ARGFRAME XSTACK, 86, STACK
        ARGFRAME IOVERLAY, 0, STATIC
        ARGFRAME DOVERLAY, 0, STATIC
        FUNCALL Serial_callBack, HalLedSet
        LOCFRAME ISTACK, 0, STACK
        LOCFRAME PSTACK, 0, STACK
        LOCFRAME XSTACK, 86, STACK
        LOCFRAME IOVERLAY, 0, STATIC
        LOCFRAME DOVERLAY, 0, STATIC
        ARGFRAME ISTACK, 0, STACK
        ARGFRAME PSTACK, 0, STACK
        ARGFRAME XSTACK, 86, STACK
        ARGFRAME IOVERLAY, 0, STATIC
        ARGFRAME DOVERLAY, 0, STATIC
        FUNCALL Serial_callBack, NLME_GetShortAddr
        LOCFRAME ISTACK, 0, STACK
        LOCFRAME PSTACK, 0, STACK
        LOCFRAME XSTACK, 86, STACK
        LOCFRAME IOVERLAY, 0, STATIC
        LOCFRAME DOVERLAY, 0, STATIC
        ARGFRAME ISTACK, 0, STACK
        ARGFRAME PSTACK, 0, STACK
        ARGFRAME XSTACK, 86, STACK
        ARGFRAME IOVERLAY, 0, STATIC
        ARGFRAME DOVERLAY, 0, STATIC
        FUNCALL Serial_callBack, ZDP_EndDeviceBindReq
        LOCFRAME ISTACK, 0, STACK
        LOCFRAME PSTACK, 0, STACK
        LOCFRAME XSTACK, 95, STACK
        LOCFRAME IOVERLAY, 0, STATIC
        LOCFRAME DOVERLAY, 0, STATIC
        ARGFRAME ISTACK, 0, STACK
        ARGFRAME PSTACK, 0, STACK
        ARGFRAME XSTACK, 95, STACK
        ARGFRAME IOVERLAY, 0, STATIC
        ARGFRAME DOVERLAY, 0, STATIC
        FUNCALL Serial_callBack, uprint
        LOCFRAME ISTACK, 0, STACK
        LOCFRAME PSTACK, 0, STACK
        LOCFRAME XSTACK, 86, STACK
        LOCFRAME IOVERLAY, 0, STATIC
        LOCFRAME DOVERLAY, 0, STATIC
        ARGFRAME ISTACK, 0, STACK
        ARGFRAME PSTACK, 0, STACK
        ARGFRAME XSTACK, 86, STACK
        ARGFRAME IOVERLAY, 0, STATIC
        ARGFRAME DOVERLAY, 0, STATIC
        FUNCALL Serial_callBack, ZDP_MatchDescReq
        LOCFRAME ISTACK, 0, STACK
        LOCFRAME PSTACK, 0, STACK
        LOCFRAME XSTACK, 94, STACK
        LOCFRAME IOVERLAY, 0, STATIC
        LOCFRAME DOVERLAY, 0, STATIC
        ARGFRAME ISTACK, 0, STACK
        ARGFRAME PSTACK, 0, STACK
        ARGFRAME XSTACK, 94, STACK
        ARGFRAME IOVERLAY, 0, STATIC
        ARGFRAME DOVERLAY, 0, STATIC
        FUNCALL Serial_callBack, NLME_UpdateNV
        LOCFRAME ISTACK, 0, STACK
        LOCFRAME PSTACK, 0, STACK
        LOCFRAME XSTACK, 86, STACK
        LOCFRAME IOVERLAY, 0, STATIC
        LOCFRAME DOVERLAY, 0, STATIC
        ARGFRAME ISTACK, 0, STACK
        ARGFRAME PSTACK, 0, STACK
        ARGFRAME XSTACK, 86, STACK
        ARGFRAME IOVERLAY, 0, STATIC
        ARGFRAME DOVERLAY, 0, STATIC
        FUNCALL Serial_callBack, ZMacSetReq
        LOCFRAME ISTACK, 0, STACK
        LOCFRAME PSTACK, 0, STACK
        LOCFRAME XSTACK, 86, STACK
        LOCFRAME IOVERLAY, 0, STATIC
        LOCFRAME DOVERLAY, 0, STATIC
        ARGFRAME ISTACK, 0, STACK
        ARGFRAME PSTACK, 0, STACK
        ARGFRAME XSTACK, 86, STACK
        ARGFRAME IOVERLAY, 0, STATIC
        ARGFRAME DOVERLAY, 0, STATIC
        FUNCALL Serial_callBack, osal_nv_item_init
        LOCFRAME ISTACK, 0, STACK
        LOCFRAME PSTACK, 0, STACK
        LOCFRAME XSTACK, 88, STACK
        LOCFRAME IOVERLAY, 0, STATIC
        LOCFRAME DOVERLAY, 0, STATIC
        ARGFRAME ISTACK, 0, STACK
        ARGFRAME PSTACK, 0, STACK
        ARGFRAME XSTACK, 88, STACK
        ARGFRAME IOVERLAY, 0, STATIC
        ARGFRAME DOVERLAY, 0, STATIC
        FUNCALL Serial_callBack, osal_nv_write
        LOCFRAME ISTACK, 0, STACK
        LOCFRAME PSTACK, 0, STACK
        LOCFRAME XSTACK, 90, STACK
        LOCFRAME IOVERLAY, 0, STATIC
        LOCFRAME DOVERLAY, 0, STATIC
        ARGFRAME ISTACK, 0, STACK
        ARGFRAME PSTACK, 0, STACK
        ARGFRAME XSTACK, 90, STACK
        ARGFRAME IOVERLAY, 0, STATIC
        ARGFRAME DOVERLAY, 0, STATIC
        FUNCALL Serial_callBack, UART_Send_String
        LOCFRAME ISTACK, 0, STACK
        LOCFRAME PSTACK, 0, STACK
        LOCFRAME XSTACK, 86, STACK
        LOCFRAME IOVERLAY, 0, STATIC
        LOCFRAME DOVERLAY, 0, STATIC
        ARGFRAME ISTACK, 0, STACK
        ARGFRAME PSTACK, 0, STACK
        ARGFRAME XSTACK, 86, STACK
        ARGFRAME IOVERLAY, 0, STATIC
        ARGFRAME DOVERLAY, 0, STATIC
        FUNCALL Serial_callBack, SendData
        LOCFRAME ISTACK, 0, STACK
        LOCFRAME PSTACK, 0, STACK
        LOCFRAME XSTACK, 86, STACK
        LOCFRAME IOVERLAY, 0, STATIC
        LOCFRAME DOVERLAY, 0, STATIC
        ARGFRAME ISTACK, 0, STACK
        ARGFRAME PSTACK, 0, STACK
        ARGFRAME XSTACK, 86, STACK
        ARGFRAME IOVERLAY, 0, STATIC
        ARGFRAME DOVERLAY, 0, STATIC
        FUNCALL Serial_callBack, SendData
        LOCFRAME ISTACK, 0, STACK
        LOCFRAME PSTACK, 0, STACK
        LOCFRAME XSTACK, 86, STACK
        LOCFRAME IOVERLAY, 0, STATIC
        LOCFRAME DOVERLAY, 0, STATIC
        ARGFRAME ISTACK, 0, STACK
        ARGFRAME PSTACK, 0, STACK
        ARGFRAME XSTACK, 86, STACK
        ARGFRAME IOVERLAY, 0, STATIC
        ARGFRAME DOVERLAY, 0, STATIC
        FUNCALL Serial_callBack, SendData
        LOCFRAME ISTACK, 0, STACK
        LOCFRAME PSTACK, 0, STACK
        LOCFRAME XSTACK, 86, STACK
        LOCFRAME IOVERLAY, 0, STATIC
        LOCFRAME DOVERLAY, 0, STATIC
        ARGFRAME ISTACK, 0, STACK
        ARGFRAME PSTACK, 0, STACK
        ARGFRAME XSTACK, 86, STACK
        ARGFRAME IOVERLAY, 0, STATIC
        ARGFRAME DOVERLAY, 0, STATIC
        FUNCALL Serial_callBack, HalAdcRead
        LOCFRAME ISTACK, 0, STACK
        LOCFRAME PSTACK, 0, STACK
        LOCFRAME XSTACK, 86, STACK
        LOCFRAME IOVERLAY, 0, STATIC
        LOCFRAME DOVERLAY, 0, STATIC
        ARGFRAME ISTACK, 0, STACK
        ARGFRAME PSTACK, 0, STACK
        ARGFRAME XSTACK, 86, STACK
        ARGFRAME IOVERLAY, 0, STATIC
        ARGFRAME DOVERLAY, 0, STATIC
        FUNCALL Serial_callBack, UART_Send_String
        LOCFRAME ISTACK, 0, STACK
        LOCFRAME PSTACK, 0, STACK
        LOCFRAME XSTACK, 86, STACK
        LOCFRAME IOVERLAY, 0, STATIC
        LOCFRAME DOVERLAY, 0, STATIC
        ARGFRAME ISTACK, 0, STACK
        ARGFRAME PSTACK, 0, STACK
        ARGFRAME XSTACK, 86, STACK
        ARGFRAME IOVERLAY, 0, STATIC
        ARGFRAME DOVERLAY, 0, STATIC
        FUNCALL Serial_callBack, HalAdcRead
        LOCFRAME ISTACK, 0, STACK
        LOCFRAME PSTACK, 0, STACK
        LOCFRAME XSTACK, 86, STACK
        LOCFRAME IOVERLAY, 0, STATIC
        LOCFRAME DOVERLAY, 0, STATIC
        ARGFRAME ISTACK, 0, STACK
        ARGFRAME PSTACK, 0, STACK
        ARGFRAME XSTACK, 86, STACK
        ARGFRAME IOVERLAY, 0, STATIC
        ARGFRAME DOVERLAY, 0, STATIC
        FUNCALL Serial_callBack, UART_Send_String
        LOCFRAME ISTACK, 0, STACK
        LOCFRAME PSTACK, 0, STACK
        LOCFRAME XSTACK, 86, STACK
        LOCFRAME IOVERLAY, 0, STATIC
        LOCFRAME DOVERLAY, 0, STATIC
        ARGFRAME ISTACK, 0, STACK
        ARGFRAME PSTACK, 0, STACK
        ARGFRAME XSTACK, 86, STACK
        ARGFRAME IOVERLAY, 0, STATIC
        ARGFRAME DOVERLAY, 0, STATIC
        FUNCALL Serial_callBack, HalAdcRead
        LOCFRAME ISTACK, 0, STACK
        LOCFRAME PSTACK, 0, STACK
        LOCFRAME XSTACK, 86, STACK
        LOCFRAME IOVERLAY, 0, STATIC
        LOCFRAME DOVERLAY, 0, STATIC
        ARGFRAME ISTACK, 0, STACK
        ARGFRAME PSTACK, 0, STACK
        ARGFRAME XSTACK, 86, STACK
        ARGFRAME IOVERLAY, 0, STATIC
        ARGFRAME DOVERLAY, 0, STATIC
        FUNCALL Serial_callBack, UART_Send_String
        LOCFRAME ISTACK, 0, STACK
        LOCFRAME PSTACK, 0, STACK
        LOCFRAME XSTACK, 86, STACK
        LOCFRAME IOVERLAY, 0, STATIC
        LOCFRAME DOVERLAY, 0, STATIC
        ARGFRAME ISTACK, 0, STACK
        ARGFRAME PSTACK, 0, STACK
        ARGFRAME XSTACK, 86, STACK
        ARGFRAME IOVERLAY, 0, STATIC
        ARGFRAME DOVERLAY, 0, STATIC
        FUNCALL Serial_callBack, HalAdcRead
        LOCFRAME ISTACK, 0, STACK
        LOCFRAME PSTACK, 0, STACK
        LOCFRAME XSTACK, 86, STACK
        LOCFRAME IOVERLAY, 0, STATIC
        LOCFRAME DOVERLAY, 0, STATIC
        ARGFRAME ISTACK, 0, STACK
        ARGFRAME PSTACK, 0, STACK
        ARGFRAME XSTACK, 86, STACK
        ARGFRAME IOVERLAY, 0, STATIC
        ARGFRAME DOVERLAY, 0, STATIC
        FUNCALL Serial_callBack, UART_Send_String
        LOCFRAME ISTACK, 0, STACK
        LOCFRAME PSTACK, 0, STACK
        LOCFRAME XSTACK, 86, STACK
        LOCFRAME IOVERLAY, 0, STATIC
        LOCFRAME DOVERLAY, 0, STATIC
        ARGFRAME ISTACK, 0, STACK
        ARGFRAME PSTACK, 0, STACK
        ARGFRAME XSTACK, 86, STACK
        ARGFRAME IOVERLAY, 0, STATIC
        ARGFRAME DOVERLAY, 0, STATIC
        FUNCALL Serial_callBack, HalAdcRead
        LOCFRAME ISTACK, 0, STACK
        LOCFRAME PSTACK, 0, STACK
        LOCFRAME XSTACK, 86, STACK
        LOCFRAME IOVERLAY, 0, STATIC
        LOCFRAME DOVERLAY, 0, STATIC
        ARGFRAME ISTACK, 0, STACK
        ARGFRAME PSTACK, 0, STACK
        ARGFRAME XSTACK, 86, STACK
        ARGFRAME IOVERLAY, 0, STATIC
        ARGFRAME DOVERLAY, 0, STATIC
        FUNCALL Serial_callBack, UART_Send_String
        LOCFRAME ISTACK, 0, STACK
        LOCFRAME PSTACK, 0, STACK
        LOCFRAME XSTACK, 86, STACK
        LOCFRAME IOVERLAY, 0, STATIC
        LOCFRAME DOVERLAY, 0, STATIC
        ARGFRAME ISTACK, 0, STACK
        ARGFRAME PSTACK, 0, STACK
        ARGFRAME XSTACK, 86, STACK
        ARGFRAME IOVERLAY, 0, STATIC
        ARGFRAME DOVERLAY, 0, STATIC
        FUNCALL Serial_callBack, strstr
        LOCFRAME ISTACK, 0, STACK
        LOCFRAME PSTACK, 0, STACK
        LOCFRAME XSTACK, 86, STACK
        LOCFRAME IOVERLAY, 0, STATIC
        LOCFRAME DOVERLAY, 0, STATIC
        ARGFRAME ISTACK, 0, STACK
        ARGFRAME PSTACK, 0, STACK
        ARGFRAME XSTACK, 86, STACK
        ARGFRAME IOVERLAY, 0, STATIC
        ARGFRAME DOVERLAY, 0, STATIC
        FUNCALL Serial_callBack, uprint
        LOCFRAME ISTACK, 0, STACK
        LOCFRAME PSTACK, 0, STACK
        LOCFRAME XSTACK, 86, STACK
        LOCFRAME IOVERLAY, 0, STATIC
        LOCFRAME DOVERLAY, 0, STATIC
        ARGFRAME ISTACK, 0, STACK
        ARGFRAME PSTACK, 0, STACK
        ARGFRAME XSTACK, 86, STACK
        ARGFRAME IOVERLAY, 0, STATIC
        ARGFRAME DOVERLAY, 0, STATIC
        FUNCALL Serial_callBack, uprint
        LOCFRAME ISTACK, 0, STACK
        LOCFRAME PSTACK, 0, STACK
        LOCFRAME XSTACK, 86, STACK
        LOCFRAME IOVERLAY, 0, STATIC
        LOCFRAME DOVERLAY, 0, STATIC
        ARGFRAME ISTACK, 0, STACK
        ARGFRAME PSTACK, 0, STACK
        ARGFRAME XSTACK, 86, STACK
        ARGFRAME IOVERLAY, 0, STATIC
        ARGFRAME DOVERLAY, 0, STATIC
        FUNCALL Serial_callBack, uprint
        LOCFRAME ISTACK, 0, STACK
        LOCFRAME PSTACK, 0, STACK
        LOCFRAME XSTACK, 86, STACK
        LOCFRAME IOVERLAY, 0, STATIC
        LOCFRAME DOVERLAY, 0, STATIC
        ARGFRAME ISTACK, 0, STACK
        ARGFRAME PSTACK, 0, STACK
        ARGFRAME XSTACK, 86, STACK
        ARGFRAME IOVERLAY, 0, STATIC
        ARGFRAME DOVERLAY, 0, STATIC
        FUNCALL Serial_callBack, uprint
        LOCFRAME ISTACK, 0, STACK
        LOCFRAME PSTACK, 0, STACK
        LOCFRAME XSTACK, 86, STACK
        LOCFRAME IOVERLAY, 0, STATIC
        LOCFRAME DOVERLAY, 0, STATIC
        ARGFRAME ISTACK, 0, STACK
        ARGFRAME PSTACK, 0, STACK
        ARGFRAME XSTACK, 86, STACK
        ARGFRAME IOVERLAY, 0, STATIC
        ARGFRAME DOVERLAY, 0, STATIC
        FUNCALL Serial_callBack, uprint
        LOCFRAME ISTACK, 0, STACK
        LOCFRAME PSTACK, 0, STACK
        LOCFRAME XSTACK, 86, STACK
        LOCFRAME IOVERLAY, 0, STATIC
        LOCFRAME DOVERLAY, 0, STATIC
        ARGFRAME ISTACK, 0, STACK
        ARGFRAME PSTACK, 0, STACK
        ARGFRAME XSTACK, 86, STACK
        ARGFRAME IOVERLAY, 0, STATIC
        ARGFRAME DOVERLAY, 0, STATIC
        FUNCALL Serial_callBack, strstr
        LOCFRAME ISTACK, 0, STACK
        LOCFRAME PSTACK, 0, STACK
        LOCFRAME XSTACK, 86, STACK
        LOCFRAME IOVERLAY, 0, STATIC
        LOCFRAME DOVERLAY, 0, STATIC
        ARGFRAME ISTACK, 0, STACK
        ARGFRAME PSTACK, 0, STACK
        ARGFRAME XSTACK, 86, STACK
        ARGFRAME IOVERLAY, 0, STATIC
        ARGFRAME DOVERLAY, 0, STATIC
        MOV     A,#-0x10
        LCALL   ?BANKED_ENTER_XDATA
        CFI DPH0 load(1, XDATA, add(CFA_XSP16, literal(-1)))
        CFI DPL0 load(1, XDATA, add(CFA_XSP16, literal(-2)))
        CFI ?BRET_EXT load(1, XDATA, add(CFA_XSP16, literal(-3)))
        CFI ?RET_HIGH load(1, XDATA, add(CFA_XSP16, literal(-4)))
        CFI ?RET_LOW load(1, XDATA, add(CFA_XSP16, literal(-5)))
        CFI R7 load(1, XDATA, add(CFA_XSP16, literal(-6)))
        CFI V7 load(1, XDATA, add(CFA_XSP16, literal(-7)))
        CFI V6 load(1, XDATA, add(CFA_XSP16, literal(-8)))
        CFI V5 load(1, XDATA, add(CFA_XSP16, literal(-9)))
        CFI V4 load(1, XDATA, add(CFA_XSP16, literal(-10)))
        CFI V3 load(1, XDATA, add(CFA_XSP16, literal(-11)))
        CFI V2 load(1, XDATA, add(CFA_XSP16, literal(-12)))
        CFI V1 load(1, XDATA, add(CFA_XSP16, literal(-13)))
        CFI V0 load(1, XDATA, add(CFA_XSP16, literal(-14)))
        CFI VB load(1, XDATA, add(CFA_XSP16, literal(-15)))
        CFI R6 load(1, XDATA, add(CFA_XSP16, literal(-16)))
        CFI CFA_SP SP+0
        CFI CFA_XSP16 add(XSP16, 16)
        ; Saved register size: 16
        ; Auto size: 70
        MOV     A,#-0x46
        LCALL   ?ALLOC_XSTACK8
        CFI CFA_XSP16 add(XSP16, 86)
//  173   
//  174   zAddrType_t dstAddr;
//  175   afAddrType_t myaddr; // use for p2p
//  176   
//  177   uint8 buff[32];
//  178   uint8 readBytes = 0;
//  179   
//  180 //  uint16 short_ddr;
//  181 
//  182   char pbuf[3];
//  183   char pbuf1[3];
//  184   
//  185 //  uint16 panid;
//  186 //  uint8 *ieeeAddr;
//  187   
//  188   uint8 yy1;
//  189   uint8 yy2;
//  190   
//  191   uint8 i;
//  192   byte nr;  
//  193   
//  194   nwkActiveKeyItems keyItems;
//  195   
//  196   uint32 tmp32; // first for the chcannel list
//  197   //short_ddr = GenericApp_DstAddr.addr.shortAddr;
//  198 
//  199 //     uint16 devlist[ NWK_MAX_DEVICES + 1];
//  200      
//  201   uint8 startOptions;    
//  202   uint8 logicalType;
//  203   
//  204   logicalType = (uint8)ZDO_Config_Node_Descriptor.LogicalType;
        MOV     DPTR,#ZDO_Config_Node_Descriptor
        MOVX    A,@DPTR
        ANL     A,#0x7
        MOV     DPL,?XSP + 0
        MOV     DPH,?XSP + 1
        MOVX    @DPTR,A
//  205   
//  206   readBytes = HalUARTRead(SER_PORT, buff, 31);
        ; Setup parameters for call to function HalUARTRead
        MOV     R4,#0x1f
        MOV     R5,#0x0
        MOV     A,#0x2
        LCALL   ?XSTACK_DISP0_8
        MOV     R2,DPL
        MOV     R3,DPH
        MOV     R1,#0x0
        LCALL   ??HalUARTRead?relay
        MOV     A,R2
        MOV     ?V0 + 0,A
//  207   if (readBytes > 0)
        JNZ     $+5
        LJMP    ??Serial_callBack_0 & 0xFFFF
//  208   {
//  209     //HalUARTWrite( SER_PORT, "DataRead: ",10);
//  210     // HalUARTWrite( SER_PORT, buff, readBytes);
//  211     if( readBytes == 1)
        MOV     A,#0x1
        XRL     A,?V0 + 0
        JZ      $+5
        LJMP    ??Serial_callBack_1 & 0xFFFF
//  212     {
//  213         if(buff[0]== 's')
        MOV     A,#0x2
        LCALL   ?XSTACK_DISP0_8
        MOVX    A,@DPTR
        XRL     A,#0x73
        JNZ     ??Serial_callBack_2
//  214         {
//  215           /// short address
//  216           short_ddr = _NIB.nwkDevAddress;
        MOV     DPTR,#_NIB + 20
        LCALL   ?Subroutine11 & 0xFFFF
//  217           
//  218           UART_Send_String( (uint8*)&short_ddr, 2);
//  219           
//  220         }
??CrossCallReturnLabel_20:
        MOV     DPTR,#short_ddr
        LCALL   ?Subroutine10 & 0xFFFF
??CrossCallReturnLabel_18:
        MOV     R2,#short_ddr & 0xff
        MOV     R3,#(short_ddr >> 8) & 0xff
        LCALL   ??UART_Send_String?relay
//  221         if(buff[0] == 'p')
??Serial_callBack_2:
        MOV     A,#0x2
        LCALL   ?XSTACK_DISP0_8
        MOVX    A,@DPTR
        XRL     A,#0x70
        JNZ     ??Serial_callBack_3
//  222         {
//  223           /// pan id
//  224           panid = _NIB.nwkPanId;
        MOV     DPTR,#_NIB + 33
        LCALL   ?Subroutine11 & 0xFFFF
//  225           UART_Send_String( (uint8*)&panid, 2);          
//  226         }
??CrossCallReturnLabel_21:
        MOV     DPTR,#panid
        LCALL   ?Subroutine10 & 0xFFFF
??CrossCallReturnLabel_19:
        MOV     R2,#panid & 0xff
        MOV     R3,#(panid >> 8) & 0xff
        LCALL   ??UART_Send_String?relay
//  227         if(buff[0] == 'c')/// channel
??Serial_callBack_3:
        MOV     A,#0x2
        LCALL   ?XSTACK_DISP0_8
        MOVX    A,@DPTR
        XRL     A,#0x63
        JNZ     ??Serial_callBack_4
//  228         {
//  229             yy2 = _NIB.nwkLogicalChannel;
        MOV     DPTR,#_NIB + 22
        MOVX    A,@DPTR
        PUSH    A
        CFI CFA_SP SP+-1
        MOV     A,#0x1
        LCALL   ?XSTACK_DISP0_8
        POP     A
        CFI CFA_SP SP+0
        MOVX    @DPTR,A
//  230             UART_Send_String( (uint8*)&yy2, 1);
        ; Setup parameters for call to function UART_Send_String
        MOV     R4,#0x1
        MOV     R5,#0x0
        MOV     R2,DPL
        MOV     R3,DPH
        LCALL   ??UART_Send_String?relay
//  231             /*
//  232               osal_nv_item_init( ZCD_NV_CHANLIST, sizeof(zgDefaultChannelList), &zgDefaultChannelList);
//  233               osal_nv_read(  ZCD_NV_CHANLIST, 0, sizeof(zgDefaultChannelList), &zgDefaultChannelList);
//  234               
//  235          
//  236               UART_Send_String( (uint8*)&zgDefaultChannelList, sizeof(zgDefaultChannelList) );            
//  237             */
//  238             
//  239         }
//  240         if(buff[0] =='m') // mac address
??Serial_callBack_4:
        MOV     A,#0x2
        LCALL   ?XSTACK_DISP0_8
        MOVX    A,@DPTR
        XRL     A,#0x6d
        JNZ     ??Serial_callBack_5
//  241         {
//  242             ieeeAddr = NLME_GetExtAddr();
        ; Setup parameters for call to function NLME_GetExtAddr
        LCALL   ??NLME_GetExtAddr?relay
        MOV     DPTR,#ieeeAddr
        MOV     A,R2
        MOVX    @DPTR,A
        INC     DPTR
        MOV     A,R3
        MOVX    @DPTR,A
//  243             UART_Send_String( ieeeAddr, 8);
        ; Setup parameters for call to function UART_Send_String
        MOV     R4,#0x8
        MOV     R5,#0x0
        LCALL   ??UART_Send_String?relay
//  244             
//  245         }
//  246         
//  247         if( buff[0] ==0xc0) // coordinator 
??Serial_callBack_5:
        MOV     A,#0x2
        LCALL   ?XSTACK_DISP0_8
        MOVX    A,@DPTR
        XRL     A,#0xc0
        JNZ     ??Serial_callBack_6
//  248         {
//  249           /*
//  250           cb_ReadConfiguration( ZCD_NV_LOGICAL_TYPE, sizeof(uint8), &logicalType );   
//  251           if ( logicalType != ZG_DEVICETYPE_ENDDEVICE )   
//  252           {   
//  253             logicalType = ZG_DEVICETYPE_COORDINATOR;   
//  254             cb_WriteConfiguration(ZCD_NV_LOGICAL_TYPE, sizeof(uint8), &logicalType);   
//  255           }
//  256           
//  257 //          zgWriteStartupOptions (ZG_STARTUP_SET, 0x02);
//  258           
//  259  //         zgInit();
//  260 //          ZDOInitDevice( 0 );
//  261 //          SystemReset();           
//  262           */
//  263           osal_nv_item_init( ZCD_NV_LOGICAL_TYPE, sizeof(logicalType), &logicalType );
        ; Setup parameters for call to function osal_nv_item_init
        MOV     DPL,?XSP + 0
        MOV     DPH,?XSP + 1
        MOV     ?V0 + 0,DPL
        MOV     ?V0 + 1,DPH
        MOV     R0,#?V0 + 0
        LCALL   ?PUSH_XSTACK_I_TWO
        CFI CFA_XSP16 add(XSP16, 88)
        LCALL   ?Subroutine14 & 0xFFFF
??CrossCallReturnLabel_40:
        LCALL   ?DEALLOC_XSTACK8
        CFI CFA_XSP16 add(XSP16, 86)
//  264           logicalType = ZG_DEVICETYPE_COORDINATOR;
        MOV     DPL,?XSP + 0
        MOV     DPH,?XSP + 1
        CLR     A
        MOVX    @DPTR,A
//  265           if( osal_nv_write( ZCD_NV_LOGICAL_TYPE, 0 ,sizeof(logicalType), &logicalType) != ZSUCCESS)
        ; Setup parameters for call to function osal_nv_write
        MOV     R0,#?V0 + 0
        LCALL   ?PUSH_XSTACK_I_TWO
        CFI CFA_XSP16 add(XSP16, 88)
        MOV     ?V0 + 0,#0x1
        MOV     ?V0 + 1,#0x0
        MOV     R0,#?V0 + 0
        LCALL   ?PUSH_XSTACK_I_TWO
        CFI CFA_XSP16 add(XSP16, 90)
        LCALL   ?Subroutine13 & 0xFFFF
??CrossCallReturnLabel_50:
        LCALL   ?DEALLOC_XSTACK8
        CFI CFA_XSP16 add(XSP16, 86)
        MOV     A,R1
        JZ      ??Serial_callBack_7
//  266           {
//  267             uprint("set device to coordi failed");
        ; Setup parameters for call to function uprint
        MOV     R2,#`?<Constant "set device to coordi ...">` & 0xff
        MOV     R3,#(`?<Constant "set device to coordi ...">` >> 8) & 0xff
??Serial_callBack_8:
        LCALL   ??uprint?relay
        LJMP    ??Serial_callBack_0 & 0xFFFF
//  268           }else
//  269           {
//  270             zgWriteStartupOptions (ZG_STARTUP_SET, ZCD_STARTOPT_DEFAULT_NETWORK_STATE);
??Serial_callBack_7:
        ; Setup parameters for call to function zgWriteStartupOptions
        MOV     R2,#0x2
        MOV     R1,#-0x1
        LCALL   ??zgWriteStartupOptions?relay
//  271             uprint("set device to coordi,restart it");
        ; Setup parameters for call to function uprint
        MOV     R2,#`?<Constant "set device to coordi,...">` & 0xff
        MOV     R3,#(`?<Constant "set device to coordi,...">` >> 8) & 0xff
        SJMP    ??Serial_callBack_8
//  272           }         
//  273           return;
//  274         }
//  275 
//  276         if( buff[0] ==0xe0) // router
??Serial_callBack_6:
        MOVX    A,@DPTR
        XRL     A,#0xe0
        JNZ     ??Serial_callBack_9
//  277         {
//  278           osal_nv_item_init( ZCD_NV_LOGICAL_TYPE, sizeof(logicalType), &logicalType );
        ; Setup parameters for call to function osal_nv_item_init
        MOV     DPL,?XSP + 0
        MOV     DPH,?XSP + 1
        MOV     ?V0 + 0,DPL
        MOV     ?V0 + 1,DPH
        MOV     R0,#?V0 + 0
        LCALL   ?PUSH_XSTACK_I_TWO
        CFI CFA_XSP16 add(XSP16, 88)
        LCALL   ?Subroutine14 & 0xFFFF
??CrossCallReturnLabel_41:
        LCALL   ?DEALLOC_XSTACK8
        CFI CFA_XSP16 add(XSP16, 86)
//  279           logicalType = ZG_DEVICETYPE_ROUTER;
        MOV     DPL,?XSP + 0
        MOV     DPH,?XSP + 1
        MOV     A,#0x1
        MOVX    @DPTR,A
//  280           if( osal_nv_write( ZCD_NV_LOGICAL_TYPE, 0 ,sizeof(logicalType), &logicalType) != ZSUCCESS)
        ; Setup parameters for call to function osal_nv_write
        MOV     R0,#?V0 + 0
        LCALL   ?PUSH_XSTACK_I_TWO
        CFI CFA_XSP16 add(XSP16, 88)
        MOV     ?V0 + 0,#0x1
        MOV     ?V0 + 1,#0x0
        MOV     R0,#?V0 + 0
        LCALL   ?PUSH_XSTACK_I_TWO
        CFI CFA_XSP16 add(XSP16, 90)
        LCALL   ?Subroutine13 & 0xFFFF
??CrossCallReturnLabel_51:
        LCALL   ?DEALLOC_XSTACK8
        CFI CFA_XSP16 add(XSP16, 86)
        MOV     A,R1
        JZ      ??Serial_callBack_10
//  281           {
//  282             uprint("set device to router failed");
        ; Setup parameters for call to function uprint
        MOV     R2,#`?<Constant "set device to router ...">` & 0xff
        MOV     R3,#(`?<Constant "set device to router ...">` >> 8) & 0xff
??Serial_callBack_11:
        SJMP    ??Serial_callBack_8
//  283           }else
//  284           {
//  285             zgWriteStartupOptions (ZG_STARTUP_SET, ZCD_STARTOPT_DEFAULT_NETWORK_STATE);
??Serial_callBack_10:
        ; Setup parameters for call to function zgWriteStartupOptions
        MOV     R2,#0x2
        MOV     R1,#-0x1
        LCALL   ??zgWriteStartupOptions?relay
//  286             uprint("set device to router,restart it");
        ; Setup parameters for call to function uprint
        MOV     R2,#`?<Constant "set device to router,...">` & 0xff
        MOV     R3,#(`?<Constant "set device to router,...">` >> 8) & 0xff
        SJMP    ??Serial_callBack_8
//  287           }
//  288           
//  289 //          zgWriteStartupOptions (ZG_STARTUP_SET, 0x02);
//  290 //          zgInit();
//  291 //          ZDOInitDevice( 0 );
//  292 //          SystemReset();   
//  293           return;
//  294         }
//  295 
//  296         if( buff[0] ==0xe1) // end device
??Serial_callBack_9:
        MOVX    A,@DPTR
        XRL     A,#0xe1
        JNZ     ??Serial_callBack_12
//  297         {
//  298           osal_nv_item_init( ZCD_NV_LOGICAL_TYPE, sizeof(logicalType), &logicalType );
        ; Setup parameters for call to function osal_nv_item_init
        MOV     DPL,?XSP + 0
        MOV     DPH,?XSP + 1
        MOV     ?V0 + 0,DPL
        MOV     ?V0 + 1,DPH
        MOV     R0,#?V0 + 0
        LCALL   ?PUSH_XSTACK_I_TWO
        CFI CFA_XSP16 add(XSP16, 88)
        LCALL   ?Subroutine14 & 0xFFFF
??CrossCallReturnLabel_42:
        LCALL   ?DEALLOC_XSTACK8
        CFI CFA_XSP16 add(XSP16, 86)
//  299           logicalType = ZG_DEVICETYPE_ENDDEVICE;
        MOV     DPL,?XSP + 0
        MOV     DPH,?XSP + 1
        MOV     A,#0x2
        MOVX    @DPTR,A
//  300           if( osal_nv_write( ZCD_NV_LOGICAL_TYPE, 0 ,sizeof(logicalType), &logicalType) != ZSUCCESS)
        ; Setup parameters for call to function osal_nv_write
        MOV     R0,#?V0 + 0
        LCALL   ?PUSH_XSTACK_I_TWO
        CFI CFA_XSP16 add(XSP16, 88)
        MOV     ?V0 + 0,#0x1
        MOV     ?V0 + 1,#0x0
        MOV     R0,#?V0 + 0
        LCALL   ?PUSH_XSTACK_I_TWO
        CFI CFA_XSP16 add(XSP16, 90)
        LCALL   ?Subroutine13 & 0xFFFF
??CrossCallReturnLabel_52:
        LCALL   ?DEALLOC_XSTACK8
        CFI CFA_XSP16 add(XSP16, 86)
        MOV     A,R1
        JZ      ??Serial_callBack_13
//  301           {
//  302             uprint("set device to end device failed");
        ; Setup parameters for call to function uprint
        MOV     R2,#`?<Constant "set device to end dev...">` & 0xff
        MOV     R3,#(`?<Constant "set device to end dev...">` >> 8) & 0xff
        SJMP    ??Serial_callBack_11
//  303           }else
//  304           {
//  305             zgWriteStartupOptions (ZG_STARTUP_SET, ZCD_STARTOPT_DEFAULT_NETWORK_STATE);
??Serial_callBack_13:
        ; Setup parameters for call to function zgWriteStartupOptions
        MOV     R2,#0x2
        MOV     R1,#-0x1
        LCALL   ??zgWriteStartupOptions?relay
//  306             uprint("set device to end device,restart it");
        ; Setup parameters for call to function uprint
        MOV     R2,#`?<Constant "set device to end dev...">_1` & 0xff
        MOV     R3,#(`?<Constant "set device to end dev...">_1` >> 8) & 0xff
        LJMP    ??Serial_callBack_8 & 0xFFFF
//  307           }
//  308           return;
//  309         }
//  310         
//  311         if(buff[0] == 0xCA)
??Serial_callBack_12:
        MOVX    A,@DPTR
        XRL     A,#0xca
        JZ      $+5
        LJMP    ??Serial_callBack_0 & 0xFFFF
//  312         {
//  313           // 
//  314           // read self AssociatedDevList
//  315           yy1 = 1;
        MOV     R6,#0x1
//  316           for(i=0;i< NWK_MAX_DEVICES; i++)
        MOV     R4,#0x0
//  317           {
//  318              nr = AssociatedDevList[ i ].nodeRelation;
//  319              //if(nr > 0 && nr < 5) //CHILD_RFD CHILD_RFD_RX_IDLE CHILD_FFD CHILD_FFD_RX_IDLE
//  320              if( nr != 0XFF)
??Serial_callBack_14:
        MOV     A,R4
        MOV     B,#0x12
        MUL     AB
        MOV     R0,A
        MOV     R1,B
        MOV     A,#(AssociatedDevList + 4) & 0xff
        ADD     A,R0
        MOV     DPL,A
        MOV     A,#((AssociatedDevList + 4) >> 8) & 0xff
        ADDC    A,R1
        MOV     DPH,A
        MOVX    A,@DPTR
        CPL     A
        JZ      ??Serial_callBack_15
//  321              {
//  322                //   myaddr.addrMode = (afAddrMode_t)Addr16Bit;
//  323                //   myaddr.endPoint = GENERICAPP_ENDPOINT;
//  324              //  if( AssociatedDevList[ i ].shortAddr != 0x0000)
//  325              //  {
//  326                   //if( AssocIsChild( AssociatedDevList[ i ].shortAddr ) != 1 || AssociatedDevList[ i ].age > NWK_ROUTE_AGE_LIMIT)
//  327                   //if( AssocIsChild( AssociatedDevList[ i ].shortAddr ) == 1 && AssociatedDevList[ i ].age > NWK_ROUTE_AGE_LIMIT )
//  328                  // {
//  329                     //  myaddr.addr.shortAddr = AssociatedDevList[ i ].shortAddr;
//  330                       /*
//  331                       if ( AF_DataRequest( &myaddr, &GenericApp_epDesc, GENERICAPP_CLUSTERID,(byte)osal_strlen( theMessageData ) + 1,
//  332                               (byte *)&theMessageData,
//  333                               &GenericApp_TransID,
//  334                               AF_ACK_REQUEST, AF_DEFAULT_RADIUS ) != afStatus_SUCCESS )
//  335                         {
//  336                           uprint("delete asso");
//  337                         */
//  338                    //       delete_asso( AssociatedDevList[ i ]. addrIdx);
//  339                           
//  340                   // }
//  341                     //    else
//  342                      //   {
//  343                         //  if( ZDSecMgrAuthenticationCheck(AssociatedDevList[ i ].shortAddr) == TRUE)
//  344                           {
//  345                             devlist[yy1] = AssociatedDevList[ i ].shortAddr;
        MOV     A,#AssociatedDevList & 0xff
        ADD     A,R0
        MOV     DPL,A
        MOV     A,#(AssociatedDevList >> 8) & 0xff
        ADDC    A,R1
        MOV     DPH,A
        MOVX    A,@DPTR
        MOV     R2,A
        INC     DPTR
        MOVX    A,@DPTR
        MOV     R3,A
        MOV     A,R6
        CLR     C
        RLC     A
        MOV     R0,A
        CLR     A
        RLC     A
        MOV     R1,A
        MOV     A,#devlist & 0xff
        ADD     A,R0
        MOV     DPL,A
        MOV     A,#(devlist >> 8) & 0xff
        ADDC    A,R1
        MOV     DPH,A
        MOV     A,R2
        MOVX    @DPTR,A
        INC     DPTR
        MOV     A,R3
        MOVX    @DPTR,A
//  346                             yy1++;
        INC     R6
//  347                           }
//  348                      //   }
//  349                   
//  350                   // }
//  351              }//else {break;}
//  352           }
??Serial_callBack_15:
        INC     R4
        MOV     A,R4
        CLR     C
        SUBB    A,#0x15
        JC      ??Serial_callBack_14
//  353           devlist[0] = BUILD_UINT16(0xce,  AssocCount( PARENT, CHILD_FFD_RX_IDLE ) );
        ; Setup parameters for call to function AssocCount
        MOV     R2,#0x4
        MOV     R1,#0x0
        LCALL   ??AssocCount?relay
        MOV     A,R2
        MOV     R3,A
        CLR     A
        ADD     A,#-0x32
        MOV     A,R3
        MOV     R1,A
        MOV     DPTR,#devlist
        MOV     A,#-0x32
        LCALL   ??Subroutine21_0 & 0xFFFF
//  354           ///devlist[0] = BUILD_UINT16(0xce,  yy1-1 );
//  355           UART_Send_String( (uint8*)&devlist[0], yy1*2);
??CrossCallReturnLabel_44:
        ; Setup parameters for call to function UART_Send_String
        MOV     A,R6
        RLC     A
        MOV     R4,A
        CLR     A
        RLC     A
        MOV     R5,A
        MOV     R2,#devlist & 0xff
        MOV     R3,#(devlist >> 8) & 0xff
        LCALL   ??UART_Send_String?relay
//  356             //p1 = AssocMakeList( &cnt );
//  357             //UART_Send_String( (uint8*)p1,  AssocCount(1, 4)*2);
//  358             //osal_mem_free(p1);
//  359           return;
        LJMP    ??Serial_callBack_0 & 0xFFFF
//  360         }
//  361     }
//  362     
//  363     
//  364       if(readBytes == 6)
??Serial_callBack_1:
        MOV     A,#0x6
        XRL     A,?V0 + 0
        JZ      $+5
        LJMP    ??Serial_callBack_16 & 0xFFFF
//  365       {
//  366         if(buff[0] == 'p' && buff[1]==':') // pan id
        MOV     A,#0x2
        LCALL   ?XSTACK_DISP0_8
        MOVX    A,@DPTR
        XRL     A,#0x70
        JZ      $+5
        LJMP    ??Serial_callBack_17 & 0xFFFF
        MOV     A,#0x3
        LCALL   ?XSTACK_DISP0_8
        MOVX    A,@DPTR
        XRL     A,#0x3a
        JZ      $+5
        LJMP    ??Serial_callBack_18 & 0xFFFF
//  367         {
//  368            // NLME_SetDefaultNV();
//  369             strncpy(pbuf, &buff[2],2); pbuf[2] = '\0';
        ; Setup parameters for call to function strncpy
        MOV     ?V0 + 2,#0x2
        MOV     ?V0 + 3,#0x0
        MOV     R0,#?V0 + 2
        LCALL   ?PUSH_XSTACK_I_TWO
        CFI CFA_XSP16 add(XSP16, 88)
        MOV     A,#0x6
        LCALL   ?XSTACK_DISP0_8
        MOV     R4,DPL
        MOV     R5,DPH
        MOV     A,#0x27
        LCALL   ?XSTACK_DISP0_8
        LCALL   ?Subroutine15 & 0xFFFF
??CrossCallReturnLabel_28:
        LCALL   ?DEALLOC_XSTACK8
        CFI CFA_XSP16 add(XSP16, 86)
        MOV     A,#0x27
        LCALL   ?XSTACK_DISP0_8
        CLR     A
        MOVX    @DPTR,A
//  370             strncpy(pbuf1, &buff[4],2); pbuf1[2] = '\0';
        ; Setup parameters for call to function strncpy
        MOV     R0,#?V0 + 2
        LCALL   ?PUSH_XSTACK_I_TWO
        CFI CFA_XSP16 add(XSP16, 88)
        MOV     A,#0x8
        LCALL   ?XSTACK_DISP0_8
        MOV     R4,DPL
        MOV     R5,DPH
        MOV     A,#0x24
        LCALL   ?XSTACK_DISP0_8
        LCALL   ?Subroutine15 & 0xFFFF
??CrossCallReturnLabel_29:
        LCALL   ?DEALLOC_XSTACK8
        CFI CFA_XSP16 add(XSP16, 86)
        MOV     A,#0x24
        LCALL   ?XSTACK_DISP0_8
        CLR     A
        MOVX    @DPTR,A
//  371             
//  372             set_panid( BUILD_UINT16( strtol(pbuf1,NULL,16),strtol(pbuf,NULL,16) ));
        ; Setup parameters for call to function strtol
        MOV     ?V0 + 2,#0x10
        MOV     R0,#?V0 + 2
        LCALL   ?PUSH_XSTACK_I_TWO
        CFI CFA_XSP16 add(XSP16, 88)
        MOV     R4,#0x0
        MOV     R5,#0x0
        MOV     A,#0x24
        LCALL   ?XSTACK_DISP0_8
        LCALL   ?Subroutine16 & 0xFFFF
??CrossCallReturnLabel_32:
        LCALL   ?DEALLOC_XSTACK8
        CFI CFA_XSP16 add(XSP16, 86)
        ; Setup parameters for call to function set_panid
        MOV     A,R2
        MOV     R6,A
        ; Setup parameters for call to function strtol
        MOV     R0,#?V0 + 2
        LCALL   ?PUSH_XSTACK_I_TWO
        CFI CFA_XSP16 add(XSP16, 88)
        MOV     R4,#0x0
        MOV     R5,#0x0
        MOV     A,#0x27
        LCALL   ?XSTACK_DISP0_8
        LCALL   ?Subroutine16 & 0xFFFF
??CrossCallReturnLabel_33:
        LCALL   ?DEALLOC_XSTACK8
        CFI CFA_XSP16 add(XSP16, 86)
        MOV     A,R2
        MOV     ?V0 + 5,A
        MOV     A,R6
        ADD     A,#0x0
        MOV     R2,A
        CLR     A
        ADDC    A,?V0 + 5
        MOV     R3,A
        LCALL   ??set_panid?relay
//  373             
//  374             //_NIB.nwkPanId = BUILD_UINT16( strtol(pbuf1,NULL,16),strtol(pbuf,NULL,16));
//  375 
//  376             
//  377 //            NLME_UpdateNV(0x01);
//  378             
//  379             /*
//  380             ZAddr.addr.shortAddr = NLME_GetShortAddr();
//  381             ZAddr.addrMode = Addr16Bit;
//  382             ZDP_MgmtLeaveReq( &ZAddr, NLME_GetExtAddr(), 0 ); 
//  383             */
//  384             
//  385             
//  386             if(_NIB.nwkPanId == 0xffff)
        MOV     DPTR,#_NIB + 33
        MOVX    A,@DPTR
        CPL     A
        JNZ     ??Serial_callBack_19
        INC     DPTR
        MOVX    A,@DPTR
        CPL     A
??Serial_callBack_19:
        JNZ     ??Serial_callBack_17
//  387             {
//  388               zgWriteStartupOptions (ZG_STARTUP_SET, ZCD_STARTOPT_DEFAULT_NETWORK_STATE);
        ; Setup parameters for call to function zgWriteStartupOptions
        MOV     R2,#0x2
        MOV     R1,#-0x1
        LCALL   ??zgWriteStartupOptions?relay
//  389               
//  390               /*
//  391               if( _NIB.nwkLogicalChannel == 0x0b )
//  392               {
//  393                 zgDefaultChannelList = 0x00000800;  
//  394               } 
//  395               if ( _NIB.nwkLogicalChannel == 0x0c )
//  396               {
//  397                 zgDefaultChannelList = 0x00001000;
//  398               }
//  399               */
//  400               /*
//  401               osal_nv_item_init( ZCD_NV_CHANLIST, sizeof(zgDefaultChannelList), &zgDefaultChannelList);
//  402               osal_nv_read(  ZCD_NV_CHANLIST, 0, sizeof(zgDefaultChannelList), &zgDefaultChannelList);
//  403               
//  404               UART_Send_String( (uint8*)&zgDefaultChannelList, sizeof(zgDefaultChannelList) );
//  405               */
//  406               //ZDOInitDevice( 0 );
//  407               
//  408               /*
//  409               if ( ZG_BUILD_COORDINATOR_TYPE && logicalType == NODETYPE_COORDINATOR )
//  410               {
//  411                // if( 
//  412                 NLME_NetworkFormationRequest( zgConfigPANID, zgApsUseExtendedPANID, _NIB.nwkLogicalChannel,
//  413                                                zgDefaultStartingScanDuration, BEACON_ORDER_NO_BEACONS , BEACON_ORDER_NO_BEACONS,false);
//  414                 //NLME_StartRouterRequest( BEACON_ORDER_NO_BEACONS, BEACON_ORDER_NO_BEACONS, false );
//  415               }
//  416               if ( ZG_BUILD_JOINING_TYPE && (logicalType == NODETYPE_ROUTER || logicalType == NODETYPE_DEVICE) )
//  417               {
//  418                 NLME_NetworkDiscoveryRequest( _NIB.nwkLogicalChannel, zgDefaultStartingScanDuration );
//  419                 uprint("researching");
//  420               }
//  421               */
//  422               // after reset, search and join new network
//  423             
//  424               SystemReset();
        CLR     0xa8.7
        CLR     0xa8.7
        MOV     0xc9,#-0x55
        MOV     0xc9,#0x5b
??Serial_callBack_20:
        SJMP    ??Serial_callBack_20
//  425             }
//  426             
//  427         }
//  428         
//  429         if(buff[0] == 's' && buff[1]==':') // short address
??Serial_callBack_17:
        MOV     A,#0x2
        LCALL   ?XSTACK_DISP0_8
        MOVX    A,@DPTR
        XRL     A,#0x73
        JZ      $+5
        LJMP    ??Serial_callBack_18 & 0xFFFF
        MOV     A,#0x3
        LCALL   ?XSTACK_DISP0_8
        MOVX    A,@DPTR
        XRL     A,#0x3a
        JZ      $+5
        LJMP    ??Serial_callBack_18 & 0xFFFF
//  430         {
//  431             strncpy(pbuf, &buff[2],2); pbuf[2] = '\0';
        ; Setup parameters for call to function strncpy
        MOV     ?V0 + 2,#0x2
        MOV     ?V0 + 3,#0x0
        MOV     R0,#?V0 + 2
        LCALL   ?PUSH_XSTACK_I_TWO
        CFI CFA_XSP16 add(XSP16, 88)
        MOV     A,#0x6
        LCALL   ?XSTACK_DISP0_8
        MOV     R4,DPL
        MOV     R5,DPH
        MOV     A,#0x27
        LCALL   ?XSTACK_DISP0_8
        LCALL   ?Subroutine15 & 0xFFFF
??CrossCallReturnLabel_30:
        LCALL   ?DEALLOC_XSTACK8
        CFI CFA_XSP16 add(XSP16, 86)
        MOV     A,#0x27
        LCALL   ?XSTACK_DISP0_8
        CLR     A
        MOVX    @DPTR,A
//  432             strncpy(pbuf1, &buff[4],2); pbuf1[2] = '\0';
        ; Setup parameters for call to function strncpy
        MOV     R0,#?V0 + 2
        LCALL   ?PUSH_XSTACK_I_TWO
        CFI CFA_XSP16 add(XSP16, 88)
        MOV     A,#0x8
        LCALL   ?XSTACK_DISP0_8
        MOV     R4,DPL
        MOV     R5,DPH
        MOV     A,#0x24
        LCALL   ?XSTACK_DISP0_8
        LCALL   ?Subroutine15 & 0xFFFF
??CrossCallReturnLabel_31:
        LCALL   ?DEALLOC_XSTACK8
        CFI CFA_XSP16 add(XSP16, 86)
        MOV     A,#0x24
        LCALL   ?XSTACK_DISP0_8
        CLR     A
        MOVX    @DPTR,A
//  433             _NIB.nwkDevAddress = BUILD_UINT16( strtol(pbuf1,NULL,16),strtol(pbuf,NULL,16));
        ; Setup parameters for call to function strtol
        MOV     ?V0 + 2,#0x10
        MOV     R0,#?V0 + 2
        LCALL   ?PUSH_XSTACK_I_TWO
        CFI CFA_XSP16 add(XSP16, 88)
        MOV     R4,#0x0
        MOV     R5,#0x0
        MOV     A,#0x24
        LCALL   ?XSTACK_DISP0_8
        LCALL   ?Subroutine16 & 0xFFFF
??CrossCallReturnLabel_34:
        LCALL   ?DEALLOC_XSTACK8
        CFI CFA_XSP16 add(XSP16, 86)
        MOV     A,R2
        MOV     R6,A
        ; Setup parameters for call to function strtol
        MOV     R0,#?V0 + 2
        LCALL   ?PUSH_XSTACK_I_TWO
        CFI CFA_XSP16 add(XSP16, 88)
        MOV     R4,#0x0
        MOV     R5,#0x0
        MOV     A,#0x27
        LCALL   ?XSTACK_DISP0_8
        LCALL   ?Subroutine16 & 0xFFFF
??CrossCallReturnLabel_35:
        LCALL   ?DEALLOC_XSTACK8
        CFI CFA_XSP16 add(XSP16, 86)
        MOV     A,R2
        MOV     ?V0 + 5,A
        MOV     A,R6
        ADD     A,#0x0
        MOV     R0,A
        CLR     A
        ADDC    A,?V0 + 5
        MOV     R1,A
        MOV     DPTR,#_NIB + 20
        LCALL   ?Subroutine18 & 0xFFFF
//  434             NLME_UpdateNV(0x01);
??CrossCallReturnLabel_46:
        ; Setup parameters for call to function NLME_UpdateNV
        MOV     R1,#0x1
        LCALL   ??NLME_UpdateNV?relay
//  435             //SystemResetSoft();
//  436             
//  437         }
//  438         
//  439         if( strstr(buff, "nwkkey")  )
??Serial_callBack_18:
        ; Setup parameters for call to function strstr
        MOV     R4,#`?<Constant "nwkkey">` & 0xff
        MOV     R5,#(`?<Constant "nwkkey">` >> 8) & 0xff
        MOV     A,#0x2
        LCALL   ?XSTACK_DISP0_8
        LCALL   ?Subroutine12 & 0xFFFF
??CrossCallReturnLabel_24:
        JNZ     $+5
        LJMP    ??Serial_callBack_21 & 0xFFFF
//  440         {
//  441           if ( osal_nv_read( ZCD_NV_NWKKEY, 0, sizeof(nwkActiveKeyItems), (void*)&keyItems ) ==   ZSUCCESS )
        ; Setup parameters for call to function osal_nv_read
        MOV     A,#0x31
        LCALL   ?XSTACK_DISP0_8
        MOV     ?V0 + 2,DPL
        MOV     ?V0 + 3,DPH
        MOV     R0,#?V0 + 2
        LCALL   ?PUSH_XSTACK_I_TWO
        CFI CFA_XSP16 add(XSP16, 88)
        MOV     ?V0 + 2,#0x15
        MOV     ?V0 + 3,#0x0
        MOV     R0,#?V0 + 2
        LCALL   ?PUSH_XSTACK_I_TWO
        CFI CFA_XSP16 add(XSP16, 90)
        MOV     R4,#0x0
        MOV     R5,#0x0
        MOV     R2,#-0x7e
        MOV     R3,#0x0
        LCALL   ??osal_nv_read?relay
        MOV     A,#0x4
        LCALL   ?DEALLOC_XSTACK8
        CFI CFA_XSP16 add(XSP16, 86)
        MOV     A,R1
        JNZ     ??Serial_callBack_22
//  442           {
//  443             UART_Send_String( keyItems.active.key, SEC_KEY_LEN);
        ; Setup parameters for call to function UART_Send_String
        MOV     R4,#0x10
        MOV     R5,#0x0
        MOV     A,#0x32
        LCALL   ?XSTACK_DISP0_8
        MOV     R2,DPL
        MOV     R3,DPH
        LCALL   ??UART_Send_String?relay
        SJMP    ??Serial_callBack_21
//  444           }else
//  445           {
//  446             uprint("osal nv read nwkkey error");
??Serial_callBack_22:
        ; Setup parameters for call to function uprint
        MOV     R2,#`?<Constant "osal nv read nwkkey e...">` & 0xff
        MOV     R3,#(`?<Constant "osal nv read nwkkey e...">` >> 8) & 0xff
??Serial_callBack_23:
        LCALL   ??uprint?relay
        SJMP    ??Serial_callBack_21
//  447           }
//  448         }
//  449       }
//  450     
//  451     if( readBytes == 21 )
??Serial_callBack_16:
        MOV     A,#0x15
        XRL     A,?V0 + 0
        JNZ     ??Serial_callBack_24
//  452     {
//  453       
//  454       if(strstr(buff, "pass:"))
        ; Setup parameters for call to function strstr
        MOV     R4,#`?<Constant "pass:">` & 0xff
        MOV     R5,#(`?<Constant "pass:">` >> 8) & 0xff
        MOV     A,#0x2
        LCALL   ?XSTACK_DISP0_8
        LCALL   ?Subroutine12 & 0xFFFF
??CrossCallReturnLabel_25:
        JZ      ??Serial_callBack_21
//  455       {
//  456 #if defined (SECURE)
//  457           SSP_UpdateNwkKey( (byte*)(buff+5), 0);
        ; Setup parameters for call to function SSP_UpdateNwkKey
        MOV     R1,#0x0
        MOV     A,#0x7
        LCALL   ?XSTACK_DISP0_8
        MOV     R2,DPL
        MOV     R3,DPH
        LCALL   ??SSP_UpdateNwkKey?relay
//  458           SSP_SwitchNwkKey( 0 );
        ; Setup parameters for call to function SSP_SwitchNwkKey
        MOV     R1,#0x0
        LCALL   ??SSP_SwitchNwkKey?relay
//  459 	  ZDApp_NVUpdate();
        ; Setup parameters for call to function ZDApp_NVUpdate
        LCALL   ??ZDApp_NVUpdate?relay
//  460           uprint("change key");
        ; Setup parameters for call to function uprint
        MOV     R2,#`?<Constant "change key">` & 0xff
        MOV     R3,#(`?<Constant "change key">` >> 8) & 0xff
        SJMP    ??Serial_callBack_23
//  461 #endif
//  462       }
//  463     }
//  464     
//  465     if( readBytes >= 2)
??Serial_callBack_24:
        MOV     A,R2
        CLR     C
        SUBB    A,#0x2
        JNC     $+5
        LJMP    ??Serial_callBack_0 & 0xFFFF
//  466     {
//  467       if( buff[0] == 'e' && buff[1] == '#')
??Serial_callBack_21:
        MOV     A,#0x2
        LCALL   ?XSTACK_DISP0_8
        MOVX    A,@DPTR
        XRL     A,#0x65
        JNZ     ??Serial_callBack_25
        MOV     A,#0x3
        LCALL   ?XSTACK_DISP0_8
        MOVX    A,@DPTR
        XRL     A,#0x23
        JZ      $+5
        LJMP    ??Serial_callBack_26 & 0xFFFF
//  468       {
//  469           uprint("EndDevice match");
        ; Setup parameters for call to function uprint
        MOV     R2,#`?<Constant "EndDevice match">` & 0xff
        MOV     R3,#(`?<Constant "EndDevice match">` >> 8) & 0xff
        LCALL   ??uprint?relay
//  470           HalLedSet ( HAL_LED_1, HAL_LED_MODE_OFF );
        ; Setup parameters for call to function HalLedSet
        MOV     R2,#0x0
        MOV     R1,#0x1
        LCALL   ??HalLedSet?relay
//  471 
//  472           dstAddr.addrMode = Addr16Bit;
        MOV     A,#0x30
        LCALL   ?XSTACK_DISP0_8
        MOV     A,#0x2
        MOVX    @DPTR,A
//  473           dstAddr.addr.shortAddr = 0x0000; // Coordinator
        MOV     A,#0x28
        LCALL   ?XSTACK_DISP0_8
        CLR     A
        MOVX    @DPTR,A
        INC     DPTR
        MOVX    @DPTR,A
//  474           ZDP_EndDeviceBindReq( &dstAddr, NLME_GetShortAddr(), GenericApp_epDesc.endPoint,
//  475                             GENERICAPP_PROFID,
//  476                             GENERICAPP_MAX_CLUSTERS, (cId_t *)GenericApp_ClusterList,
//  477                             GENERICAPP_MAX_CLUSTERS, (cId_t *)GenericApp_ClusterList,
//  478                             FALSE );
        ; Setup parameters for call to function NLME_GetShortAddr
        LCALL   ??NLME_GetShortAddr?relay
        MOV     ?V0 + 2,R2
        MOV     ?V0 + 3,R3
        MOV     R4,?V0 + 2
        MOV     R5,?V0 + 3
        MOV     ?V0 + 2,#GenericApp_ClusterList & 0xff
        MOV     ?V0 + 3,#(GenericApp_ClusterList >> 8) & 0xff
        ; Setup parameters for call to function ZDP_EndDeviceBindReq
        MOV     ?V0 + 1,#0x0
        MOV     R0,#?V0 + 1
        LCALL   ?PUSH_XSTACK_I_ONE
        CFI CFA_XSP16 add(XSP16, 87)
        MOV     R0,#?V0 + 2
        LCALL   ?PUSH_XSTACK_I_TWO
        CFI CFA_XSP16 add(XSP16, 89)
        MOV     ?V0 + 1,#0x1
        MOV     R0,#?V0 + 1
        LCALL   ?PUSH_XSTACK_I_ONE
        CFI CFA_XSP16 add(XSP16, 90)
        MOV     R0,#?V0 + 2
        LCALL   ?PUSH_XSTACK_I_TWO
        CFI CFA_XSP16 add(XSP16, 92)
        MOV     R0,#?V0 + 1
        LCALL   ?PUSH_XSTACK_I_ONE
        CFI CFA_XSP16 add(XSP16, 93)
        MOV     ?V0 + 2,#0x4
        MOV     ?V0 + 3,#0xf
        MOV     R0,#?V0 + 2
        LCALL   ?PUSH_XSTACK_I_TWO
        CFI CFA_XSP16 add(XSP16, 95)
        MOV     DPTR,#GenericApp_epDesc
        MOVX    A,@DPTR
        MOV     R1,A
        MOV     A,#0x31
        LCALL   ?XSTACK_DISP0_8
        MOV     R2,DPL
        MOV     R3,DPH
        LCALL   ??ZDP_EndDeviceBindReq?relay
        MOV     A,#0x9
        LCALL   ?DEALLOC_XSTACK8
        CFI CFA_XSP16 add(XSP16, 86)
//  479       
//  480       }
//  481  
//  482       if( buff[0] == 'r' && buff[1] == '#')
??Serial_callBack_25:
        MOV     A,#0x2
        LCALL   ?XSTACK_DISP0_8
        MOVX    A,@DPTR
        XRL     A,#0x72
        JNZ     ??Serial_callBack_26
        MOV     A,#0x3
        LCALL   ?XSTACK_DISP0_8
        MOVX    A,@DPTR
        XRL     A,#0x23
        JNZ     ??Serial_callBack_26
//  483       {
//  484           uprint("Router Device match");
        ; Setup parameters for call to function uprint
        MOV     R2,#`?<Constant "Router Device match">` & 0xff
        MOV     R3,#(`?<Constant "Router Device match">` >> 8) & 0xff
        LCALL   ??uprint?relay
//  485           
//  486 //        HalLedSet ( HAL_LED_1, HAL_LED_MODE_FLASH );
//  487 
//  488       dstAddr.addrMode = AddrBroadcast;
        MOV     A,#0x30
        LCALL   ?XSTACK_DISP0_8
        MOV     A,#0xf
        MOVX    @DPTR,A
//  489       dstAddr.addr.shortAddr = NWK_BROADCAST_SHORTADDR;
        MOV     A,#0x28
        LCALL   ?XSTACK_DISP0_8
        MOV     A,#-0x1
        MOVX    @DPTR,A
        INC     DPTR
        MOVX    @DPTR,A
//  490       ZDP_MatchDescReq( &dstAddr, NWK_BROADCAST_SHORTADDR,
//  491                         GENERICAPP_PROFID,
//  492                         GENERICAPP_MAX_CLUSTERS, (cId_t *)GenericApp_ClusterList,
//  493                         GENERICAPP_MAX_CLUSTERS, (cId_t *)GenericApp_ClusterList,
//  494                         FALSE );
        MOV     ?V0 + 2,#GenericApp_ClusterList & 0xff
        MOV     ?V0 + 3,#(GenericApp_ClusterList >> 8) & 0xff
        ; Setup parameters for call to function ZDP_MatchDescReq
        MOV     ?V0 + 1,#0x0
        MOV     R0,#?V0 + 1
        LCALL   ?PUSH_XSTACK_I_ONE
        CFI CFA_XSP16 add(XSP16, 87)
        MOV     R0,#?V0 + 2
        LCALL   ?PUSH_XSTACK_I_TWO
        CFI CFA_XSP16 add(XSP16, 89)
        MOV     ?V0 + 1,#0x1
        MOV     R0,#?V0 + 1
        LCALL   ?PUSH_XSTACK_I_ONE
        CFI CFA_XSP16 add(XSP16, 90)
        MOV     R0,#?V0 + 2
        LCALL   ?PUSH_XSTACK_I_TWO
        CFI CFA_XSP16 add(XSP16, 92)
        MOV     ?V0 + 2,#0x4
        MOV     ?V0 + 3,#0xf
        MOV     R0,#?V0 + 2
        LCALL   ?PUSH_XSTACK_I_TWO
        CFI CFA_XSP16 add(XSP16, 94)
        MOV     R1,#0x1
        MOV     R4,#-0x1
        MOV     R5,#-0x1
        MOV     A,#0x30
        LCALL   ?XSTACK_DISP0_8
        MOV     R2,DPL
        MOV     R3,DPH
        LCALL   ??ZDP_MatchDescReq?relay
        MOV     A,#0x8
        LCALL   ?DEALLOC_XSTACK8
        CFI CFA_XSP16 add(XSP16, 86)
//  495       
//  496       }
//  497       if( readBytes == 2)
??Serial_callBack_26:
        MOV     A,#0x2
        XRL     A,?V0 + 0
        JZ      $+5
        LJMP    ??Serial_callBack_27 & 0xFFFF
//  498       {
//  499         if( buff[0] == 0xcc )
        MOV     A,#0x2
        LCALL   ?XSTACK_DISP0_8
        MOVX    A,@DPTR
        XRL     A,#0xcc
        JZ      $+5
        LJMP    ??Serial_callBack_28 & 0xFFFF
//  500         {
//  501           if( buff[1] > 0x0a && buff[1] < 0x1b )
        MOV     A,#0x3
        LCALL   ?XSTACK_DISP0_8
        MOVX    A,@DPTR
        ADD     A,#-0xb
        CLR     C
        SUBB    A,#0x10
        JC      $+5
        LJMP    ??Serial_callBack_0 & 0xFFFF
//  502           {
//  503 
//  504             _NIB.nwkLogicalChannel = buff[1];
        MOVX    A,@DPTR
        MOV     DPTR,#_NIB + 22
        MOVX    @DPTR,A
//  505             NLME_UpdateNV(0x01);
        ; Setup parameters for call to function NLME_UpdateNV
        MOV     R1,#0x1
        LCALL   ??NLME_UpdateNV?relay
//  506             ZMacSetReq( ZMacChannel, &buff[1]);
        ; Setup parameters for call to function ZMacSetReq
        MOV     A,#0x3
        LCALL   ?XSTACK_DISP0_8
        MOV     R2,DPL
        MOV     R3,DPH
        MOV     R1,#-0x1f
        LCALL   ??ZMacSetReq?relay
//  507             
//  508             osal_nv_item_init( ZCD_NV_CHANLIST, sizeof(zgDefaultChannelList), &zgDefaultChannelList);
        ; Setup parameters for call to function osal_nv_item_init
        MOV     ?V0 + 2,#zgDefaultChannelList & 0xff
        MOV     ?V0 + 3,#(zgDefaultChannelList >> 8) & 0xff
        MOV     R0,#?V0 + 2
        LCALL   ?PUSH_XSTACK_I_TWO
        CFI CFA_XSP16 add(XSP16, 88)
        MOV     R4,#0x4
        MOV     R5,#0x0
        MOV     R2,#-0x7c
        LCALL   ??Subroutine20_0 & 0xFFFF
??CrossCallReturnLabel_43:
        LCALL   ?DEALLOC_XSTACK8
        CFI CFA_XSP16 add(XSP16, 86)
//  509             
//  510             if( buff[1] == 0x0b)
        MOV     A,#0x3
        LCALL   ?XSTACK_DISP0_8
        MOVX    A,@DPTR
        XRL     A,#0xb
        JNZ     ??Serial_callBack_29
//  511             {
//  512               zgDefaultChannelList = 0x00000800;
        MOV     DPTR,#__Constant_800
        LJMP    ??Serial_callBack_30 & 0xFFFF
//  513               
//  514             } 
//  515             if (buff[1] == 0x0c )
??Serial_callBack_29:
        MOVX    A,@DPTR
        XRL     A,#0xc
        JNZ     ??Serial_callBack_31
//  516             {
//  517               zgDefaultChannelList = 0x00001000;
        MOV     DPTR,#__Constant_1000
        LJMP    ??Serial_callBack_30 & 0xFFFF
//  518             }            
//  519             if (buff[1] == 0x0d )
??Serial_callBack_31:
        MOVX    A,@DPTR
        XRL     A,#0xd
        JNZ     ??Serial_callBack_32
//  520             {
//  521               zgDefaultChannelList = 0x00002000;
        MOV     DPTR,#__Constant_2000
        LJMP    ??Serial_callBack_30 & 0xFFFF
//  522             }
//  523             if (buff[1] == 0x0e )
??Serial_callBack_32:
        MOVX    A,@DPTR
        XRL     A,#0xe
        JNZ     ??Serial_callBack_33
//  524             {
//  525               zgDefaultChannelList = 0x00004000;
        MOV     DPTR,#__Constant_4000
        SJMP    ??Serial_callBack_30
//  526             }
//  527             if (buff[1] == 0x0f )
??Serial_callBack_33:
        MOVX    A,@DPTR
        XRL     A,#0xf
        JNZ     ??Serial_callBack_34
//  528             {
//  529               zgDefaultChannelList = 0x00008000;
        MOV     DPTR,#__Constant_8000
        SJMP    ??Serial_callBack_30
//  530             }
//  531             if (buff[1] == 0x10 )
??Serial_callBack_34:
        MOVX    A,@DPTR
        XRL     A,#0x10
        JNZ     ??Serial_callBack_35
//  532             {
//  533               zgDefaultChannelList = 0x00010000;
        MOV     DPTR,#__Constant_10000
        SJMP    ??Serial_callBack_30
//  534             }
//  535             if (buff[1] == 0x11 )
??Serial_callBack_35:
        MOVX    A,@DPTR
        XRL     A,#0x11
        JNZ     ??Serial_callBack_36
//  536             {
//  537               zgDefaultChannelList = 0x00020000;
        MOV     DPTR,#__Constant_20000
        SJMP    ??Serial_callBack_30
//  538             }
//  539             if (buff[1] == 0x12 )
??Serial_callBack_36:
        MOVX    A,@DPTR
        XRL     A,#0x12
        JNZ     ??Serial_callBack_37
//  540             {
//  541               zgDefaultChannelList = 0x00040000;
        MOV     DPTR,#__Constant_40000
        SJMP    ??Serial_callBack_30
//  542             }            
//  543             if (buff[1] == 0x13 )
??Serial_callBack_37:
        MOVX    A,@DPTR
        XRL     A,#0x13
        JNZ     ??Serial_callBack_38
//  544             {
//  545               zgDefaultChannelList = 0x00080000;
        MOV     DPTR,#__Constant_80000
        SJMP    ??Serial_callBack_30
//  546             }
//  547             if (buff[1] == 0x14 )
??Serial_callBack_38:
        MOVX    A,@DPTR
        XRL     A,#0x14
        JNZ     ??Serial_callBack_39
//  548             {
//  549               zgDefaultChannelList = 0x00100000;
        MOV     DPTR,#__Constant_100000
        SJMP    ??Serial_callBack_30
//  550             }
//  551             if (buff[1] == 0x15 )
??Serial_callBack_39:
        MOVX    A,@DPTR
        XRL     A,#0x15
        JNZ     ??Serial_callBack_40
//  552             {
//  553               zgDefaultChannelList = 0x00200000;
        MOV     DPTR,#__Constant_200000
        SJMP    ??Serial_callBack_30
//  554             }            
//  555             if (buff[1] == 0x16 )
??Serial_callBack_40:
        MOVX    A,@DPTR
        XRL     A,#0x16
        JNZ     ??Serial_callBack_41
//  556             {
//  557               zgDefaultChannelList = 0x00400000;
        MOV     DPTR,#__Constant_400000
        SJMP    ??Serial_callBack_30
//  558             }
//  559             if (buff[1] == 0x17 )
??Serial_callBack_41:
        MOVX    A,@DPTR
        XRL     A,#0x17
        JNZ     ??Serial_callBack_42
//  560             {
//  561               zgDefaultChannelList = 0x00800000;
        MOV     DPTR,#__Constant_800000
        SJMP    ??Serial_callBack_30
//  562             }
//  563             if (buff[1] == 0x18 )
??Serial_callBack_42:
        MOVX    A,@DPTR
        XRL     A,#0x18
        JNZ     ??Serial_callBack_43
//  564             {
//  565               zgDefaultChannelList = 0x01000000;
        MOV     DPTR,#__Constant_1000000
        SJMP    ??Serial_callBack_30
//  566             }
//  567 
//  568             if (buff[1] == 0x19 )
??Serial_callBack_43:
        MOVX    A,@DPTR
        XRL     A,#0x19
        JNZ     ??Serial_callBack_44
//  569             {
//  570               zgDefaultChannelList = 0x02000000;
        MOV     DPTR,#__Constant_2000000
        SJMP    ??Serial_callBack_30
//  571             }
//  572             if (buff[1] == 0x1a )
??Serial_callBack_44:
        MOVX    A,@DPTR
        XRL     A,#0x1a
        JNZ     ??Serial_callBack_45
//  573             {
//  574               zgDefaultChannelList = 0x04000000;
        MOV     DPTR,#__Constant_4000000
??Serial_callBack_30:
        LCALL   ?XLOAD_R2345
        MOV     DPTR,#zgDefaultChannelList
        LCALL   ?XSTORE_R2345
//  575             }
//  576             
//  577             osal_nv_write(  ZCD_NV_CHANLIST, 0 ,sizeof(zgDefaultChannelList), &zgDefaultChannelList);
??Serial_callBack_45:
        ; Setup parameters for call to function osal_nv_write
        MOV     R0,#?V0 + 2
        LCALL   ?PUSH_XSTACK_I_TWO
        CFI CFA_XSP16 add(XSP16, 88)
        MOV     ?V0 + 2,#0x4
        MOV     ?V0 + 3,#0x0
        MOV     R0,#?V0 + 2
        LCALL   ?PUSH_XSTACK_I_TWO
        CFI CFA_XSP16 add(XSP16, 90)
        MOV     R4,#0x0
        MOV     R5,#0x0
        MOV     R2,#-0x7c
        LCALL   ??Subroutine22_0 & 0xFFFF
??CrossCallReturnLabel_53:
        LCALL   ?DEALLOC_XSTACK8
        CFI CFA_XSP16 add(XSP16, 86)
//  578             
//  579             UART_Send_String( (uint8*)&zgDefaultChannelList, sizeof(zgDefaultChannelList) );
        ; Setup parameters for call to function UART_Send_String
        MOV     R4,#0x4
        MOV     R5,#0x0
        MOV     R2,#zgDefaultChannelList & 0xff
        MOV     R3,#(zgDefaultChannelList >> 8) & 0xff
??Serial_callBack_46:
        LCALL   ??UART_Send_String?relay
//  580 
//  581             /*
//  582             _NIB.nwkLogicalChannel = buff[1];
//  583             NLME_UpdateNV(0x01);
//  584             if( osal_nv_write(ZCD_NV_CHANLIST, 0, osal_nv_item_len( ZCD_NV_CHANLIST ), &tmp32) !=  ZSUCCESS)
//  585             {
//  586               uprint("change channel to nv failed");
//  587             }
//  588             */
//  589             /*
//  590             _NIB.nwkLogicalChannel = buff[1];
//  591             ZMacSetReq( ZMacChannel, &buff[1]);
//  592             ZDApp_NwkStateUpdateCB();
//  593             _NIB.nwkTotalTransmissions = 0;
//  594             nwkTransmissionFailures( TRUE );
//  595             */
//  596           }
//  597         }
//  598       }
//  599       if( readBytes == 3)
//  600       {
//  601 #if defined( ZDO_COORDINATOR )
//  602     // only coordinator can have this function
//  603       if( buff[0] == 0xCA || buff[0] == 0x6d)
//  604       {
//  605         // CA xx xx ,send CA to a node ,with it's short address
//  606         ///uprint("it's CA ");
//  607         short_ddr = BUILD_UINT16( buff[1], buff[2] );        
//  608         if(  SendData( short_ddr, buff, 1) == 0 )
//  609         {
//  610           SendData( short_ddr, buff, 1);
//  611         }
//  612         return;
//  613       }
//  614     
//  615 #endif 
//  616         if(buff[0] == 0xed)
//  617         {
//  618           if(buff[1] == 0xfa)
//  619           {
//  620             if(buff[2] == 0x01)
//  621             {
//  622               LED1 = 1;return;
//  623             }
//  624             if(buff[2] == 0x02)
//  625             {
//  626               LED2 = 1;return;
//  627             }
//  628           }
//  629           if(buff[1] ==0xff)
//  630           {
//  631             if(buff[2] == 0x01)
//  632             {
//  633               LED1 = 0;return;
//  634             }
//  635             if(buff[2] == 0x02)
//  636             {
//  637               LED2 = 0;return;
//  638             }
//  639           }
//  640           if(buff[1] == 0xfc)
//  641           {
//  642             if(buff[2]== 0x01)
//  643             {
//  644               LED1= !LED1;return;
//  645             }
//  646             if(buff[2] == 0x02)
//  647             {
//  648               LED2 = !LED2;return;
//  649             }
//  650           }
//  651           
//  652         }
//  653         
//  654         if(buff[0] == 0xdc)
//  655         {
//  656           if( buff[1] >= 0 && buff[1] <= 0x0f)
//  657           {
//  658             switch (buff[2])
//  659             {
//  660             case 8:
//  661               UART_Send_String( (uint8*)HalAdcRead ( buff[1], HAL_ADC_RESOLUTION_8), 2);
//  662               break;
//  663             case 10:
//  664               UART_Send_String( (uint8*)HalAdcRead ( buff[1], HAL_ADC_RESOLUTION_10), 2);
//  665               break;
//  666             case 12:
//  667               UART_Send_String( (uint8*)HalAdcRead ( buff[1], HAL_ADC_RESOLUTION_12), 2);
//  668               break;
//  669             case 14:
//  670               UART_Send_String( (uint8*)HalAdcRead ( buff[1], HAL_ADC_RESOLUTION_14), 2);
//  671               break;
//  672             default:
//  673               UART_Send_String( (uint8*)HalAdcRead ( buff[1], 0), 2);
//  674               break;
//  675             }
//  676           }
//  677         }
//  678         
//  679       }
//  680       
//  681       
//  682       if( readBytes == 4)
//  683       {
//  684         if( strstr( buff,"type") )
//  685         {
//  686           switch(zgDeviceLogicalType)
//  687           {
//  688           case ZG_DEVICETYPE_COORDINATOR:
//  689             uprint("Coordi");
//  690             break;
//  691           case ZG_DEVICETYPE_ROUTER:
//  692             uprint("Router");
//  693             break;
//  694           case ZG_DEVICETYPE_ENDDEVICE:
//  695             uprint("Enddev");
//  696             break;
//  697           default:
//  698             uprint("Unknow");
//  699             break;
//  700 
//  701           } 
//  702         }
//  703         
//  704         if(buff[0] == 'p' && buff[1] == 'i' && buff[2]=='n' && buff[3] == 'g')
//  705         {
//  706             uprint("pong");
//  707         }
//  708       
//  709       }
//  710       
//  711       if( readBytes == 6)
//  712       {
//  713         if( strstr( buff,"reboot") )
//  714         {
//  715           SystemReset();
//  716         }
//  717       }
//  718       
//  719       if(buff[0] == 0xd8 ) // d8 xx xx i o t ,etc,d8 xx xx ed f[a,c,f] 01
??Serial_callBack_28:
        MOV     A,#0x2
        LCALL   ?XSTACK_DISP0_8
        MOVX    A,@DPTR
        XRL     A,#0xd8
        JNZ     ??Serial_callBack_0
//  720       {
//  721           //short_ddr = BUILD_UINT16(buff[1],buff[2]);
//  722          // if(short_ddr != 0x0000)
//  723           //{
//  724             SendData( BUILD_UINT16(buff[1],buff[2]), &buff[3], readBytes - 3);
        ; Setup parameters for call to function SendData
        MOV     A,#-0x3
        ADD     A,?V0 + 0
        MOV     R1,A
        MOV     A,#0x5
        LCALL   ?XSTACK_DISP0_8
        MOV     R4,DPL
        MOV     R5,DPH
        MOV     A,#0x3
        LCALL   ?XSTACK_DISP0_8
        MOVX    A,@DPTR
        MOV     R6,A
        MOV     A,#0x4
        LCALL   ?XSTACK_DISP0_8
        MOVX    A,@DPTR
        MOV     R3,A
        MOV     A,R6
        MOV     R2,A
??Serial_callBack_47:
        LCALL   ??SendData?relay
//  725           //}else
//  726           //{
//  727             // send to myself
//  728           //}
//  729             return;
??Serial_callBack_0:
        MOV     A,#0x46
        LCALL   ?DEALLOC_XSTACK8
        CFI CFA_XSP16 add(XSP16, 16)
        MOV     R7,#0x8
        LJMP    ?BANKED_LEAVE_XDATA
        CFI CFA_XSP16 add(XSP16, 86)
//  730       }
??Serial_callBack_27:
        MOV     A,#0x3
        XRL     A,?V0 + 0
        JZ      $+5
        LJMP    ??Serial_callBack_48 & 0xFFFF
        MOV     A,#0x2
        LCALL   ?XSTACK_DISP0_8
        MOVX    A,@DPTR
        XRL     A,#0xca
        JZ      ??Serial_callBack_49
        MOVX    A,@DPTR
        XRL     A,#0x6d
        JNZ     ??Serial_callBack_50
??Serial_callBack_49:
        MOV     A,#0x3
        LCALL   ?XSTACK_DISP0_8
        MOVX    A,@DPTR
        MOV     R2,A
        MOV     A,#0x4
        LCALL   ?XSTACK_DISP0_8
        MOVX    A,@DPTR
        MOV     R1,A
        MOV     A,R2
        MOV     DPTR,#short_ddr
        LCALL   ??Subroutine21_0 & 0xFFFF
??CrossCallReturnLabel_45:
        ; Setup parameters for call to function SendData
        MOV     R1,#0x1
        MOV     A,#0x2
        LCALL   ?XSTACK_DISP0_8
        MOV     R4,DPL
        MOV     R5,DPH
        MOV     DPTR,#short_ddr + 1
        MOVX    A,@DPTR
        MOV     R3,A
        LCALL   ??SendData?relay
        MOV     A,R1
        JNZ     ??Serial_callBack_0
        ; Setup parameters for call to function SendData
        MOV     R1,#0x1
        MOV     A,#0x2
        LCALL   ?XSTACK_DISP0_8
        MOV     R4,DPL
        MOV     R5,DPH
        MOV     DPTR,#short_ddr
        MOVX    A,@DPTR
        MOV     R2,A
        INC     DPTR
        MOVX    A,@DPTR
        MOV     R3,A
        SJMP    ??Serial_callBack_47
??Serial_callBack_50:
        MOVX    A,@DPTR
        XRL     A,#0xed
        JNZ     ??Serial_callBack_51
        MOV     A,#0x3
        LCALL   ?XSTACK_DISP0_8
        MOVX    A,@DPTR
        XRL     A,#0xfa
        JNZ     ??Serial_callBack_52
        MOV     A,#0x4
        LCALL   ?XSTACK_DISP0_8
        MOVX    A,@DPTR
        XRL     A,#0x1
        JNZ     ??Serial_callBack_53
        SETB    0x90.0
        SJMP    ??Serial_callBack_0
??Serial_callBack_53:
        MOVX    A,@DPTR
        XRL     A,#0x2
        JZ      $+5
        LJMP    ??Serial_callBack_0 & 0xFFFF
        SETB    0x90.1
        LJMP    ??Serial_callBack_0 & 0xFFFF
??Serial_callBack_52:
        MOVX    A,@DPTR
        CPL     A
        JNZ     ??Serial_callBack_54
        MOV     A,#0x4
        LCALL   ?XSTACK_DISP0_8
        MOVX    A,@DPTR
        XRL     A,#0x1
        JNZ     ??Serial_callBack_55
        CLR     0x90.0
        LJMP    ??Serial_callBack_0 & 0xFFFF
??Serial_callBack_55:
        MOVX    A,@DPTR
        XRL     A,#0x2
        JZ      $+5
        LJMP    ??Serial_callBack_0 & 0xFFFF
        CLR     0x90.1
        LJMP    ??Serial_callBack_0 & 0xFFFF
??Serial_callBack_54:
        MOVX    A,@DPTR
        XRL     A,#0xfc
        JZ      $+5
        LJMP    ??Serial_callBack_0 & 0xFFFF
        MOV     A,#0x4
        LCALL   ?XSTACK_DISP0_8
        MOVX    A,@DPTR
        XRL     A,#0x1
        JNZ     ??Serial_callBack_56
        SETB    B.0
        MOV     C,0x90.0
        JNB     B.0,??Serial_callBack_57
        CPL     C
??Serial_callBack_57:
        MOV     0x90.0,C
        LJMP    ??Serial_callBack_0 & 0xFFFF
??Serial_callBack_56:
        MOVX    A,@DPTR
        XRL     A,#0x2
        JZ      $+5
        LJMP    ??Serial_callBack_0 & 0xFFFF
        SETB    B.0
        MOV     C,0x90.1
        JNB     B.0,??Serial_callBack_58
        CPL     C
??Serial_callBack_58:
        MOV     0x90.1,C
        LJMP    ??Serial_callBack_0 & 0xFFFF
??Serial_callBack_51:
        MOVX    A,@DPTR
        XRL     A,#0xdc
        JZ      $+5
        LJMP    ??Serial_callBack_28 & 0xFFFF
        MOV     A,#0x3
        LCALL   ?XSTACK_DISP0_8
        MOVX    A,@DPTR
        CLR     C
        SUBB    A,#0x10
        JC      $+5
        LJMP    ??Serial_callBack_0 & 0xFFFF
        MOV     A,#0x4
        LCALL   ?XSTACK_DISP0_8
        MOVX    A,@DPTR
        ADD     A,#-0x8
        JZ      ??Serial_callBack_59
        ADD     A,#-0x2
        JZ      ??Serial_callBack_60
        ADD     A,#-0x2
        JZ      ??Serial_callBack_61
        ADD     A,#-0x2
        JZ      ??Serial_callBack_62
        SJMP    ??Serial_callBack_63
??Serial_callBack_59:
        ; Setup parameters for call to function UART_Send_String
        ; Setup parameters for call to function HalAdcRead
        MOV     R2,#0x1
??Serial_callBack_64:
        MOV     A,#0x3
??Serial_callBack_65:
        LCALL   ?XSTACK_DISP0_8
        MOVX    A,@DPTR
        MOV     R1,A
        LCALL   ??HalAdcRead?relay
        MOV     R4,#0x2
        MOV     R5,#0x0
        LJMP    ??Serial_callBack_46 & 0xFFFF
??Serial_callBack_60:
        ; Setup parameters for call to function UART_Send_String
        ; Setup parameters for call to function HalAdcRead
        MOV     R2,#0x2
        SJMP    ??Serial_callBack_64
??Serial_callBack_61:
        ; Setup parameters for call to function UART_Send_String
        ; Setup parameters for call to function HalAdcRead
        MOV     R2,#0x3
        MOV     A,R2
        SJMP    ??Serial_callBack_65
??Serial_callBack_62:
        ; Setup parameters for call to function UART_Send_String
        ; Setup parameters for call to function HalAdcRead
        MOV     R2,#0x4
        SJMP    ??Serial_callBack_64
??Serial_callBack_63:
        ; Setup parameters for call to function UART_Send_String
        ; Setup parameters for call to function HalAdcRead
        MOV     R2,#0x0
        SJMP    ??Serial_callBack_64
??Serial_callBack_48:
        MOV     A,#0x4
        XRL     A,?V0 + 0
        JNZ     ??Serial_callBack_66
        ; Setup parameters for call to function strstr
        MOV     R4,#`?<Constant "type">` & 0xff
        MOV     R5,#(`?<Constant "type">` >> 8) & 0xff
        MOV     A,#0x2
        LCALL   ?XSTACK_DISP0_8
        LCALL   ?Subroutine12 & 0xFFFF
??CrossCallReturnLabel_26:
        JZ      ??Serial_callBack_67
        MOV     DPTR,#zgDeviceLogicalType
        MOVX    A,@DPTR
        JZ      ??Serial_callBack_68
        DEC     A
        JZ      ??Serial_callBack_69
        DEC     A
        JZ      ??Serial_callBack_70
        SJMP    ??Serial_callBack_71
??Serial_callBack_68:
        ; Setup parameters for call to function uprint
        MOV     R2,#`?<Constant "Coordi">` & 0xff
        MOV     R3,#(`?<Constant "Coordi">` >> 8) & 0xff
        SJMP    ??Serial_callBack_72
??Serial_callBack_69:
        ; Setup parameters for call to function uprint
        MOV     R2,#`?<Constant "Router">` & 0xff
        MOV     R3,#(`?<Constant "Router">` >> 8) & 0xff
        SJMP    ??Serial_callBack_72
??Serial_callBack_70:
        ; Setup parameters for call to function uprint
        MOV     R2,#`?<Constant "Enddev">` & 0xff
        MOV     R3,#(`?<Constant "Enddev">` >> 8) & 0xff
        SJMP    ??Serial_callBack_72
??Serial_callBack_71:
        ; Setup parameters for call to function uprint
        MOV     R2,#`?<Constant "Unknow">` & 0xff
        MOV     R3,#(`?<Constant "Unknow">` >> 8) & 0xff
??Serial_callBack_72:
        LCALL   ??uprint?relay
??Serial_callBack_67:
        MOV     A,#0x2
        LCALL   ?XSTACK_DISP0_8
        MOVX    A,@DPTR
        XRL     A,#0x70
        JZ      $+5
        LJMP    ??Serial_callBack_28 & 0xFFFF
        MOV     A,#0x3
        LCALL   ?XSTACK_DISP0_8
        MOVX    A,@DPTR
        XRL     A,#0x69
        JZ      $+5
        LJMP    ??Serial_callBack_0 & 0xFFFF
        MOV     A,#0x4
        LCALL   ?XSTACK_DISP0_8
        MOVX    A,@DPTR
        XRL     A,#0x6e
        JZ      $+5
        LJMP    ??Serial_callBack_0 & 0xFFFF
        MOV     A,#0x5
        LCALL   ?XSTACK_DISP0_8
        MOVX    A,@DPTR
        XRL     A,#0x67
        JZ      $+5
        LJMP    ??Serial_callBack_0 & 0xFFFF
        ; Setup parameters for call to function uprint
        MOV     R2,#`?<Constant "pong">` & 0xff
        MOV     R3,#(`?<Constant "pong">` >> 8) & 0xff
        LCALL   ??uprint?relay
        LJMP    ??Serial_callBack_28 & 0xFFFF
??Serial_callBack_66:
        MOV     A,#0x6
        XRL     A,?V0 + 0
        JZ      $+5
        LJMP    ??Serial_callBack_28 & 0xFFFF
        ; Setup parameters for call to function strstr
        MOV     R4,#`?<Constant "reboot">` & 0xff
        MOV     R5,#(`?<Constant "reboot">` >> 8) & 0xff
        MOV     A,#0x2
        LCALL   ?XSTACK_DISP0_8
        LCALL   ?Subroutine12 & 0xFFFF
??CrossCallReturnLabel_27:
        JNZ     $+5
        LJMP    ??Serial_callBack_28 & 0xFFFF
        CLR     0xa8.7
        CLR     0xa8.7
        MOV     0xc9,#-0x55
        MOV     0xc9,#0x5b
??Serial_callBack_73:
        SJMP    ??Serial_callBack_73
        CFI EndBlock cfiBlock11
        REQUIRE _A_IEN0
        REQUIRE WDCTL
        REQUIRE _A_P1
//  731       
//  732     }
//  733 
//  734     
//  735  //   UART_Send_String(buff, readBytes);
//  736     
//  737   //short_ddr = GenericApp_DstAddr.addr.shortAddr;
//  738 //  short_ddr = NLME_GetShortAddr();
//  739     
//  740 /*
//  741     AF_DataRequest( &GenericApp_DstAddr, &GenericApp_epDesc,
//  742                        GENERICAPP_CLUSTERID,
//  743                        readBytes,
//  744                        (byte *)&buff,
//  745                        &GenericApp_TransID,
//  746                        AF_DISCV_ROUTE, AF_DEFAULT_RADIUS );    
//  747     */
//  748 
//  749     
//  750   }  
//  751 }

        RSEG BANKED_CODE:CODE:NOROOT(0)
?Subroutine16:
        CFI Block cfiCond12 Using cfiCommon0
        CFI NoFunction
        CFI Conditional ??CrossCallReturnLabel_32
        CFI R6 load(1, XDATA, add(CFA_XSP16, literal(-16)))
        CFI VB load(1, XDATA, add(CFA_XSP16, literal(-15)))
        CFI V0 load(1, XDATA, add(CFA_XSP16, literal(-14)))
        CFI V1 load(1, XDATA, add(CFA_XSP16, literal(-13)))
        CFI V2 load(1, XDATA, add(CFA_XSP16, literal(-12)))
        CFI V3 load(1, XDATA, add(CFA_XSP16, literal(-11)))
        CFI V4 load(1, XDATA, add(CFA_XSP16, literal(-10)))
        CFI V5 load(1, XDATA, add(CFA_XSP16, literal(-9)))
        CFI V6 load(1, XDATA, add(CFA_XSP16, literal(-8)))
        CFI V7 load(1, XDATA, add(CFA_XSP16, literal(-7)))
        CFI R7 load(1, XDATA, add(CFA_XSP16, literal(-6)))
        CFI ?RET_LOW load(1, XDATA, add(CFA_XSP16, literal(-5)))
        CFI ?RET_HIGH load(1, XDATA, add(CFA_XSP16, literal(-4)))
        CFI ?BRET_EXT load(1, XDATA, add(CFA_XSP16, literal(-3)))
        CFI DPL0 load(1, XDATA, add(CFA_XSP16, literal(-2)))
        CFI DPH0 load(1, XDATA, add(CFA_XSP16, literal(-1)))
        CFI CFA_SP SP+0
        CFI CFA_XSP16 add(XSP16, 88)
        CFI Block cfiCond13 Using cfiCommon0
        CFI (cfiCond13) NoFunction
        CFI (cfiCond13) Conditional ??CrossCallReturnLabel_33
        CFI (cfiCond13) R6 load(1, XDATA, add(CFA_XSP16, literal(-16)))
        CFI (cfiCond13) VB load(1, XDATA, add(CFA_XSP16, literal(-15)))
        CFI (cfiCond13) V0 load(1, XDATA, add(CFA_XSP16, literal(-14)))
        CFI (cfiCond13) V1 load(1, XDATA, add(CFA_XSP16, literal(-13)))
        CFI (cfiCond13) V2 load(1, XDATA, add(CFA_XSP16, literal(-12)))
        CFI (cfiCond13) V3 load(1, XDATA, add(CFA_XSP16, literal(-11)))
        CFI (cfiCond13) V4 load(1, XDATA, add(CFA_XSP16, literal(-10)))
        CFI (cfiCond13) V5 load(1, XDATA, add(CFA_XSP16, literal(-9)))
        CFI (cfiCond13) V6 load(1, XDATA, add(CFA_XSP16, literal(-8)))
        CFI (cfiCond13) V7 load(1, XDATA, add(CFA_XSP16, literal(-7)))
        CFI (cfiCond13) R7 load(1, XDATA, add(CFA_XSP16, literal(-6)))
        CFI (cfiCond13) ?RET_LOW load(1, XDATA, add(CFA_XSP16, literal(-5)))
        CFI (cfiCond13) ?RET_HIGH load(1, XDATA, add(CFA_XSP16, literal(-4)))
        CFI (cfiCond13) ?BRET_EXT load(1, XDATA, add(CFA_XSP16, literal(-3)))
        CFI (cfiCond13) DPL0 load(1, XDATA, add(CFA_XSP16, literal(-2)))
        CFI (cfiCond13) DPH0 load(1, XDATA, add(CFA_XSP16, literal(-1)))
        CFI (cfiCond13) CFA_SP SP+0
        CFI (cfiCond13) CFA_XSP16 add(XSP16, 88)
        CFI Block cfiCond14 Using cfiCommon0
        CFI (cfiCond14) NoFunction
        CFI (cfiCond14) Conditional ??CrossCallReturnLabel_34
        CFI (cfiCond14) R6 load(1, XDATA, add(CFA_XSP16, literal(-16)))
        CFI (cfiCond14) VB load(1, XDATA, add(CFA_XSP16, literal(-15)))
        CFI (cfiCond14) V0 load(1, XDATA, add(CFA_XSP16, literal(-14)))
        CFI (cfiCond14) V1 load(1, XDATA, add(CFA_XSP16, literal(-13)))
        CFI (cfiCond14) V2 load(1, XDATA, add(CFA_XSP16, literal(-12)))
        CFI (cfiCond14) V3 load(1, XDATA, add(CFA_XSP16, literal(-11)))
        CFI (cfiCond14) V4 load(1, XDATA, add(CFA_XSP16, literal(-10)))
        CFI (cfiCond14) V5 load(1, XDATA, add(CFA_XSP16, literal(-9)))
        CFI (cfiCond14) V6 load(1, XDATA, add(CFA_XSP16, literal(-8)))
        CFI (cfiCond14) V7 load(1, XDATA, add(CFA_XSP16, literal(-7)))
        CFI (cfiCond14) R7 load(1, XDATA, add(CFA_XSP16, literal(-6)))
        CFI (cfiCond14) ?RET_LOW load(1, XDATA, add(CFA_XSP16, literal(-5)))
        CFI (cfiCond14) ?RET_HIGH load(1, XDATA, add(CFA_XSP16, literal(-4)))
        CFI (cfiCond14) ?BRET_EXT load(1, XDATA, add(CFA_XSP16, literal(-3)))
        CFI (cfiCond14) DPL0 load(1, XDATA, add(CFA_XSP16, literal(-2)))
        CFI (cfiCond14) DPH0 load(1, XDATA, add(CFA_XSP16, literal(-1)))
        CFI (cfiCond14) CFA_SP SP+0
        CFI (cfiCond14) CFA_XSP16 add(XSP16, 88)
        CFI Block cfiCond15 Using cfiCommon0
        CFI (cfiCond15) NoFunction
        CFI (cfiCond15) Conditional ??CrossCallReturnLabel_35
        CFI (cfiCond15) R6 load(1, XDATA, add(CFA_XSP16, literal(-16)))
        CFI (cfiCond15) VB load(1, XDATA, add(CFA_XSP16, literal(-15)))
        CFI (cfiCond15) V0 load(1, XDATA, add(CFA_XSP16, literal(-14)))
        CFI (cfiCond15) V1 load(1, XDATA, add(CFA_XSP16, literal(-13)))
        CFI (cfiCond15) V2 load(1, XDATA, add(CFA_XSP16, literal(-12)))
        CFI (cfiCond15) V3 load(1, XDATA, add(CFA_XSP16, literal(-11)))
        CFI (cfiCond15) V4 load(1, XDATA, add(CFA_XSP16, literal(-10)))
        CFI (cfiCond15) V5 load(1, XDATA, add(CFA_XSP16, literal(-9)))
        CFI (cfiCond15) V6 load(1, XDATA, add(CFA_XSP16, literal(-8)))
        CFI (cfiCond15) V7 load(1, XDATA, add(CFA_XSP16, literal(-7)))
        CFI (cfiCond15) R7 load(1, XDATA, add(CFA_XSP16, literal(-6)))
        CFI (cfiCond15) ?RET_LOW load(1, XDATA, add(CFA_XSP16, literal(-5)))
        CFI (cfiCond15) ?RET_HIGH load(1, XDATA, add(CFA_XSP16, literal(-4)))
        CFI (cfiCond15) ?BRET_EXT load(1, XDATA, add(CFA_XSP16, literal(-3)))
        CFI (cfiCond15) DPL0 load(1, XDATA, add(CFA_XSP16, literal(-2)))
        CFI (cfiCond15) DPH0 load(1, XDATA, add(CFA_XSP16, literal(-1)))
        CFI (cfiCond15) CFA_SP SP+0
        CFI (cfiCond15) CFA_XSP16 add(XSP16, 88)
        CFI Block cfiPicker16 Using cfiCommon1
        CFI (cfiPicker16) NoFunction
        CFI (cfiPicker16) Picker
        MOV     R2,DPL
        MOV     R3,DPH
        LCALL   ??strtol?relay
        MOV     A,#0x2
        RET
        CFI EndBlock cfiCond12
        CFI EndBlock cfiCond13
        CFI EndBlock cfiCond14
        CFI EndBlock cfiCond15
        CFI EndBlock cfiPicker16

        RSEG BANKED_CODE:CODE:NOROOT(0)
?Subroutine15:
        CFI Block cfiCond17 Using cfiCommon0
        CFI NoFunction
        CFI Conditional ??CrossCallReturnLabel_28
        CFI R6 load(1, XDATA, add(CFA_XSP16, literal(-16)))
        CFI VB load(1, XDATA, add(CFA_XSP16, literal(-15)))
        CFI V0 load(1, XDATA, add(CFA_XSP16, literal(-14)))
        CFI V1 load(1, XDATA, add(CFA_XSP16, literal(-13)))
        CFI V2 load(1, XDATA, add(CFA_XSP16, literal(-12)))
        CFI V3 load(1, XDATA, add(CFA_XSP16, literal(-11)))
        CFI V4 load(1, XDATA, add(CFA_XSP16, literal(-10)))
        CFI V5 load(1, XDATA, add(CFA_XSP16, literal(-9)))
        CFI V6 load(1, XDATA, add(CFA_XSP16, literal(-8)))
        CFI V7 load(1, XDATA, add(CFA_XSP16, literal(-7)))
        CFI R7 load(1, XDATA, add(CFA_XSP16, literal(-6)))
        CFI ?RET_LOW load(1, XDATA, add(CFA_XSP16, literal(-5)))
        CFI ?RET_HIGH load(1, XDATA, add(CFA_XSP16, literal(-4)))
        CFI ?BRET_EXT load(1, XDATA, add(CFA_XSP16, literal(-3)))
        CFI DPL0 load(1, XDATA, add(CFA_XSP16, literal(-2)))
        CFI DPH0 load(1, XDATA, add(CFA_XSP16, literal(-1)))
        CFI CFA_SP SP+0
        CFI CFA_XSP16 add(XSP16, 88)
        CFI Block cfiCond18 Using cfiCommon0
        CFI (cfiCond18) NoFunction
        CFI (cfiCond18) Conditional ??CrossCallReturnLabel_29
        CFI (cfiCond18) R6 load(1, XDATA, add(CFA_XSP16, literal(-16)))
        CFI (cfiCond18) VB load(1, XDATA, add(CFA_XSP16, literal(-15)))
        CFI (cfiCond18) V0 load(1, XDATA, add(CFA_XSP16, literal(-14)))
        CFI (cfiCond18) V1 load(1, XDATA, add(CFA_XSP16, literal(-13)))
        CFI (cfiCond18) V2 load(1, XDATA, add(CFA_XSP16, literal(-12)))
        CFI (cfiCond18) V3 load(1, XDATA, add(CFA_XSP16, literal(-11)))
        CFI (cfiCond18) V4 load(1, XDATA, add(CFA_XSP16, literal(-10)))
        CFI (cfiCond18) V5 load(1, XDATA, add(CFA_XSP16, literal(-9)))
        CFI (cfiCond18) V6 load(1, XDATA, add(CFA_XSP16, literal(-8)))
        CFI (cfiCond18) V7 load(1, XDATA, add(CFA_XSP16, literal(-7)))
        CFI (cfiCond18) R7 load(1, XDATA, add(CFA_XSP16, literal(-6)))
        CFI (cfiCond18) ?RET_LOW load(1, XDATA, add(CFA_XSP16, literal(-5)))
        CFI (cfiCond18) ?RET_HIGH load(1, XDATA, add(CFA_XSP16, literal(-4)))
        CFI (cfiCond18) ?BRET_EXT load(1, XDATA, add(CFA_XSP16, literal(-3)))
        CFI (cfiCond18) DPL0 load(1, XDATA, add(CFA_XSP16, literal(-2)))
        CFI (cfiCond18) DPH0 load(1, XDATA, add(CFA_XSP16, literal(-1)))
        CFI (cfiCond18) CFA_SP SP+0
        CFI (cfiCond18) CFA_XSP16 add(XSP16, 88)
        CFI Block cfiCond19 Using cfiCommon0
        CFI (cfiCond19) NoFunction
        CFI (cfiCond19) Conditional ??CrossCallReturnLabel_30
        CFI (cfiCond19) R6 load(1, XDATA, add(CFA_XSP16, literal(-16)))
        CFI (cfiCond19) VB load(1, XDATA, add(CFA_XSP16, literal(-15)))
        CFI (cfiCond19) V0 load(1, XDATA, add(CFA_XSP16, literal(-14)))
        CFI (cfiCond19) V1 load(1, XDATA, add(CFA_XSP16, literal(-13)))
        CFI (cfiCond19) V2 load(1, XDATA, add(CFA_XSP16, literal(-12)))
        CFI (cfiCond19) V3 load(1, XDATA, add(CFA_XSP16, literal(-11)))
        CFI (cfiCond19) V4 load(1, XDATA, add(CFA_XSP16, literal(-10)))
        CFI (cfiCond19) V5 load(1, XDATA, add(CFA_XSP16, literal(-9)))
        CFI (cfiCond19) V6 load(1, XDATA, add(CFA_XSP16, literal(-8)))
        CFI (cfiCond19) V7 load(1, XDATA, add(CFA_XSP16, literal(-7)))
        CFI (cfiCond19) R7 load(1, XDATA, add(CFA_XSP16, literal(-6)))
        CFI (cfiCond19) ?RET_LOW load(1, XDATA, add(CFA_XSP16, literal(-5)))
        CFI (cfiCond19) ?RET_HIGH load(1, XDATA, add(CFA_XSP16, literal(-4)))
        CFI (cfiCond19) ?BRET_EXT load(1, XDATA, add(CFA_XSP16, literal(-3)))
        CFI (cfiCond19) DPL0 load(1, XDATA, add(CFA_XSP16, literal(-2)))
        CFI (cfiCond19) DPH0 load(1, XDATA, add(CFA_XSP16, literal(-1)))
        CFI (cfiCond19) CFA_SP SP+0
        CFI (cfiCond19) CFA_XSP16 add(XSP16, 88)
        CFI Block cfiCond20 Using cfiCommon0
        CFI (cfiCond20) NoFunction
        CFI (cfiCond20) Conditional ??CrossCallReturnLabel_31
        CFI (cfiCond20) R6 load(1, XDATA, add(CFA_XSP16, literal(-16)))
        CFI (cfiCond20) VB load(1, XDATA, add(CFA_XSP16, literal(-15)))
        CFI (cfiCond20) V0 load(1, XDATA, add(CFA_XSP16, literal(-14)))
        CFI (cfiCond20) V1 load(1, XDATA, add(CFA_XSP16, literal(-13)))
        CFI (cfiCond20) V2 load(1, XDATA, add(CFA_XSP16, literal(-12)))
        CFI (cfiCond20) V3 load(1, XDATA, add(CFA_XSP16, literal(-11)))
        CFI (cfiCond20) V4 load(1, XDATA, add(CFA_XSP16, literal(-10)))
        CFI (cfiCond20) V5 load(1, XDATA, add(CFA_XSP16, literal(-9)))
        CFI (cfiCond20) V6 load(1, XDATA, add(CFA_XSP16, literal(-8)))
        CFI (cfiCond20) V7 load(1, XDATA, add(CFA_XSP16, literal(-7)))
        CFI (cfiCond20) R7 load(1, XDATA, add(CFA_XSP16, literal(-6)))
        CFI (cfiCond20) ?RET_LOW load(1, XDATA, add(CFA_XSP16, literal(-5)))
        CFI (cfiCond20) ?RET_HIGH load(1, XDATA, add(CFA_XSP16, literal(-4)))
        CFI (cfiCond20) ?BRET_EXT load(1, XDATA, add(CFA_XSP16, literal(-3)))
        CFI (cfiCond20) DPL0 load(1, XDATA, add(CFA_XSP16, literal(-2)))
        CFI (cfiCond20) DPH0 load(1, XDATA, add(CFA_XSP16, literal(-1)))
        CFI (cfiCond20) CFA_SP SP+0
        CFI (cfiCond20) CFA_XSP16 add(XSP16, 88)
        CFI Block cfiPicker21 Using cfiCommon1
        CFI (cfiPicker21) NoFunction
        CFI (cfiPicker21) Picker
        MOV     R2,DPL
        MOV     R3,DPH
        LCALL   ??strncpy?relay
        MOV     A,#0x2
        RET
        CFI EndBlock cfiCond17
        CFI EndBlock cfiCond18
        CFI EndBlock cfiCond19
        CFI EndBlock cfiCond20
        CFI EndBlock cfiPicker21

        RSEG BANKED_CODE:CODE:NOROOT(0)
?Subroutine14:
        CFI Block cfiCond22 Using cfiCommon0
        CFI NoFunction
        CFI Conditional ??CrossCallReturnLabel_40
        CFI R6 load(1, XDATA, add(CFA_XSP16, literal(-16)))
        CFI VB load(1, XDATA, add(CFA_XSP16, literal(-15)))
        CFI V0 load(1, XDATA, add(CFA_XSP16, literal(-14)))
        CFI V1 load(1, XDATA, add(CFA_XSP16, literal(-13)))
        CFI V2 load(1, XDATA, add(CFA_XSP16, literal(-12)))
        CFI V3 load(1, XDATA, add(CFA_XSP16, literal(-11)))
        CFI V4 load(1, XDATA, add(CFA_XSP16, literal(-10)))
        CFI V5 load(1, XDATA, add(CFA_XSP16, literal(-9)))
        CFI V6 load(1, XDATA, add(CFA_XSP16, literal(-8)))
        CFI V7 load(1, XDATA, add(CFA_XSP16, literal(-7)))
        CFI R7 load(1, XDATA, add(CFA_XSP16, literal(-6)))
        CFI ?RET_LOW load(1, XDATA, add(CFA_XSP16, literal(-5)))
        CFI ?RET_HIGH load(1, XDATA, add(CFA_XSP16, literal(-4)))
        CFI ?BRET_EXT load(1, XDATA, add(CFA_XSP16, literal(-3)))
        CFI DPL0 load(1, XDATA, add(CFA_XSP16, literal(-2)))
        CFI DPH0 load(1, XDATA, add(CFA_XSP16, literal(-1)))
        CFI CFA_SP SP+0
        CFI CFA_XSP16 add(XSP16, 88)
        CFI Block cfiCond23 Using cfiCommon0
        CFI (cfiCond23) NoFunction
        CFI (cfiCond23) Conditional ??CrossCallReturnLabel_41
        CFI (cfiCond23) R6 load(1, XDATA, add(CFA_XSP16, literal(-16)))
        CFI (cfiCond23) VB load(1, XDATA, add(CFA_XSP16, literal(-15)))
        CFI (cfiCond23) V0 load(1, XDATA, add(CFA_XSP16, literal(-14)))
        CFI (cfiCond23) V1 load(1, XDATA, add(CFA_XSP16, literal(-13)))
        CFI (cfiCond23) V2 load(1, XDATA, add(CFA_XSP16, literal(-12)))
        CFI (cfiCond23) V3 load(1, XDATA, add(CFA_XSP16, literal(-11)))
        CFI (cfiCond23) V4 load(1, XDATA, add(CFA_XSP16, literal(-10)))
        CFI (cfiCond23) V5 load(1, XDATA, add(CFA_XSP16, literal(-9)))
        CFI (cfiCond23) V6 load(1, XDATA, add(CFA_XSP16, literal(-8)))
        CFI (cfiCond23) V7 load(1, XDATA, add(CFA_XSP16, literal(-7)))
        CFI (cfiCond23) R7 load(1, XDATA, add(CFA_XSP16, literal(-6)))
        CFI (cfiCond23) ?RET_LOW load(1, XDATA, add(CFA_XSP16, literal(-5)))
        CFI (cfiCond23) ?RET_HIGH load(1, XDATA, add(CFA_XSP16, literal(-4)))
        CFI (cfiCond23) ?BRET_EXT load(1, XDATA, add(CFA_XSP16, literal(-3)))
        CFI (cfiCond23) DPL0 load(1, XDATA, add(CFA_XSP16, literal(-2)))
        CFI (cfiCond23) DPH0 load(1, XDATA, add(CFA_XSP16, literal(-1)))
        CFI (cfiCond23) CFA_SP SP+0
        CFI (cfiCond23) CFA_XSP16 add(XSP16, 88)
        CFI Block cfiCond24 Using cfiCommon0
        CFI (cfiCond24) NoFunction
        CFI (cfiCond24) Conditional ??CrossCallReturnLabel_42
        CFI (cfiCond24) R6 load(1, XDATA, add(CFA_XSP16, literal(-16)))
        CFI (cfiCond24) VB load(1, XDATA, add(CFA_XSP16, literal(-15)))
        CFI (cfiCond24) V0 load(1, XDATA, add(CFA_XSP16, literal(-14)))
        CFI (cfiCond24) V1 load(1, XDATA, add(CFA_XSP16, literal(-13)))
        CFI (cfiCond24) V2 load(1, XDATA, add(CFA_XSP16, literal(-12)))
        CFI (cfiCond24) V3 load(1, XDATA, add(CFA_XSP16, literal(-11)))
        CFI (cfiCond24) V4 load(1, XDATA, add(CFA_XSP16, literal(-10)))
        CFI (cfiCond24) V5 load(1, XDATA, add(CFA_XSP16, literal(-9)))
        CFI (cfiCond24) V6 load(1, XDATA, add(CFA_XSP16, literal(-8)))
        CFI (cfiCond24) V7 load(1, XDATA, add(CFA_XSP16, literal(-7)))
        CFI (cfiCond24) R7 load(1, XDATA, add(CFA_XSP16, literal(-6)))
        CFI (cfiCond24) ?RET_LOW load(1, XDATA, add(CFA_XSP16, literal(-5)))
        CFI (cfiCond24) ?RET_HIGH load(1, XDATA, add(CFA_XSP16, literal(-4)))
        CFI (cfiCond24) ?BRET_EXT load(1, XDATA, add(CFA_XSP16, literal(-3)))
        CFI (cfiCond24) DPL0 load(1, XDATA, add(CFA_XSP16, literal(-2)))
        CFI (cfiCond24) DPH0 load(1, XDATA, add(CFA_XSP16, literal(-1)))
        CFI (cfiCond24) CFA_SP SP+0
        CFI (cfiCond24) CFA_XSP16 add(XSP16, 88)
        CFI Block cfiPicker25 Using cfiCommon1
        CFI (cfiPicker25) NoFunction
        CFI (cfiPicker25) Picker
        MOV     R4,#0x1
        MOV     R5,#0x0
        MOV     R2,#-0x79
        CFI EndBlock cfiCond22
        CFI EndBlock cfiCond23
        CFI EndBlock cfiCond24
        CFI EndBlock cfiPicker25
        REQUIRE ??Subroutine20_0
        ; // Fall through to label ??Subroutine20_0

        RSEG BANKED_CODE:CODE:NOROOT(0)
??Subroutine20_0:
        CFI Block cfiCond26 Using cfiCommon0
        CFI NoFunction
        CFI Conditional ??CrossCallReturnLabel_43
        CFI R6 load(1, XDATA, add(CFA_XSP16, literal(-16)))
        CFI VB load(1, XDATA, add(CFA_XSP16, literal(-15)))
        CFI V0 load(1, XDATA, add(CFA_XSP16, literal(-14)))
        CFI V1 load(1, XDATA, add(CFA_XSP16, literal(-13)))
        CFI V2 load(1, XDATA, add(CFA_XSP16, literal(-12)))
        CFI V3 load(1, XDATA, add(CFA_XSP16, literal(-11)))
        CFI V4 load(1, XDATA, add(CFA_XSP16, literal(-10)))
        CFI V5 load(1, XDATA, add(CFA_XSP16, literal(-9)))
        CFI V6 load(1, XDATA, add(CFA_XSP16, literal(-8)))
        CFI V7 load(1, XDATA, add(CFA_XSP16, literal(-7)))
        CFI R7 load(1, XDATA, add(CFA_XSP16, literal(-6)))
        CFI ?RET_LOW load(1, XDATA, add(CFA_XSP16, literal(-5)))
        CFI ?RET_HIGH load(1, XDATA, add(CFA_XSP16, literal(-4)))
        CFI ?BRET_EXT load(1, XDATA, add(CFA_XSP16, literal(-3)))
        CFI DPL0 load(1, XDATA, add(CFA_XSP16, literal(-2)))
        CFI DPH0 load(1, XDATA, add(CFA_XSP16, literal(-1)))
        CFI CFA_SP SP+0
        CFI CFA_XSP16 add(XSP16, 88)
        CFI Block cfiCond27 Using cfiCommon0
        CFI (cfiCond27) NoFunction
        CFI (cfiCond27) Conditional ??CrossCallReturnLabel_40
        CFI (cfiCond27) R6 load(1, XDATA, add(CFA_XSP16, literal(-16)))
        CFI (cfiCond27) VB load(1, XDATA, add(CFA_XSP16, literal(-15)))
        CFI (cfiCond27) V0 load(1, XDATA, add(CFA_XSP16, literal(-14)))
        CFI (cfiCond27) V1 load(1, XDATA, add(CFA_XSP16, literal(-13)))
        CFI (cfiCond27) V2 load(1, XDATA, add(CFA_XSP16, literal(-12)))
        CFI (cfiCond27) V3 load(1, XDATA, add(CFA_XSP16, literal(-11)))
        CFI (cfiCond27) V4 load(1, XDATA, add(CFA_XSP16, literal(-10)))
        CFI (cfiCond27) V5 load(1, XDATA, add(CFA_XSP16, literal(-9)))
        CFI (cfiCond27) V6 load(1, XDATA, add(CFA_XSP16, literal(-8)))
        CFI (cfiCond27) V7 load(1, XDATA, add(CFA_XSP16, literal(-7)))
        CFI (cfiCond27) R7 load(1, XDATA, add(CFA_XSP16, literal(-6)))
        CFI (cfiCond27) ?RET_LOW load(1, XDATA, add(CFA_XSP16, literal(-5)))
        CFI (cfiCond27) ?RET_HIGH load(1, XDATA, add(CFA_XSP16, literal(-4)))
        CFI (cfiCond27) ?BRET_EXT load(1, XDATA, add(CFA_XSP16, literal(-3)))
        CFI (cfiCond27) DPL0 load(1, XDATA, add(CFA_XSP16, literal(-2)))
        CFI (cfiCond27) DPH0 load(1, XDATA, add(CFA_XSP16, literal(-1)))
        CFI (cfiCond27) CFA_SP SP+0
        CFI (cfiCond27) CFA_XSP16 add(XSP16, 88)
        CFI Block cfiCond28 Using cfiCommon0
        CFI (cfiCond28) NoFunction
        CFI (cfiCond28) Conditional ??CrossCallReturnLabel_41
        CFI (cfiCond28) R6 load(1, XDATA, add(CFA_XSP16, literal(-16)))
        CFI (cfiCond28) VB load(1, XDATA, add(CFA_XSP16, literal(-15)))
        CFI (cfiCond28) V0 load(1, XDATA, add(CFA_XSP16, literal(-14)))
        CFI (cfiCond28) V1 load(1, XDATA, add(CFA_XSP16, literal(-13)))
        CFI (cfiCond28) V2 load(1, XDATA, add(CFA_XSP16, literal(-12)))
        CFI (cfiCond28) V3 load(1, XDATA, add(CFA_XSP16, literal(-11)))
        CFI (cfiCond28) V4 load(1, XDATA, add(CFA_XSP16, literal(-10)))
        CFI (cfiCond28) V5 load(1, XDATA, add(CFA_XSP16, literal(-9)))
        CFI (cfiCond28) V6 load(1, XDATA, add(CFA_XSP16, literal(-8)))
        CFI (cfiCond28) V7 load(1, XDATA, add(CFA_XSP16, literal(-7)))
        CFI (cfiCond28) R7 load(1, XDATA, add(CFA_XSP16, literal(-6)))
        CFI (cfiCond28) ?RET_LOW load(1, XDATA, add(CFA_XSP16, literal(-5)))
        CFI (cfiCond28) ?RET_HIGH load(1, XDATA, add(CFA_XSP16, literal(-4)))
        CFI (cfiCond28) ?BRET_EXT load(1, XDATA, add(CFA_XSP16, literal(-3)))
        CFI (cfiCond28) DPL0 load(1, XDATA, add(CFA_XSP16, literal(-2)))
        CFI (cfiCond28) DPH0 load(1, XDATA, add(CFA_XSP16, literal(-1)))
        CFI (cfiCond28) CFA_SP SP+0
        CFI (cfiCond28) CFA_XSP16 add(XSP16, 88)
        CFI Block cfiCond29 Using cfiCommon0
        CFI (cfiCond29) NoFunction
        CFI (cfiCond29) Conditional ??CrossCallReturnLabel_42
        CFI (cfiCond29) R6 load(1, XDATA, add(CFA_XSP16, literal(-16)))
        CFI (cfiCond29) VB load(1, XDATA, add(CFA_XSP16, literal(-15)))
        CFI (cfiCond29) V0 load(1, XDATA, add(CFA_XSP16, literal(-14)))
        CFI (cfiCond29) V1 load(1, XDATA, add(CFA_XSP16, literal(-13)))
        CFI (cfiCond29) V2 load(1, XDATA, add(CFA_XSP16, literal(-12)))
        CFI (cfiCond29) V3 load(1, XDATA, add(CFA_XSP16, literal(-11)))
        CFI (cfiCond29) V4 load(1, XDATA, add(CFA_XSP16, literal(-10)))
        CFI (cfiCond29) V5 load(1, XDATA, add(CFA_XSP16, literal(-9)))
        CFI (cfiCond29) V6 load(1, XDATA, add(CFA_XSP16, literal(-8)))
        CFI (cfiCond29) V7 load(1, XDATA, add(CFA_XSP16, literal(-7)))
        CFI (cfiCond29) R7 load(1, XDATA, add(CFA_XSP16, literal(-6)))
        CFI (cfiCond29) ?RET_LOW load(1, XDATA, add(CFA_XSP16, literal(-5)))
        CFI (cfiCond29) ?RET_HIGH load(1, XDATA, add(CFA_XSP16, literal(-4)))
        CFI (cfiCond29) ?BRET_EXT load(1, XDATA, add(CFA_XSP16, literal(-3)))
        CFI (cfiCond29) DPL0 load(1, XDATA, add(CFA_XSP16, literal(-2)))
        CFI (cfiCond29) DPH0 load(1, XDATA, add(CFA_XSP16, literal(-1)))
        CFI (cfiCond29) CFA_SP SP+0
        CFI (cfiCond29) CFA_XSP16 add(XSP16, 88)
        CFI Block cfiPicker30 Using cfiCommon1
        CFI (cfiPicker30) NoFunction
        CFI (cfiPicker30) Picker
        MOV     R3,#0x0
        LCALL   ??osal_nv_item_init?relay
        MOV     A,#0x2
        RET
        CFI EndBlock cfiCond26
        CFI EndBlock cfiCond27
        CFI EndBlock cfiCond28
        CFI EndBlock cfiCond29
        CFI EndBlock cfiPicker30

        RSEG BANKED_CODE:CODE:NOROOT(0)
?Subroutine12:
        CFI Block cfiCond31 Using cfiCommon0
        CFI NoFunction
        CFI Conditional ??CrossCallReturnLabel_24
        CFI R6 load(1, XDATA, add(CFA_XSP16, literal(-16)))
        CFI VB load(1, XDATA, add(CFA_XSP16, literal(-15)))
        CFI V0 load(1, XDATA, add(CFA_XSP16, literal(-14)))
        CFI V1 load(1, XDATA, add(CFA_XSP16, literal(-13)))
        CFI V2 load(1, XDATA, add(CFA_XSP16, literal(-12)))
        CFI V3 load(1, XDATA, add(CFA_XSP16, literal(-11)))
        CFI V4 load(1, XDATA, add(CFA_XSP16, literal(-10)))
        CFI V5 load(1, XDATA, add(CFA_XSP16, literal(-9)))
        CFI V6 load(1, XDATA, add(CFA_XSP16, literal(-8)))
        CFI V7 load(1, XDATA, add(CFA_XSP16, literal(-7)))
        CFI R7 load(1, XDATA, add(CFA_XSP16, literal(-6)))
        CFI ?RET_LOW load(1, XDATA, add(CFA_XSP16, literal(-5)))
        CFI ?RET_HIGH load(1, XDATA, add(CFA_XSP16, literal(-4)))
        CFI ?BRET_EXT load(1, XDATA, add(CFA_XSP16, literal(-3)))
        CFI DPL0 load(1, XDATA, add(CFA_XSP16, literal(-2)))
        CFI DPH0 load(1, XDATA, add(CFA_XSP16, literal(-1)))
        CFI CFA_SP SP+0
        CFI CFA_XSP16 add(XSP16, 86)
        CFI Block cfiCond32 Using cfiCommon0
        CFI (cfiCond32) NoFunction
        CFI (cfiCond32) Conditional ??CrossCallReturnLabel_25
        CFI (cfiCond32) R6 load(1, XDATA, add(CFA_XSP16, literal(-16)))
        CFI (cfiCond32) VB load(1, XDATA, add(CFA_XSP16, literal(-15)))
        CFI (cfiCond32) V0 load(1, XDATA, add(CFA_XSP16, literal(-14)))
        CFI (cfiCond32) V1 load(1, XDATA, add(CFA_XSP16, literal(-13)))
        CFI (cfiCond32) V2 load(1, XDATA, add(CFA_XSP16, literal(-12)))
        CFI (cfiCond32) V3 load(1, XDATA, add(CFA_XSP16, literal(-11)))
        CFI (cfiCond32) V4 load(1, XDATA, add(CFA_XSP16, literal(-10)))
        CFI (cfiCond32) V5 load(1, XDATA, add(CFA_XSP16, literal(-9)))
        CFI (cfiCond32) V6 load(1, XDATA, add(CFA_XSP16, literal(-8)))
        CFI (cfiCond32) V7 load(1, XDATA, add(CFA_XSP16, literal(-7)))
        CFI (cfiCond32) R7 load(1, XDATA, add(CFA_XSP16, literal(-6)))
        CFI (cfiCond32) ?RET_LOW load(1, XDATA, add(CFA_XSP16, literal(-5)))
        CFI (cfiCond32) ?RET_HIGH load(1, XDATA, add(CFA_XSP16, literal(-4)))
        CFI (cfiCond32) ?BRET_EXT load(1, XDATA, add(CFA_XSP16, literal(-3)))
        CFI (cfiCond32) DPL0 load(1, XDATA, add(CFA_XSP16, literal(-2)))
        CFI (cfiCond32) DPH0 load(1, XDATA, add(CFA_XSP16, literal(-1)))
        CFI (cfiCond32) CFA_SP SP+0
        CFI (cfiCond32) CFA_XSP16 add(XSP16, 86)
        CFI Block cfiCond33 Using cfiCommon0
        CFI (cfiCond33) NoFunction
        CFI (cfiCond33) Conditional ??CrossCallReturnLabel_26
        CFI (cfiCond33) R6 load(1, XDATA, add(CFA_XSP16, literal(-16)))
        CFI (cfiCond33) VB load(1, XDATA, add(CFA_XSP16, literal(-15)))
        CFI (cfiCond33) V0 load(1, XDATA, add(CFA_XSP16, literal(-14)))
        CFI (cfiCond33) V1 load(1, XDATA, add(CFA_XSP16, literal(-13)))
        CFI (cfiCond33) V2 load(1, XDATA, add(CFA_XSP16, literal(-12)))
        CFI (cfiCond33) V3 load(1, XDATA, add(CFA_XSP16, literal(-11)))
        CFI (cfiCond33) V4 load(1, XDATA, add(CFA_XSP16, literal(-10)))
        CFI (cfiCond33) V5 load(1, XDATA, add(CFA_XSP16, literal(-9)))
        CFI (cfiCond33) V6 load(1, XDATA, add(CFA_XSP16, literal(-8)))
        CFI (cfiCond33) V7 load(1, XDATA, add(CFA_XSP16, literal(-7)))
        CFI (cfiCond33) R7 load(1, XDATA, add(CFA_XSP16, literal(-6)))
        CFI (cfiCond33) ?RET_LOW load(1, XDATA, add(CFA_XSP16, literal(-5)))
        CFI (cfiCond33) ?RET_HIGH load(1, XDATA, add(CFA_XSP16, literal(-4)))
        CFI (cfiCond33) ?BRET_EXT load(1, XDATA, add(CFA_XSP16, literal(-3)))
        CFI (cfiCond33) DPL0 load(1, XDATA, add(CFA_XSP16, literal(-2)))
        CFI (cfiCond33) DPH0 load(1, XDATA, add(CFA_XSP16, literal(-1)))
        CFI (cfiCond33) CFA_SP SP+0
        CFI (cfiCond33) CFA_XSP16 add(XSP16, 86)
        CFI Block cfiCond34 Using cfiCommon0
        CFI (cfiCond34) NoFunction
        CFI (cfiCond34) Conditional ??CrossCallReturnLabel_27
        CFI (cfiCond34) R6 load(1, XDATA, add(CFA_XSP16, literal(-16)))
        CFI (cfiCond34) VB load(1, XDATA, add(CFA_XSP16, literal(-15)))
        CFI (cfiCond34) V0 load(1, XDATA, add(CFA_XSP16, literal(-14)))
        CFI (cfiCond34) V1 load(1, XDATA, add(CFA_XSP16, literal(-13)))
        CFI (cfiCond34) V2 load(1, XDATA, add(CFA_XSP16, literal(-12)))
        CFI (cfiCond34) V3 load(1, XDATA, add(CFA_XSP16, literal(-11)))
        CFI (cfiCond34) V4 load(1, XDATA, add(CFA_XSP16, literal(-10)))
        CFI (cfiCond34) V5 load(1, XDATA, add(CFA_XSP16, literal(-9)))
        CFI (cfiCond34) V6 load(1, XDATA, add(CFA_XSP16, literal(-8)))
        CFI (cfiCond34) V7 load(1, XDATA, add(CFA_XSP16, literal(-7)))
        CFI (cfiCond34) R7 load(1, XDATA, add(CFA_XSP16, literal(-6)))
        CFI (cfiCond34) ?RET_LOW load(1, XDATA, add(CFA_XSP16, literal(-5)))
        CFI (cfiCond34) ?RET_HIGH load(1, XDATA, add(CFA_XSP16, literal(-4)))
        CFI (cfiCond34) ?BRET_EXT load(1, XDATA, add(CFA_XSP16, literal(-3)))
        CFI (cfiCond34) DPL0 load(1, XDATA, add(CFA_XSP16, literal(-2)))
        CFI (cfiCond34) DPH0 load(1, XDATA, add(CFA_XSP16, literal(-1)))
        CFI (cfiCond34) CFA_SP SP+0
        CFI (cfiCond34) CFA_XSP16 add(XSP16, 86)
        CFI Block cfiPicker35 Using cfiCommon1
        CFI (cfiPicker35) NoFunction
        CFI (cfiPicker35) Picker
        MOV     R2,DPL
        MOV     R3,DPH
        LCALL   ??strstr?relay
        MOV     ?V0 + 3,R3
        MOV     A,R2
        ORL     A,?V0 + 3
        RET
        CFI EndBlock cfiCond31
        CFI EndBlock cfiCond32
        CFI EndBlock cfiCond33
        CFI EndBlock cfiCond34
        CFI EndBlock cfiPicker35

        RSEG BANKED_CODE:CODE:NOROOT(0)
?Subroutine10:
        CFI Block cfiCond36 Using cfiCommon0
        CFI NoFunction
        CFI Conditional ??CrossCallReturnLabel_18
        CFI R6 load(1, XDATA, add(CFA_XSP16, literal(-16)))
        CFI VB load(1, XDATA, add(CFA_XSP16, literal(-15)))
        CFI V0 load(1, XDATA, add(CFA_XSP16, literal(-14)))
        CFI V1 load(1, XDATA, add(CFA_XSP16, literal(-13)))
        CFI V2 load(1, XDATA, add(CFA_XSP16, literal(-12)))
        CFI V3 load(1, XDATA, add(CFA_XSP16, literal(-11)))
        CFI V4 load(1, XDATA, add(CFA_XSP16, literal(-10)))
        CFI V5 load(1, XDATA, add(CFA_XSP16, literal(-9)))
        CFI V6 load(1, XDATA, add(CFA_XSP16, literal(-8)))
        CFI V7 load(1, XDATA, add(CFA_XSP16, literal(-7)))
        CFI R7 load(1, XDATA, add(CFA_XSP16, literal(-6)))
        CFI ?RET_LOW load(1, XDATA, add(CFA_XSP16, literal(-5)))
        CFI ?RET_HIGH load(1, XDATA, add(CFA_XSP16, literal(-4)))
        CFI ?BRET_EXT load(1, XDATA, add(CFA_XSP16, literal(-3)))
        CFI DPL0 load(1, XDATA, add(CFA_XSP16, literal(-2)))
        CFI DPH0 load(1, XDATA, add(CFA_XSP16, literal(-1)))
        CFI CFA_SP SP+0
        CFI CFA_XSP16 add(XSP16, 86)
        CFI Block cfiCond37 Using cfiCommon0
        CFI (cfiCond37) NoFunction
        CFI (cfiCond37) Conditional ??CrossCallReturnLabel_19
        CFI (cfiCond37) R6 load(1, XDATA, add(CFA_XSP16, literal(-16)))
        CFI (cfiCond37) VB load(1, XDATA, add(CFA_XSP16, literal(-15)))
        CFI (cfiCond37) V0 load(1, XDATA, add(CFA_XSP16, literal(-14)))
        CFI (cfiCond37) V1 load(1, XDATA, add(CFA_XSP16, literal(-13)))
        CFI (cfiCond37) V2 load(1, XDATA, add(CFA_XSP16, literal(-12)))
        CFI (cfiCond37) V3 load(1, XDATA, add(CFA_XSP16, literal(-11)))
        CFI (cfiCond37) V4 load(1, XDATA, add(CFA_XSP16, literal(-10)))
        CFI (cfiCond37) V5 load(1, XDATA, add(CFA_XSP16, literal(-9)))
        CFI (cfiCond37) V6 load(1, XDATA, add(CFA_XSP16, literal(-8)))
        CFI (cfiCond37) V7 load(1, XDATA, add(CFA_XSP16, literal(-7)))
        CFI (cfiCond37) R7 load(1, XDATA, add(CFA_XSP16, literal(-6)))
        CFI (cfiCond37) ?RET_LOW load(1, XDATA, add(CFA_XSP16, literal(-5)))
        CFI (cfiCond37) ?RET_HIGH load(1, XDATA, add(CFA_XSP16, literal(-4)))
        CFI (cfiCond37) ?BRET_EXT load(1, XDATA, add(CFA_XSP16, literal(-3)))
        CFI (cfiCond37) DPL0 load(1, XDATA, add(CFA_XSP16, literal(-2)))
        CFI (cfiCond37) DPH0 load(1, XDATA, add(CFA_XSP16, literal(-1)))
        CFI (cfiCond37) CFA_SP SP+0
        CFI (cfiCond37) CFA_XSP16 add(XSP16, 86)
        CFI Block cfiPicker38 Using cfiCommon1
        CFI (cfiPicker38) NoFunction
        CFI (cfiPicker38) Picker
        LCALL   ?Subroutine18 & 0xFFFF
??CrossCallReturnLabel_49:
        ; Setup parameters for call to function UART_Send_String
        ; Setup parameters for call to function UART_Send_String
        MOV     R4,#0x2
        MOV     R5,#0x0
        RET
        CFI EndBlock cfiCond36
        CFI EndBlock cfiCond37
        CFI EndBlock cfiPicker38
//  752 

        RSEG BANKED_CODE:CODE:NOROOT(0)
//  753 void serial_init(void )
serial_init:
        CFI Block cfiBlock39 Using cfiCommon0
        CFI Function serial_init
        CODE
//  754 {
        FUNCALL serial_init, HalUARTOpen
        LOCFRAME ISTACK, 2, STACK
        LOCFRAME PSTACK, 0, STACK
        LOCFRAME XSTACK, 29, STACK
        LOCFRAME IOVERLAY, 0, STATIC
        LOCFRAME DOVERLAY, 0, STATIC
        ARGFRAME ISTACK, 2, STACK
        ARGFRAME PSTACK, 0, STACK
        ARGFRAME XSTACK, 29, STACK
        ARGFRAME IOVERLAY, 0, STATIC
        ARGFRAME DOVERLAY, 0, STATIC
        PUSH    DPL
        CFI DPL0 Frame(CFA_SP, 4)
        CFI CFA_SP SP+-4
        PUSH    DPH
        CFI DPH0 Frame(CFA_SP, 5)
        CFI CFA_SP SP+-5
        ; Saved register size: 2
        ; Auto size: 29
        MOV     A,#-0x1d
        LCALL   ?ALLOC_XSTACK8
        CFI CFA_XSP16 add(XSP16, 29)
//  755   halUARTCfg_t uartConfig;
//  756 
//  757  
//  758   uartConfig.configured           = TRUE;                                                   // 2x30 don't care - see uart driver.
        MOV     DPL,?XSP + 0
        MOV     DPH,?XSP + 1
        MOV     A,#0x1
        MOVX    @DPTR,A
//  759   uartConfig.baudRate             = HAL_UART_BR_38400;                       //38400
        LCALL   ?XSTACK_DISP0_8
        MOV     A,#0x2
        MOVX    @DPTR,A
//  760   uartConfig.flowControl          = FALSE;
        LCALL   ?XSTACK_DISP0_8
        CLR     A
        MOVX    @DPTR,A
//  761   uartConfig.flowControlThreshold = 64;        // 64.
        MOV     A,#0x3
        LCALL   ?XSTACK_DISP0_8
        MOV     A,#0x40
        MOVX    @DPTR,A
        INC     DPTR
        CLR     A
        MOVX    @DPTR,A
//  762   uartConfig.rx.maxBufSize        = 512;                  // 128
        MOV     A,#0xa
        LCALL   ?XSTACK_DISP0_8
        CLR     A
        MOVX    @DPTR,A
        INC     DPTR
        MOV     A,#0x2
        MOVX    @DPTR,A
//  763   uartConfig.tx.maxBufSize        = 512;                  // 128
        MOV     A,#0x12
        LCALL   ?XSTACK_DISP0_8
        CLR     A
        MOVX    @DPTR,A
        INC     DPTR
        MOV     A,#0x2
        MOVX    @DPTR,A
//  764   uartConfig.idleTimeout          = 6;                      // 6
        MOV     A,#0x5
        LCALL   ?XSTACK_DISP0_8
        MOV     A,#0x6
        MOVX    @DPTR,A
//  765   uartConfig.intEnable            = TRUE;                                                 
        MOV     A,#0x16
        LCALL   ?XSTACK_DISP0_8
        MOV     A,#0x1
        MOVX    @DPTR,A
//  766   uartConfig.callBackFunc         = Serial_callBack;                   // Call back function
        MOV     A,#0x1b
        LCALL   ?XSTACK_DISP0_8
        MOV     A,#??Serial_callBack?relay & 0xff
        MOVX    @DPTR,A
        INC     DPTR
        MOV     A,#(??Serial_callBack?relay >> 8) & 0xff
        LCALL   ?Subroutine8 & 0xFFFF
//  767   
//  768   HalUARTOpen (SER_PORT, &uartConfig);
??CrossCallReturnLabel_16:
        MOV     R2,DPL
        MOV     R3,DPH
        MOV     R1,#0x0
        LCALL   ??HalUARTOpen?relay
//  769 
//  770 }
        MOV     A,#0x1d
        LCALL   ?DEALLOC_XSTACK8
        CFI CFA_XSP16 XSP16+0
        LJMP    ?Subroutine1 & 0xFFFF
        CFI EndBlock cfiBlock39

        RSEG BANKED_CODE:CODE:NOROOT(0)
?Subroutine8:
        CFI Block cfiCond40 Using cfiCommon0
        CFI NoFunction
        CFI Conditional ??CrossCallReturnLabel_15
        CFI R6 load(1, XDATA, add(CFA_XSP16, literal(-10)))
        CFI VB load(1, XDATA, add(CFA_XSP16, literal(-9)))
        CFI V0 load(1, XDATA, add(CFA_XSP16, literal(-8)))
        CFI V1 load(1, XDATA, add(CFA_XSP16, literal(-7)))
        CFI R7 load(1, XDATA, add(CFA_XSP16, literal(-6)))
        CFI ?RET_LOW load(1, XDATA, add(CFA_XSP16, literal(-5)))
        CFI ?RET_HIGH load(1, XDATA, add(CFA_XSP16, literal(-4)))
        CFI ?BRET_EXT load(1, XDATA, add(CFA_XSP16, literal(-3)))
        CFI DPL0 load(1, XDATA, add(CFA_XSP16, literal(-2)))
        CFI DPH0 load(1, XDATA, add(CFA_XSP16, literal(-1)))
        CFI CFA_SP SP+0
        CFI CFA_XSP16 add(XSP16, 22)
        CFI Block cfiCond41 Using cfiCommon0
        CFI (cfiCond41) NoFunction
        CFI (cfiCond41) Conditional ??CrossCallReturnLabel_16
        CFI (cfiCond41) DPL0 Frame(CFA_SP, 4)
        CFI (cfiCond41) DPH0 Frame(CFA_SP, 5)
        CFI (cfiCond41) CFA_SP SP+-5
        CFI (cfiCond41) CFA_XSP16 add(XSP16, 29)
        CFI Block cfiCond42 Using cfiCommon0
        CFI (cfiCond42) NoFunction
        CFI (cfiCond42) Conditional ??CrossCallReturnLabel_17
        CFI (cfiCond42) R6 load(1, XDATA, add(CFA_XSP16, literal(-10)))
        CFI (cfiCond42) VB load(1, XDATA, add(CFA_XSP16, literal(-9)))
        CFI (cfiCond42) V0 load(1, XDATA, add(CFA_XSP16, literal(-8)))
        CFI (cfiCond42) V1 load(1, XDATA, add(CFA_XSP16, literal(-7)))
        CFI (cfiCond42) R7 load(1, XDATA, add(CFA_XSP16, literal(-6)))
        CFI (cfiCond42) ?RET_LOW load(1, XDATA, add(CFA_XSP16, literal(-5)))
        CFI (cfiCond42) ?RET_HIGH load(1, XDATA, add(CFA_XSP16, literal(-4)))
        CFI (cfiCond42) ?BRET_EXT load(1, XDATA, add(CFA_XSP16, literal(-3)))
        CFI (cfiCond42) DPL0 load(1, XDATA, add(CFA_XSP16, literal(-2)))
        CFI (cfiCond42) DPH0 load(1, XDATA, add(CFA_XSP16, literal(-1)))
        CFI (cfiCond42) CFA_SP SP+0
        CFI (cfiCond42) CFA_XSP16 add(XSP16, 12)
        CFI Block cfiPicker43 Using cfiCommon1
        CFI (cfiPicker43) NoFunction
        CFI (cfiPicker43) Picker
        MOVX    @DPTR,A
        ; Setup parameters for call to function HalUARTOpen
        MOV     DPL,?XSP + 0
        MOV     DPH,?XSP + 1
        RET
        CFI EndBlock cfiCond40
        CFI EndBlock cfiCond41
        CFI EndBlock cfiCond42
        CFI EndBlock cfiPicker43
//  771 

        RSEG BANKED_CODE:CODE:NOROOT(0)
//  772 void io_init(void)
io_init:
        CFI Block cfiBlock44 Using cfiCommon0
        CFI Function io_init
        CODE
//  773 {
        ; Saved register size: 0
        ; Auto size: 0
//  774     /* For falling edge, the bit must be set. */
//  775 /*
//  776     PICTL &= ~(  HAL_KEY_JOY_MOVE_BIT ); 
//  777     PICTL |= HAL_KEY_JOY_MOVE_BIT;
//  778 
//  779     P0IEN  |= HAL_KEY_SW_6_BIT;
//  780     IEN1 |= BV(5);
//  781     P0IFG = ~(HAL_KEY_SW_6_BIT);
//  782 */
//  783   P0DIR &= ~0x01;
        ANL     0xfd,#0xfe
//  784   
//  785   P0DIR |= 0x80;
        ORL     0xfd,#0x80
//  786   
//  787   P0IFG &= ~0x01;
        ANL     0x89,#0xfe
//  788   
//  789   P0_7 = 1;
        SETB    0x80.7
//  790  
//  791 }
        LJMP    ?BRET
        CFI EndBlock cfiBlock44
        REQUIRE P0DIR
        REQUIRE P0IFG
        REQUIRE _A_P0
//  792 

        RSEG BANKED_CODE:CODE:NOROOT(0)
//  793 void set_panid( uint16 u16NewPanid)
set_panid:
        CFI Block cfiBlock45 Using cfiCommon0
        CFI Function set_panid
        CODE
//  794 {
        FUNCALL set_panid, macRadioSetPanID
        LOCFRAME ISTACK, 0, STACK
        LOCFRAME PSTACK, 0, STACK
        LOCFRAME XSTACK, 12, STACK
        LOCFRAME IOVERLAY, 0, STATIC
        LOCFRAME DOVERLAY, 0, STATIC
        ARGFRAME ISTACK, 0, STACK
        ARGFRAME PSTACK, 0, STACK
        ARGFRAME XSTACK, 12, STACK
        ARGFRAME IOVERLAY, 0, STATIC
        ARGFRAME DOVERLAY, 0, STATIC
        FUNCALL set_panid, ZMacSetReq
        LOCFRAME ISTACK, 0, STACK
        LOCFRAME PSTACK, 0, STACK
        LOCFRAME XSTACK, 12, STACK
        LOCFRAME IOVERLAY, 0, STATIC
        LOCFRAME DOVERLAY, 0, STATIC
        ARGFRAME ISTACK, 0, STACK
        ARGFRAME PSTACK, 0, STACK
        ARGFRAME XSTACK, 12, STACK
        ARGFRAME IOVERLAY, 0, STATIC
        ARGFRAME DOVERLAY, 0, STATIC
        FUNCALL set_panid, osal_nv_write
        LOCFRAME ISTACK, 0, STACK
        LOCFRAME PSTACK, 0, STACK
        LOCFRAME XSTACK, 16, STACK
        LOCFRAME IOVERLAY, 0, STATIC
        LOCFRAME DOVERLAY, 0, STATIC
        ARGFRAME ISTACK, 0, STACK
        ARGFRAME PSTACK, 0, STACK
        ARGFRAME XSTACK, 16, STACK
        ARGFRAME IOVERLAY, 0, STATIC
        ARGFRAME DOVERLAY, 0, STATIC
        FUNCALL set_panid, NLME_UpdateNV
        LOCFRAME ISTACK, 0, STACK
        LOCFRAME PSTACK, 0, STACK
        LOCFRAME XSTACK, 12, STACK
        LOCFRAME IOVERLAY, 0, STATIC
        LOCFRAME DOVERLAY, 0, STATIC
        ARGFRAME ISTACK, 0, STACK
        ARGFRAME PSTACK, 0, STACK
        ARGFRAME XSTACK, 12, STACK
        ARGFRAME IOVERLAY, 0, STATIC
        ARGFRAME DOVERLAY, 0, STATIC
        FUNCALL set_panid, uprint
        LOCFRAME ISTACK, 0, STACK
        LOCFRAME PSTACK, 0, STACK
        LOCFRAME XSTACK, 12, STACK
        LOCFRAME IOVERLAY, 0, STATIC
        LOCFRAME DOVERLAY, 0, STATIC
        ARGFRAME ISTACK, 0, STACK
        ARGFRAME PSTACK, 0, STACK
        ARGFRAME XSTACK, 12, STACK
        ARGFRAME IOVERLAY, 0, STATIC
        ARGFRAME DOVERLAY, 0, STATIC
        MOV     A,#-0xa
        LCALL   ?BANKED_ENTER_XDATA
        CFI DPH0 load(1, XDATA, add(CFA_XSP16, literal(-1)))
        CFI DPL0 load(1, XDATA, add(CFA_XSP16, literal(-2)))
        CFI ?BRET_EXT load(1, XDATA, add(CFA_XSP16, literal(-3)))
        CFI ?RET_HIGH load(1, XDATA, add(CFA_XSP16, literal(-4)))
        CFI ?RET_LOW load(1, XDATA, add(CFA_XSP16, literal(-5)))
        CFI R7 load(1, XDATA, add(CFA_XSP16, literal(-6)))
        CFI V1 load(1, XDATA, add(CFA_XSP16, literal(-7)))
        CFI V0 load(1, XDATA, add(CFA_XSP16, literal(-8)))
        CFI VB load(1, XDATA, add(CFA_XSP16, literal(-9)))
        CFI R6 load(1, XDATA, add(CFA_XSP16, literal(-10)))
        CFI CFA_SP SP+0
        CFI CFA_XSP16 add(XSP16, 10)
        ; Saved register size: 10
        ; Auto size: 2
        MOV     A,#-0x2
        LCALL   ?ALLOC_XSTACK8
        CFI CFA_XSP16 add(XSP16, 12)
        MOV     DPL,?XSP + 0
        MOV     DPH,?XSP + 1
        MOV     A,R2
        MOVX    @DPTR,A
        INC     DPTR
        MOV     A,R3
        LCALL   ?Subroutine8 & 0xFFFF
//  795   uint8 u8BackCode;
//  796   _NIB.nwkPanId = u16NewPanid;
??CrossCallReturnLabel_17:
        LCALL   ?Subroutine11 & 0xFFFF
??CrossCallReturnLabel_22:
        MOV     DPTR,#_NIB + 33
        LCALL   ?Subroutine18 & 0xFFFF
//  797   macRadioSetPanID ( _NIB.nwkPanId);
??CrossCallReturnLabel_47:
        ; Setup parameters for call to function macRadioSetPanID
        MOV     DPTR,#_NIB + 33
        MOVX    A,@DPTR
        MOV     R2,A
        LCALL   ??macRadioSetPanID?relay
//  798   ZMacSetReq( ZMacPanId, (byte *)& _NIB.nwkPanId);
        ; Setup parameters for call to function ZMacSetReq
        MOV     R2,#(_NIB + 33) & 0xff
        MOV     R3,#((_NIB + 33) >> 8) & 0xff
        MOV     R1,#0x50
        LCALL   ??ZMacSetReq?relay
//  799   
//  800   u8BackCode = osal_nv_write(ZCD_NV_PANID, 0, 2, &u16NewPanid);
//  801   if( u8BackCode == ZSUCCESS)
        ; Setup parameters for call to function osal_nv_write
        MOV     DPL,?XSP + 0
        MOV     DPH,?XSP + 1
        MOV     ?V0 + 0,DPL
        MOV     ?V0 + 1,DPH
        MOV     R0,#?V0 + 0
        LCALL   ?PUSH_XSTACK_I_TWO
        CFI CFA_XSP16 add(XSP16, 14)
        MOV     ?V0 + 0,#0x2
        MOV     ?V0 + 1,#0x0
        MOV     R0,#?V0 + 0
        LCALL   ?PUSH_XSTACK_I_TWO
        CFI CFA_XSP16 add(XSP16, 16)
        MOV     R4,#0x0
        MOV     R5,#0x0
        MOV     R2,#-0x7d
        LCALL   ??Subroutine22_0 & 0xFFFF
??CrossCallReturnLabel_54:
        LCALL   ?DEALLOC_XSTACK8
        CFI CFA_XSP16 add(XSP16, 12)
        MOV     A,R1
        JNZ     ??set_panid_0
//  802   {
//  803     NLME_UpdateNV(0x01);
        ; Setup parameters for call to function NLME_UpdateNV
        MOV     R1,#0x1
        LCALL   ??NLME_UpdateNV?relay
        SJMP    ??set_panid_1
//  804 //    HAL_SYSTEM_RESET();
//  805   }
//  806   else
//  807   {
//  808     uprint("set_panid failed");
??set_panid_0:
        ; Setup parameters for call to function uprint
        MOV     R2,#`?<Constant "set_panid failed">` & 0xff
        MOV     R3,#(`?<Constant "set_panid failed">` >> 8) & 0xff
        LCALL   ??uprint?relay
//  809   }
//  810   
//  811 }
??set_panid_1:
        MOV     A,#0x2
        LJMP    ?Subroutine0 & 0xFFFF
        CFI EndBlock cfiBlock45

        RSEG BANKED_CODE:CODE:NOROOT(0)
?Subroutine18:
        CFI Block cfiCond46 Using cfiCommon0
        CFI NoFunction
        CFI Conditional ??CrossCallReturnLabel_46
        CFI R6 load(1, XDATA, add(CFA_XSP16, literal(-16)))
        CFI VB load(1, XDATA, add(CFA_XSP16, literal(-15)))
        CFI V0 load(1, XDATA, add(CFA_XSP16, literal(-14)))
        CFI V1 load(1, XDATA, add(CFA_XSP16, literal(-13)))
        CFI V2 load(1, XDATA, add(CFA_XSP16, literal(-12)))
        CFI V3 load(1, XDATA, add(CFA_XSP16, literal(-11)))
        CFI V4 load(1, XDATA, add(CFA_XSP16, literal(-10)))
        CFI V5 load(1, XDATA, add(CFA_XSP16, literal(-9)))
        CFI V6 load(1, XDATA, add(CFA_XSP16, literal(-8)))
        CFI V7 load(1, XDATA, add(CFA_XSP16, literal(-7)))
        CFI R7 load(1, XDATA, add(CFA_XSP16, literal(-6)))
        CFI ?RET_LOW load(1, XDATA, add(CFA_XSP16, literal(-5)))
        CFI ?RET_HIGH load(1, XDATA, add(CFA_XSP16, literal(-4)))
        CFI ?BRET_EXT load(1, XDATA, add(CFA_XSP16, literal(-3)))
        CFI DPL0 load(1, XDATA, add(CFA_XSP16, literal(-2)))
        CFI DPH0 load(1, XDATA, add(CFA_XSP16, literal(-1)))
        CFI CFA_SP SP+0
        CFI CFA_XSP16 add(XSP16, 86)
        CFI Block cfiCond47 Using cfiCommon0
        CFI (cfiCond47) NoFunction
        CFI (cfiCond47) Conditional ??CrossCallReturnLabel_49, ??CrossCallReturnLabel_18
        CFI (cfiCond47) R6 load(1, XDATA, add(CFA_XSP16, literal(-16)))
        CFI (cfiCond47) VB load(1, XDATA, add(CFA_XSP16, literal(-15)))
        CFI (cfiCond47) V0 load(1, XDATA, add(CFA_XSP16, literal(-14)))
        CFI (cfiCond47) V1 load(1, XDATA, add(CFA_XSP16, literal(-13)))
        CFI (cfiCond47) V2 load(1, XDATA, add(CFA_XSP16, literal(-12)))
        CFI (cfiCond47) V3 load(1, XDATA, add(CFA_XSP16, literal(-11)))
        CFI (cfiCond47) V4 load(1, XDATA, add(CFA_XSP16, literal(-10)))
        CFI (cfiCond47) V5 load(1, XDATA, add(CFA_XSP16, literal(-9)))
        CFI (cfiCond47) V6 load(1, XDATA, add(CFA_XSP16, literal(-8)))
        CFI (cfiCond47) V7 load(1, XDATA, add(CFA_XSP16, literal(-7)))
        CFI (cfiCond47) R7 load(1, XDATA, add(CFA_XSP16, literal(-6)))
        CFI (cfiCond47) ?RET_LOW load(1, XDATA, add(CFA_XSP16, literal(-5)))
        CFI (cfiCond47) ?RET_HIGH load(1, XDATA, add(CFA_XSP16, literal(-4)))
        CFI (cfiCond47) ?BRET_EXT load(1, XDATA, add(CFA_XSP16, literal(-3)))
        CFI (cfiCond47) DPL0 load(1, XDATA, add(CFA_XSP16, literal(-2)))
        CFI (cfiCond47) DPH0 load(1, XDATA, add(CFA_XSP16, literal(-1)))
        CFI (cfiCond47) CFA_SP SP+0
        CFI (cfiCond47) CFA_XSP16 add(XSP16, 86)
        CFI Block cfiCond48 Using cfiCommon0
        CFI (cfiCond48) NoFunction
        CFI (cfiCond48) Conditional ??CrossCallReturnLabel_49, ??CrossCallReturnLabel_19
        CFI (cfiCond48) R6 load(1, XDATA, add(CFA_XSP16, literal(-16)))
        CFI (cfiCond48) VB load(1, XDATA, add(CFA_XSP16, literal(-15)))
        CFI (cfiCond48) V0 load(1, XDATA, add(CFA_XSP16, literal(-14)))
        CFI (cfiCond48) V1 load(1, XDATA, add(CFA_XSP16, literal(-13)))
        CFI (cfiCond48) V2 load(1, XDATA, add(CFA_XSP16, literal(-12)))
        CFI (cfiCond48) V3 load(1, XDATA, add(CFA_XSP16, literal(-11)))
        CFI (cfiCond48) V4 load(1, XDATA, add(CFA_XSP16, literal(-10)))
        CFI (cfiCond48) V5 load(1, XDATA, add(CFA_XSP16, literal(-9)))
        CFI (cfiCond48) V6 load(1, XDATA, add(CFA_XSP16, literal(-8)))
        CFI (cfiCond48) V7 load(1, XDATA, add(CFA_XSP16, literal(-7)))
        CFI (cfiCond48) R7 load(1, XDATA, add(CFA_XSP16, literal(-6)))
        CFI (cfiCond48) ?RET_LOW load(1, XDATA, add(CFA_XSP16, literal(-5)))
        CFI (cfiCond48) ?RET_HIGH load(1, XDATA, add(CFA_XSP16, literal(-4)))
        CFI (cfiCond48) ?BRET_EXT load(1, XDATA, add(CFA_XSP16, literal(-3)))
        CFI (cfiCond48) DPL0 load(1, XDATA, add(CFA_XSP16, literal(-2)))
        CFI (cfiCond48) DPH0 load(1, XDATA, add(CFA_XSP16, literal(-1)))
        CFI (cfiCond48) CFA_SP SP+0
        CFI (cfiCond48) CFA_XSP16 add(XSP16, 86)
        CFI Block cfiCond49 Using cfiCommon0
        CFI (cfiCond49) NoFunction
        CFI (cfiCond49) Conditional ??CrossCallReturnLabel_47
        CFI (cfiCond49) R6 load(1, XDATA, add(CFA_XSP16, literal(-10)))
        CFI (cfiCond49) VB load(1, XDATA, add(CFA_XSP16, literal(-9)))
        CFI (cfiCond49) V0 load(1, XDATA, add(CFA_XSP16, literal(-8)))
        CFI (cfiCond49) V1 load(1, XDATA, add(CFA_XSP16, literal(-7)))
        CFI (cfiCond49) R7 load(1, XDATA, add(CFA_XSP16, literal(-6)))
        CFI (cfiCond49) ?RET_LOW load(1, XDATA, add(CFA_XSP16, literal(-5)))
        CFI (cfiCond49) ?RET_HIGH load(1, XDATA, add(CFA_XSP16, literal(-4)))
        CFI (cfiCond49) ?BRET_EXT load(1, XDATA, add(CFA_XSP16, literal(-3)))
        CFI (cfiCond49) DPL0 load(1, XDATA, add(CFA_XSP16, literal(-2)))
        CFI (cfiCond49) DPH0 load(1, XDATA, add(CFA_XSP16, literal(-1)))
        CFI (cfiCond49) CFA_SP SP+0
        CFI (cfiCond49) CFA_XSP16 add(XSP16, 12)
        CFI Block cfiCond50 Using cfiCommon0
        CFI (cfiCond50) NoFunction
        CFI (cfiCond50) Conditional ??CrossCallReturnLabel_48
        CFI (cfiCond50) R6 load(1, XDATA, add(CFA_XSP16, literal(-12)))
        CFI (cfiCond50) VB load(1, XDATA, add(CFA_XSP16, literal(-11)))
        CFI (cfiCond50) V0 load(1, XDATA, add(CFA_XSP16, literal(-10)))
        CFI (cfiCond50) V1 load(1, XDATA, add(CFA_XSP16, literal(-9)))
        CFI (cfiCond50) V2 load(1, XDATA, add(CFA_XSP16, literal(-8)))
        CFI (cfiCond50) V3 load(1, XDATA, add(CFA_XSP16, literal(-7)))
        CFI (cfiCond50) R7 load(1, XDATA, add(CFA_XSP16, literal(-6)))
        CFI (cfiCond50) ?RET_LOW load(1, XDATA, add(CFA_XSP16, literal(-5)))
        CFI (cfiCond50) ?RET_HIGH load(1, XDATA, add(CFA_XSP16, literal(-4)))
        CFI (cfiCond50) ?BRET_EXT load(1, XDATA, add(CFA_XSP16, literal(-3)))
        CFI (cfiCond50) DPL0 load(1, XDATA, add(CFA_XSP16, literal(-2)))
        CFI (cfiCond50) DPH0 load(1, XDATA, add(CFA_XSP16, literal(-1)))
        CFI (cfiCond50) CFA_SP SP+0
        CFI (cfiCond50) CFA_XSP16 add(XSP16, 12)
        CFI Block cfiPicker51 Using cfiCommon1
        CFI (cfiPicker51) NoFunction
        CFI (cfiPicker51) Picker
        MOV     A,R0
        CFI EndBlock cfiCond46
        CFI EndBlock cfiCond47
        CFI EndBlock cfiCond48
        CFI EndBlock cfiCond49
        CFI EndBlock cfiCond50
        CFI EndBlock cfiPicker51
        REQUIRE ??Subroutine21_0
        ; // Fall through to label ??Subroutine21_0

        RSEG BANKED_CODE:CODE:NOROOT(0)
??Subroutine21_0:
        CFI Block cfiCond52 Using cfiCommon0
        CFI NoFunction
        CFI Conditional ??CrossCallReturnLabel_44
        CFI R6 load(1, XDATA, add(CFA_XSP16, literal(-16)))
        CFI VB load(1, XDATA, add(CFA_XSP16, literal(-15)))
        CFI V0 load(1, XDATA, add(CFA_XSP16, literal(-14)))
        CFI V1 load(1, XDATA, add(CFA_XSP16, literal(-13)))
        CFI V2 load(1, XDATA, add(CFA_XSP16, literal(-12)))
        CFI V3 load(1, XDATA, add(CFA_XSP16, literal(-11)))
        CFI V4 load(1, XDATA, add(CFA_XSP16, literal(-10)))
        CFI V5 load(1, XDATA, add(CFA_XSP16, literal(-9)))
        CFI V6 load(1, XDATA, add(CFA_XSP16, literal(-8)))
        CFI V7 load(1, XDATA, add(CFA_XSP16, literal(-7)))
        CFI R7 load(1, XDATA, add(CFA_XSP16, literal(-6)))
        CFI ?RET_LOW load(1, XDATA, add(CFA_XSP16, literal(-5)))
        CFI ?RET_HIGH load(1, XDATA, add(CFA_XSP16, literal(-4)))
        CFI ?BRET_EXT load(1, XDATA, add(CFA_XSP16, literal(-3)))
        CFI DPL0 load(1, XDATA, add(CFA_XSP16, literal(-2)))
        CFI DPH0 load(1, XDATA, add(CFA_XSP16, literal(-1)))
        CFI CFA_SP SP+0
        CFI CFA_XSP16 add(XSP16, 86)
        CFI Block cfiCond53 Using cfiCommon0
        CFI (cfiCond53) NoFunction
        CFI (cfiCond53) Conditional ??CrossCallReturnLabel_45
        CFI (cfiCond53) R6 load(1, XDATA, add(CFA_XSP16, literal(-16)))
        CFI (cfiCond53) VB load(1, XDATA, add(CFA_XSP16, literal(-15)))
        CFI (cfiCond53) V0 load(1, XDATA, add(CFA_XSP16, literal(-14)))
        CFI (cfiCond53) V1 load(1, XDATA, add(CFA_XSP16, literal(-13)))
        CFI (cfiCond53) V2 load(1, XDATA, add(CFA_XSP16, literal(-12)))
        CFI (cfiCond53) V3 load(1, XDATA, add(CFA_XSP16, literal(-11)))
        CFI (cfiCond53) V4 load(1, XDATA, add(CFA_XSP16, literal(-10)))
        CFI (cfiCond53) V5 load(1, XDATA, add(CFA_XSP16, literal(-9)))
        CFI (cfiCond53) V6 load(1, XDATA, add(CFA_XSP16, literal(-8)))
        CFI (cfiCond53) V7 load(1, XDATA, add(CFA_XSP16, literal(-7)))
        CFI (cfiCond53) R7 load(1, XDATA, add(CFA_XSP16, literal(-6)))
        CFI (cfiCond53) ?RET_LOW load(1, XDATA, add(CFA_XSP16, literal(-5)))
        CFI (cfiCond53) ?RET_HIGH load(1, XDATA, add(CFA_XSP16, literal(-4)))
        CFI (cfiCond53) ?BRET_EXT load(1, XDATA, add(CFA_XSP16, literal(-3)))
        CFI (cfiCond53) DPL0 load(1, XDATA, add(CFA_XSP16, literal(-2)))
        CFI (cfiCond53) DPH0 load(1, XDATA, add(CFA_XSP16, literal(-1)))
        CFI (cfiCond53) CFA_SP SP+0
        CFI (cfiCond53) CFA_XSP16 add(XSP16, 86)
        CFI Block cfiCond54 Using cfiCommon0
        CFI (cfiCond54) NoFunction
        CFI (cfiCond54) Conditional ??CrossCallReturnLabel_46
        CFI (cfiCond54) R6 load(1, XDATA, add(CFA_XSP16, literal(-16)))
        CFI (cfiCond54) VB load(1, XDATA, add(CFA_XSP16, literal(-15)))
        CFI (cfiCond54) V0 load(1, XDATA, add(CFA_XSP16, literal(-14)))
        CFI (cfiCond54) V1 load(1, XDATA, add(CFA_XSP16, literal(-13)))
        CFI (cfiCond54) V2 load(1, XDATA, add(CFA_XSP16, literal(-12)))
        CFI (cfiCond54) V3 load(1, XDATA, add(CFA_XSP16, literal(-11)))
        CFI (cfiCond54) V4 load(1, XDATA, add(CFA_XSP16, literal(-10)))
        CFI (cfiCond54) V5 load(1, XDATA, add(CFA_XSP16, literal(-9)))
        CFI (cfiCond54) V6 load(1, XDATA, add(CFA_XSP16, literal(-8)))
        CFI (cfiCond54) V7 load(1, XDATA, add(CFA_XSP16, literal(-7)))
        CFI (cfiCond54) R7 load(1, XDATA, add(CFA_XSP16, literal(-6)))
        CFI (cfiCond54) ?RET_LOW load(1, XDATA, add(CFA_XSP16, literal(-5)))
        CFI (cfiCond54) ?RET_HIGH load(1, XDATA, add(CFA_XSP16, literal(-4)))
        CFI (cfiCond54) ?BRET_EXT load(1, XDATA, add(CFA_XSP16, literal(-3)))
        CFI (cfiCond54) DPL0 load(1, XDATA, add(CFA_XSP16, literal(-2)))
        CFI (cfiCond54) DPH0 load(1, XDATA, add(CFA_XSP16, literal(-1)))
        CFI (cfiCond54) CFA_SP SP+0
        CFI (cfiCond54) CFA_XSP16 add(XSP16, 86)
        CFI Block cfiCond55 Using cfiCommon0
        CFI (cfiCond55) NoFunction
        CFI (cfiCond55) Conditional ??CrossCallReturnLabel_49, ??CrossCallReturnLabel_18
        CFI (cfiCond55) R6 load(1, XDATA, add(CFA_XSP16, literal(-16)))
        CFI (cfiCond55) VB load(1, XDATA, add(CFA_XSP16, literal(-15)))
        CFI (cfiCond55) V0 load(1, XDATA, add(CFA_XSP16, literal(-14)))
        CFI (cfiCond55) V1 load(1, XDATA, add(CFA_XSP16, literal(-13)))
        CFI (cfiCond55) V2 load(1, XDATA, add(CFA_XSP16, literal(-12)))
        CFI (cfiCond55) V3 load(1, XDATA, add(CFA_XSP16, literal(-11)))
        CFI (cfiCond55) V4 load(1, XDATA, add(CFA_XSP16, literal(-10)))
        CFI (cfiCond55) V5 load(1, XDATA, add(CFA_XSP16, literal(-9)))
        CFI (cfiCond55) V6 load(1, XDATA, add(CFA_XSP16, literal(-8)))
        CFI (cfiCond55) V7 load(1, XDATA, add(CFA_XSP16, literal(-7)))
        CFI (cfiCond55) R7 load(1, XDATA, add(CFA_XSP16, literal(-6)))
        CFI (cfiCond55) ?RET_LOW load(1, XDATA, add(CFA_XSP16, literal(-5)))
        CFI (cfiCond55) ?RET_HIGH load(1, XDATA, add(CFA_XSP16, literal(-4)))
        CFI (cfiCond55) ?BRET_EXT load(1, XDATA, add(CFA_XSP16, literal(-3)))
        CFI (cfiCond55) DPL0 load(1, XDATA, add(CFA_XSP16, literal(-2)))
        CFI (cfiCond55) DPH0 load(1, XDATA, add(CFA_XSP16, literal(-1)))
        CFI (cfiCond55) CFA_SP SP+0
        CFI (cfiCond55) CFA_XSP16 add(XSP16, 86)
        CFI Block cfiCond56 Using cfiCommon0
        CFI (cfiCond56) NoFunction
        CFI (cfiCond56) Conditional ??CrossCallReturnLabel_49, ??CrossCallReturnLabel_19
        CFI (cfiCond56) R6 load(1, XDATA, add(CFA_XSP16, literal(-16)))
        CFI (cfiCond56) VB load(1, XDATA, add(CFA_XSP16, literal(-15)))
        CFI (cfiCond56) V0 load(1, XDATA, add(CFA_XSP16, literal(-14)))
        CFI (cfiCond56) V1 load(1, XDATA, add(CFA_XSP16, literal(-13)))
        CFI (cfiCond56) V2 load(1, XDATA, add(CFA_XSP16, literal(-12)))
        CFI (cfiCond56) V3 load(1, XDATA, add(CFA_XSP16, literal(-11)))
        CFI (cfiCond56) V4 load(1, XDATA, add(CFA_XSP16, literal(-10)))
        CFI (cfiCond56) V5 load(1, XDATA, add(CFA_XSP16, literal(-9)))
        CFI (cfiCond56) V6 load(1, XDATA, add(CFA_XSP16, literal(-8)))
        CFI (cfiCond56) V7 load(1, XDATA, add(CFA_XSP16, literal(-7)))
        CFI (cfiCond56) R7 load(1, XDATA, add(CFA_XSP16, literal(-6)))
        CFI (cfiCond56) ?RET_LOW load(1, XDATA, add(CFA_XSP16, literal(-5)))
        CFI (cfiCond56) ?RET_HIGH load(1, XDATA, add(CFA_XSP16, literal(-4)))
        CFI (cfiCond56) ?BRET_EXT load(1, XDATA, add(CFA_XSP16, literal(-3)))
        CFI (cfiCond56) DPL0 load(1, XDATA, add(CFA_XSP16, literal(-2)))
        CFI (cfiCond56) DPH0 load(1, XDATA, add(CFA_XSP16, literal(-1)))
        CFI (cfiCond56) CFA_SP SP+0
        CFI (cfiCond56) CFA_XSP16 add(XSP16, 86)
        CFI Block cfiCond57 Using cfiCommon0
        CFI (cfiCond57) NoFunction
        CFI (cfiCond57) Conditional ??CrossCallReturnLabel_47
        CFI (cfiCond57) R6 load(1, XDATA, add(CFA_XSP16, literal(-10)))
        CFI (cfiCond57) VB load(1, XDATA, add(CFA_XSP16, literal(-9)))
        CFI (cfiCond57) V0 load(1, XDATA, add(CFA_XSP16, literal(-8)))
        CFI (cfiCond57) V1 load(1, XDATA, add(CFA_XSP16, literal(-7)))
        CFI (cfiCond57) R7 load(1, XDATA, add(CFA_XSP16, literal(-6)))
        CFI (cfiCond57) ?RET_LOW load(1, XDATA, add(CFA_XSP16, literal(-5)))
        CFI (cfiCond57) ?RET_HIGH load(1, XDATA, add(CFA_XSP16, literal(-4)))
        CFI (cfiCond57) ?BRET_EXT load(1, XDATA, add(CFA_XSP16, literal(-3)))
        CFI (cfiCond57) DPL0 load(1, XDATA, add(CFA_XSP16, literal(-2)))
        CFI (cfiCond57) DPH0 load(1, XDATA, add(CFA_XSP16, literal(-1)))
        CFI (cfiCond57) CFA_SP SP+0
        CFI (cfiCond57) CFA_XSP16 add(XSP16, 12)
        CFI Block cfiCond58 Using cfiCommon0
        CFI (cfiCond58) NoFunction
        CFI (cfiCond58) Conditional ??CrossCallReturnLabel_48
        CFI (cfiCond58) R6 load(1, XDATA, add(CFA_XSP16, literal(-12)))
        CFI (cfiCond58) VB load(1, XDATA, add(CFA_XSP16, literal(-11)))
        CFI (cfiCond58) V0 load(1, XDATA, add(CFA_XSP16, literal(-10)))
        CFI (cfiCond58) V1 load(1, XDATA, add(CFA_XSP16, literal(-9)))
        CFI (cfiCond58) V2 load(1, XDATA, add(CFA_XSP16, literal(-8)))
        CFI (cfiCond58) V3 load(1, XDATA, add(CFA_XSP16, literal(-7)))
        CFI (cfiCond58) R7 load(1, XDATA, add(CFA_XSP16, literal(-6)))
        CFI (cfiCond58) ?RET_LOW load(1, XDATA, add(CFA_XSP16, literal(-5)))
        CFI (cfiCond58) ?RET_HIGH load(1, XDATA, add(CFA_XSP16, literal(-4)))
        CFI (cfiCond58) ?BRET_EXT load(1, XDATA, add(CFA_XSP16, literal(-3)))
        CFI (cfiCond58) DPL0 load(1, XDATA, add(CFA_XSP16, literal(-2)))
        CFI (cfiCond58) DPH0 load(1, XDATA, add(CFA_XSP16, literal(-1)))
        CFI (cfiCond58) CFA_SP SP+0
        CFI (cfiCond58) CFA_XSP16 add(XSP16, 12)
        CFI Block cfiPicker59 Using cfiCommon1
        CFI (cfiPicker59) NoFunction
        CFI (cfiPicker59) Picker
        MOVX    @DPTR,A
        INC     DPTR
        MOV     A,R1
        MOVX    @DPTR,A
        RET
        CFI EndBlock cfiCond52
        CFI EndBlock cfiCond53
        CFI EndBlock cfiCond54
        CFI EndBlock cfiCond55
        CFI EndBlock cfiCond56
        CFI EndBlock cfiCond57
        CFI EndBlock cfiCond58
        CFI EndBlock cfiPicker59

        RSEG BANKED_CODE:CODE:NOROOT(0)
?Subroutine13:
        CFI Block cfiCond60 Using cfiCommon0
        CFI NoFunction
        CFI Conditional ??CrossCallReturnLabel_50
        CFI R6 load(1, XDATA, add(CFA_XSP16, literal(-16)))
        CFI VB load(1, XDATA, add(CFA_XSP16, literal(-15)))
        CFI V0 load(1, XDATA, add(CFA_XSP16, literal(-14)))
        CFI V1 load(1, XDATA, add(CFA_XSP16, literal(-13)))
        CFI V2 load(1, XDATA, add(CFA_XSP16, literal(-12)))
        CFI V3 load(1, XDATA, add(CFA_XSP16, literal(-11)))
        CFI V4 load(1, XDATA, add(CFA_XSP16, literal(-10)))
        CFI V5 load(1, XDATA, add(CFA_XSP16, literal(-9)))
        CFI V6 load(1, XDATA, add(CFA_XSP16, literal(-8)))
        CFI V7 load(1, XDATA, add(CFA_XSP16, literal(-7)))
        CFI R7 load(1, XDATA, add(CFA_XSP16, literal(-6)))
        CFI ?RET_LOW load(1, XDATA, add(CFA_XSP16, literal(-5)))
        CFI ?RET_HIGH load(1, XDATA, add(CFA_XSP16, literal(-4)))
        CFI ?BRET_EXT load(1, XDATA, add(CFA_XSP16, literal(-3)))
        CFI DPL0 load(1, XDATA, add(CFA_XSP16, literal(-2)))
        CFI DPH0 load(1, XDATA, add(CFA_XSP16, literal(-1)))
        CFI CFA_SP SP+0
        CFI CFA_XSP16 add(XSP16, 90)
        CFI Block cfiCond61 Using cfiCommon0
        CFI (cfiCond61) NoFunction
        CFI (cfiCond61) Conditional ??CrossCallReturnLabel_51
        CFI (cfiCond61) R6 load(1, XDATA, add(CFA_XSP16, literal(-16)))
        CFI (cfiCond61) VB load(1, XDATA, add(CFA_XSP16, literal(-15)))
        CFI (cfiCond61) V0 load(1, XDATA, add(CFA_XSP16, literal(-14)))
        CFI (cfiCond61) V1 load(1, XDATA, add(CFA_XSP16, literal(-13)))
        CFI (cfiCond61) V2 load(1, XDATA, add(CFA_XSP16, literal(-12)))
        CFI (cfiCond61) V3 load(1, XDATA, add(CFA_XSP16, literal(-11)))
        CFI (cfiCond61) V4 load(1, XDATA, add(CFA_XSP16, literal(-10)))
        CFI (cfiCond61) V5 load(1, XDATA, add(CFA_XSP16, literal(-9)))
        CFI (cfiCond61) V6 load(1, XDATA, add(CFA_XSP16, literal(-8)))
        CFI (cfiCond61) V7 load(1, XDATA, add(CFA_XSP16, literal(-7)))
        CFI (cfiCond61) R7 load(1, XDATA, add(CFA_XSP16, literal(-6)))
        CFI (cfiCond61) ?RET_LOW load(1, XDATA, add(CFA_XSP16, literal(-5)))
        CFI (cfiCond61) ?RET_HIGH load(1, XDATA, add(CFA_XSP16, literal(-4)))
        CFI (cfiCond61) ?BRET_EXT load(1, XDATA, add(CFA_XSP16, literal(-3)))
        CFI (cfiCond61) DPL0 load(1, XDATA, add(CFA_XSP16, literal(-2)))
        CFI (cfiCond61) DPH0 load(1, XDATA, add(CFA_XSP16, literal(-1)))
        CFI (cfiCond61) CFA_SP SP+0
        CFI (cfiCond61) CFA_XSP16 add(XSP16, 90)
        CFI Block cfiCond62 Using cfiCommon0
        CFI (cfiCond62) NoFunction
        CFI (cfiCond62) Conditional ??CrossCallReturnLabel_52
        CFI (cfiCond62) R6 load(1, XDATA, add(CFA_XSP16, literal(-16)))
        CFI (cfiCond62) VB load(1, XDATA, add(CFA_XSP16, literal(-15)))
        CFI (cfiCond62) V0 load(1, XDATA, add(CFA_XSP16, literal(-14)))
        CFI (cfiCond62) V1 load(1, XDATA, add(CFA_XSP16, literal(-13)))
        CFI (cfiCond62) V2 load(1, XDATA, add(CFA_XSP16, literal(-12)))
        CFI (cfiCond62) V3 load(1, XDATA, add(CFA_XSP16, literal(-11)))
        CFI (cfiCond62) V4 load(1, XDATA, add(CFA_XSP16, literal(-10)))
        CFI (cfiCond62) V5 load(1, XDATA, add(CFA_XSP16, literal(-9)))
        CFI (cfiCond62) V6 load(1, XDATA, add(CFA_XSP16, literal(-8)))
        CFI (cfiCond62) V7 load(1, XDATA, add(CFA_XSP16, literal(-7)))
        CFI (cfiCond62) R7 load(1, XDATA, add(CFA_XSP16, literal(-6)))
        CFI (cfiCond62) ?RET_LOW load(1, XDATA, add(CFA_XSP16, literal(-5)))
        CFI (cfiCond62) ?RET_HIGH load(1, XDATA, add(CFA_XSP16, literal(-4)))
        CFI (cfiCond62) ?BRET_EXT load(1, XDATA, add(CFA_XSP16, literal(-3)))
        CFI (cfiCond62) DPL0 load(1, XDATA, add(CFA_XSP16, literal(-2)))
        CFI (cfiCond62) DPH0 load(1, XDATA, add(CFA_XSP16, literal(-1)))
        CFI (cfiCond62) CFA_SP SP+0
        CFI (cfiCond62) CFA_XSP16 add(XSP16, 90)
        CFI Block cfiPicker63 Using cfiCommon1
        CFI (cfiPicker63) NoFunction
        CFI (cfiPicker63) Picker
        MOV     R4,#0x0
        MOV     R5,#0x0
        MOV     R2,#-0x79
        CFI EndBlock cfiCond60
        CFI EndBlock cfiCond61
        CFI EndBlock cfiCond62
        CFI EndBlock cfiPicker63
        REQUIRE ??Subroutine22_0
        ; // Fall through to label ??Subroutine22_0

        RSEG BANKED_CODE:CODE:NOROOT(0)
??Subroutine22_0:
        CFI Block cfiCond64 Using cfiCommon0
        CFI NoFunction
        CFI Conditional ??CrossCallReturnLabel_53
        CFI R6 load(1, XDATA, add(CFA_XSP16, literal(-16)))
        CFI VB load(1, XDATA, add(CFA_XSP16, literal(-15)))
        CFI V0 load(1, XDATA, add(CFA_XSP16, literal(-14)))
        CFI V1 load(1, XDATA, add(CFA_XSP16, literal(-13)))
        CFI V2 load(1, XDATA, add(CFA_XSP16, literal(-12)))
        CFI V3 load(1, XDATA, add(CFA_XSP16, literal(-11)))
        CFI V4 load(1, XDATA, add(CFA_XSP16, literal(-10)))
        CFI V5 load(1, XDATA, add(CFA_XSP16, literal(-9)))
        CFI V6 load(1, XDATA, add(CFA_XSP16, literal(-8)))
        CFI V7 load(1, XDATA, add(CFA_XSP16, literal(-7)))
        CFI R7 load(1, XDATA, add(CFA_XSP16, literal(-6)))
        CFI ?RET_LOW load(1, XDATA, add(CFA_XSP16, literal(-5)))
        CFI ?RET_HIGH load(1, XDATA, add(CFA_XSP16, literal(-4)))
        CFI ?BRET_EXT load(1, XDATA, add(CFA_XSP16, literal(-3)))
        CFI DPL0 load(1, XDATA, add(CFA_XSP16, literal(-2)))
        CFI DPH0 load(1, XDATA, add(CFA_XSP16, literal(-1)))
        CFI CFA_SP SP+0
        CFI CFA_XSP16 add(XSP16, 90)
        CFI Block cfiCond65 Using cfiCommon0
        CFI (cfiCond65) NoFunction
        CFI (cfiCond65) Conditional ??CrossCallReturnLabel_54
        CFI (cfiCond65) R6 load(1, XDATA, add(CFA_XSP16, literal(-10)))
        CFI (cfiCond65) VB load(1, XDATA, add(CFA_XSP16, literal(-9)))
        CFI (cfiCond65) V0 load(1, XDATA, add(CFA_XSP16, literal(-8)))
        CFI (cfiCond65) V1 load(1, XDATA, add(CFA_XSP16, literal(-7)))
        CFI (cfiCond65) R7 load(1, XDATA, add(CFA_XSP16, literal(-6)))
        CFI (cfiCond65) ?RET_LOW load(1, XDATA, add(CFA_XSP16, literal(-5)))
        CFI (cfiCond65) ?RET_HIGH load(1, XDATA, add(CFA_XSP16, literal(-4)))
        CFI (cfiCond65) ?BRET_EXT load(1, XDATA, add(CFA_XSP16, literal(-3)))
        CFI (cfiCond65) DPL0 load(1, XDATA, add(CFA_XSP16, literal(-2)))
        CFI (cfiCond65) DPH0 load(1, XDATA, add(CFA_XSP16, literal(-1)))
        CFI (cfiCond65) CFA_SP SP+0
        CFI (cfiCond65) CFA_XSP16 add(XSP16, 16)
        CFI Block cfiCond66 Using cfiCommon0
        CFI (cfiCond66) NoFunction
        CFI (cfiCond66) Conditional ??CrossCallReturnLabel_55
        CFI (cfiCond66) R6 load(1, XDATA, add(CFA_XSP16, literal(-10)))
        CFI (cfiCond66) VB load(1, XDATA, add(CFA_XSP16, literal(-9)))
        CFI (cfiCond66) V0 load(1, XDATA, add(CFA_XSP16, literal(-8)))
        CFI (cfiCond66) V1 load(1, XDATA, add(CFA_XSP16, literal(-7)))
        CFI (cfiCond66) R7 load(1, XDATA, add(CFA_XSP16, literal(-6)))
        CFI (cfiCond66) ?RET_LOW load(1, XDATA, add(CFA_XSP16, literal(-5)))
        CFI (cfiCond66) ?RET_HIGH load(1, XDATA, add(CFA_XSP16, literal(-4)))
        CFI (cfiCond66) ?BRET_EXT load(1, XDATA, add(CFA_XSP16, literal(-3)))
        CFI (cfiCond66) DPL0 load(1, XDATA, add(CFA_XSP16, literal(-2)))
        CFI (cfiCond66) DPH0 load(1, XDATA, add(CFA_XSP16, literal(-1)))
        CFI (cfiCond66) CFA_SP SP+0
        CFI (cfiCond66) CFA_XSP16 add(XSP16, 14)
        CFI Block cfiCond67 Using cfiCommon0
        CFI (cfiCond67) NoFunction
        CFI (cfiCond67) Conditional ??CrossCallReturnLabel_50
        CFI (cfiCond67) R6 load(1, XDATA, add(CFA_XSP16, literal(-16)))
        CFI (cfiCond67) VB load(1, XDATA, add(CFA_XSP16, literal(-15)))
        CFI (cfiCond67) V0 load(1, XDATA, add(CFA_XSP16, literal(-14)))
        CFI (cfiCond67) V1 load(1, XDATA, add(CFA_XSP16, literal(-13)))
        CFI (cfiCond67) V2 load(1, XDATA, add(CFA_XSP16, literal(-12)))
        CFI (cfiCond67) V3 load(1, XDATA, add(CFA_XSP16, literal(-11)))
        CFI (cfiCond67) V4 load(1, XDATA, add(CFA_XSP16, literal(-10)))
        CFI (cfiCond67) V5 load(1, XDATA, add(CFA_XSP16, literal(-9)))
        CFI (cfiCond67) V6 load(1, XDATA, add(CFA_XSP16, literal(-8)))
        CFI (cfiCond67) V7 load(1, XDATA, add(CFA_XSP16, literal(-7)))
        CFI (cfiCond67) R7 load(1, XDATA, add(CFA_XSP16, literal(-6)))
        CFI (cfiCond67) ?RET_LOW load(1, XDATA, add(CFA_XSP16, literal(-5)))
        CFI (cfiCond67) ?RET_HIGH load(1, XDATA, add(CFA_XSP16, literal(-4)))
        CFI (cfiCond67) ?BRET_EXT load(1, XDATA, add(CFA_XSP16, literal(-3)))
        CFI (cfiCond67) DPL0 load(1, XDATA, add(CFA_XSP16, literal(-2)))
        CFI (cfiCond67) DPH0 load(1, XDATA, add(CFA_XSP16, literal(-1)))
        CFI (cfiCond67) CFA_SP SP+0
        CFI (cfiCond67) CFA_XSP16 add(XSP16, 90)
        CFI Block cfiCond68 Using cfiCommon0
        CFI (cfiCond68) NoFunction
        CFI (cfiCond68) Conditional ??CrossCallReturnLabel_51
        CFI (cfiCond68) R6 load(1, XDATA, add(CFA_XSP16, literal(-16)))
        CFI (cfiCond68) VB load(1, XDATA, add(CFA_XSP16, literal(-15)))
        CFI (cfiCond68) V0 load(1, XDATA, add(CFA_XSP16, literal(-14)))
        CFI (cfiCond68) V1 load(1, XDATA, add(CFA_XSP16, literal(-13)))
        CFI (cfiCond68) V2 load(1, XDATA, add(CFA_XSP16, literal(-12)))
        CFI (cfiCond68) V3 load(1, XDATA, add(CFA_XSP16, literal(-11)))
        CFI (cfiCond68) V4 load(1, XDATA, add(CFA_XSP16, literal(-10)))
        CFI (cfiCond68) V5 load(1, XDATA, add(CFA_XSP16, literal(-9)))
        CFI (cfiCond68) V6 load(1, XDATA, add(CFA_XSP16, literal(-8)))
        CFI (cfiCond68) V7 load(1, XDATA, add(CFA_XSP16, literal(-7)))
        CFI (cfiCond68) R7 load(1, XDATA, add(CFA_XSP16, literal(-6)))
        CFI (cfiCond68) ?RET_LOW load(1, XDATA, add(CFA_XSP16, literal(-5)))
        CFI (cfiCond68) ?RET_HIGH load(1, XDATA, add(CFA_XSP16, literal(-4)))
        CFI (cfiCond68) ?BRET_EXT load(1, XDATA, add(CFA_XSP16, literal(-3)))
        CFI (cfiCond68) DPL0 load(1, XDATA, add(CFA_XSP16, literal(-2)))
        CFI (cfiCond68) DPH0 load(1, XDATA, add(CFA_XSP16, literal(-1)))
        CFI (cfiCond68) CFA_SP SP+0
        CFI (cfiCond68) CFA_XSP16 add(XSP16, 90)
        CFI Block cfiCond69 Using cfiCommon0
        CFI (cfiCond69) NoFunction
        CFI (cfiCond69) Conditional ??CrossCallReturnLabel_52
        CFI (cfiCond69) R6 load(1, XDATA, add(CFA_XSP16, literal(-16)))
        CFI (cfiCond69) VB load(1, XDATA, add(CFA_XSP16, literal(-15)))
        CFI (cfiCond69) V0 load(1, XDATA, add(CFA_XSP16, literal(-14)))
        CFI (cfiCond69) V1 load(1, XDATA, add(CFA_XSP16, literal(-13)))
        CFI (cfiCond69) V2 load(1, XDATA, add(CFA_XSP16, literal(-12)))
        CFI (cfiCond69) V3 load(1, XDATA, add(CFA_XSP16, literal(-11)))
        CFI (cfiCond69) V4 load(1, XDATA, add(CFA_XSP16, literal(-10)))
        CFI (cfiCond69) V5 load(1, XDATA, add(CFA_XSP16, literal(-9)))
        CFI (cfiCond69) V6 load(1, XDATA, add(CFA_XSP16, literal(-8)))
        CFI (cfiCond69) V7 load(1, XDATA, add(CFA_XSP16, literal(-7)))
        CFI (cfiCond69) R7 load(1, XDATA, add(CFA_XSP16, literal(-6)))
        CFI (cfiCond69) ?RET_LOW load(1, XDATA, add(CFA_XSP16, literal(-5)))
        CFI (cfiCond69) ?RET_HIGH load(1, XDATA, add(CFA_XSP16, literal(-4)))
        CFI (cfiCond69) ?BRET_EXT load(1, XDATA, add(CFA_XSP16, literal(-3)))
        CFI (cfiCond69) DPL0 load(1, XDATA, add(CFA_XSP16, literal(-2)))
        CFI (cfiCond69) DPH0 load(1, XDATA, add(CFA_XSP16, literal(-1)))
        CFI (cfiCond69) CFA_SP SP+0
        CFI (cfiCond69) CFA_XSP16 add(XSP16, 90)
        CFI Block cfiPicker70 Using cfiCommon1
        CFI (cfiPicker70) NoFunction
        CFI (cfiPicker70) Picker
        MOV     R3,#0x0
        LCALL   ??osal_nv_write?relay
        MOV     A,#0x4
        RET
        CFI EndBlock cfiCond64
        CFI EndBlock cfiCond65
        CFI EndBlock cfiCond66
        CFI EndBlock cfiCond67
        CFI EndBlock cfiCond68
        CFI EndBlock cfiCond69
        CFI EndBlock cfiPicker70

        RSEG BANKED_CODE:CODE:NOROOT(0)
?Subroutine11:
        CFI Block cfiCond71 Using cfiCommon0
        CFI NoFunction
        CFI Conditional ??CrossCallReturnLabel_20
        CFI R6 load(1, XDATA, add(CFA_XSP16, literal(-16)))
        CFI VB load(1, XDATA, add(CFA_XSP16, literal(-15)))
        CFI V0 load(1, XDATA, add(CFA_XSP16, literal(-14)))
        CFI V1 load(1, XDATA, add(CFA_XSP16, literal(-13)))
        CFI V2 load(1, XDATA, add(CFA_XSP16, literal(-12)))
        CFI V3 load(1, XDATA, add(CFA_XSP16, literal(-11)))
        CFI V4 load(1, XDATA, add(CFA_XSP16, literal(-10)))
        CFI V5 load(1, XDATA, add(CFA_XSP16, literal(-9)))
        CFI V6 load(1, XDATA, add(CFA_XSP16, literal(-8)))
        CFI V7 load(1, XDATA, add(CFA_XSP16, literal(-7)))
        CFI R7 load(1, XDATA, add(CFA_XSP16, literal(-6)))
        CFI ?RET_LOW load(1, XDATA, add(CFA_XSP16, literal(-5)))
        CFI ?RET_HIGH load(1, XDATA, add(CFA_XSP16, literal(-4)))
        CFI ?BRET_EXT load(1, XDATA, add(CFA_XSP16, literal(-3)))
        CFI DPL0 load(1, XDATA, add(CFA_XSP16, literal(-2)))
        CFI DPH0 load(1, XDATA, add(CFA_XSP16, literal(-1)))
        CFI CFA_SP SP+0
        CFI CFA_XSP16 add(XSP16, 86)
        CFI Block cfiCond72 Using cfiCommon0
        CFI (cfiCond72) NoFunction
        CFI (cfiCond72) Conditional ??CrossCallReturnLabel_21
        CFI (cfiCond72) R6 load(1, XDATA, add(CFA_XSP16, literal(-16)))
        CFI (cfiCond72) VB load(1, XDATA, add(CFA_XSP16, literal(-15)))
        CFI (cfiCond72) V0 load(1, XDATA, add(CFA_XSP16, literal(-14)))
        CFI (cfiCond72) V1 load(1, XDATA, add(CFA_XSP16, literal(-13)))
        CFI (cfiCond72) V2 load(1, XDATA, add(CFA_XSP16, literal(-12)))
        CFI (cfiCond72) V3 load(1, XDATA, add(CFA_XSP16, literal(-11)))
        CFI (cfiCond72) V4 load(1, XDATA, add(CFA_XSP16, literal(-10)))
        CFI (cfiCond72) V5 load(1, XDATA, add(CFA_XSP16, literal(-9)))
        CFI (cfiCond72) V6 load(1, XDATA, add(CFA_XSP16, literal(-8)))
        CFI (cfiCond72) V7 load(1, XDATA, add(CFA_XSP16, literal(-7)))
        CFI (cfiCond72) R7 load(1, XDATA, add(CFA_XSP16, literal(-6)))
        CFI (cfiCond72) ?RET_LOW load(1, XDATA, add(CFA_XSP16, literal(-5)))
        CFI (cfiCond72) ?RET_HIGH load(1, XDATA, add(CFA_XSP16, literal(-4)))
        CFI (cfiCond72) ?BRET_EXT load(1, XDATA, add(CFA_XSP16, literal(-3)))
        CFI (cfiCond72) DPL0 load(1, XDATA, add(CFA_XSP16, literal(-2)))
        CFI (cfiCond72) DPH0 load(1, XDATA, add(CFA_XSP16, literal(-1)))
        CFI (cfiCond72) CFA_SP SP+0
        CFI (cfiCond72) CFA_XSP16 add(XSP16, 86)
        CFI Block cfiCond73 Using cfiCommon0
        CFI (cfiCond73) NoFunction
        CFI (cfiCond73) Conditional ??CrossCallReturnLabel_22
        CFI (cfiCond73) R6 load(1, XDATA, add(CFA_XSP16, literal(-10)))
        CFI (cfiCond73) VB load(1, XDATA, add(CFA_XSP16, literal(-9)))
        CFI (cfiCond73) V0 load(1, XDATA, add(CFA_XSP16, literal(-8)))
        CFI (cfiCond73) V1 load(1, XDATA, add(CFA_XSP16, literal(-7)))
        CFI (cfiCond73) R7 load(1, XDATA, add(CFA_XSP16, literal(-6)))
        CFI (cfiCond73) ?RET_LOW load(1, XDATA, add(CFA_XSP16, literal(-5)))
        CFI (cfiCond73) ?RET_HIGH load(1, XDATA, add(CFA_XSP16, literal(-4)))
        CFI (cfiCond73) ?BRET_EXT load(1, XDATA, add(CFA_XSP16, literal(-3)))
        CFI (cfiCond73) DPL0 load(1, XDATA, add(CFA_XSP16, literal(-2)))
        CFI (cfiCond73) DPH0 load(1, XDATA, add(CFA_XSP16, literal(-1)))
        CFI (cfiCond73) CFA_SP SP+0
        CFI (cfiCond73) CFA_XSP16 add(XSP16, 12)
        CFI Block cfiCond74 Using cfiCommon0
        CFI (cfiCond74) NoFunction
        CFI (cfiCond74) Conditional ??CrossCallReturnLabel_23
        CFI (cfiCond74) R6 load(1, XDATA, add(CFA_XSP16, literal(-12)))
        CFI (cfiCond74) VB load(1, XDATA, add(CFA_XSP16, literal(-11)))
        CFI (cfiCond74) V0 load(1, XDATA, add(CFA_XSP16, literal(-10)))
        CFI (cfiCond74) V1 load(1, XDATA, add(CFA_XSP16, literal(-9)))
        CFI (cfiCond74) V2 load(1, XDATA, add(CFA_XSP16, literal(-8)))
        CFI (cfiCond74) V3 load(1, XDATA, add(CFA_XSP16, literal(-7)))
        CFI (cfiCond74) R7 load(1, XDATA, add(CFA_XSP16, literal(-6)))
        CFI (cfiCond74) ?RET_LOW load(1, XDATA, add(CFA_XSP16, literal(-5)))
        CFI (cfiCond74) ?RET_HIGH load(1, XDATA, add(CFA_XSP16, literal(-4)))
        CFI (cfiCond74) ?BRET_EXT load(1, XDATA, add(CFA_XSP16, literal(-3)))
        CFI (cfiCond74) DPL0 load(1, XDATA, add(CFA_XSP16, literal(-2)))
        CFI (cfiCond74) DPH0 load(1, XDATA, add(CFA_XSP16, literal(-1)))
        CFI (cfiCond74) CFA_SP SP+0
        CFI (cfiCond74) CFA_XSP16 add(XSP16, 12)
        CFI Block cfiPicker75 Using cfiCommon1
        CFI (cfiPicker75) NoFunction
        CFI (cfiPicker75) Picker
        MOVX    A,@DPTR
        MOV     R0,A
        INC     DPTR
        MOVX    A,@DPTR
        MOV     R1,A
        RET
        CFI EndBlock cfiCond71
        CFI EndBlock cfiCond72
        CFI EndBlock cfiCond73
        CFI EndBlock cfiCond74
        CFI EndBlock cfiPicker75
//  812 

        RSEG BANKED_CODE:CODE:NOROOT(0)
//  813 uint8 cb_ReadConfiguration( uint8 configId, uint8 len, void *pValue ) // it's just check the configId if existed,wont create one,unlikely osal_nv_item_init
cb_ReadConfiguration:
        CFI Block cfiBlock76 Using cfiCommon0
        CFI Function cb_ReadConfiguration
        CODE
//  814 {
        FUNCALL cb_ReadConfiguration, osal_nv_item_len
        LOCFRAME ISTACK, 0, STACK
        LOCFRAME PSTACK, 0, STACK
        LOCFRAME XSTACK, 12, STACK
        LOCFRAME IOVERLAY, 0, STATIC
        LOCFRAME DOVERLAY, 0, STATIC
        ARGFRAME ISTACK, 0, STACK
        ARGFRAME PSTACK, 0, STACK
        ARGFRAME XSTACK, 12, STACK
        ARGFRAME IOVERLAY, 0, STATIC
        ARGFRAME DOVERLAY, 0, STATIC
        FUNCALL cb_ReadConfiguration, osal_nv_read
        LOCFRAME ISTACK, 0, STACK
        LOCFRAME PSTACK, 0, STACK
        LOCFRAME XSTACK, 16, STACK
        LOCFRAME IOVERLAY, 0, STATIC
        LOCFRAME DOVERLAY, 0, STATIC
        ARGFRAME ISTACK, 0, STACK
        ARGFRAME PSTACK, 0, STACK
        ARGFRAME XSTACK, 16, STACK
        ARGFRAME IOVERLAY, 0, STATIC
        ARGFRAME DOVERLAY, 0, STATIC
        MOV     A,#-0xc
        LCALL   ?BANKED_ENTER_XDATA
        CFI DPH0 load(1, XDATA, add(CFA_XSP16, literal(-1)))
        CFI DPL0 load(1, XDATA, add(CFA_XSP16, literal(-2)))
        CFI ?BRET_EXT load(1, XDATA, add(CFA_XSP16, literal(-3)))
        CFI ?RET_HIGH load(1, XDATA, add(CFA_XSP16, literal(-4)))
        CFI ?RET_LOW load(1, XDATA, add(CFA_XSP16, literal(-5)))
        CFI R7 load(1, XDATA, add(CFA_XSP16, literal(-6)))
        CFI V3 load(1, XDATA, add(CFA_XSP16, literal(-7)))
        CFI V2 load(1, XDATA, add(CFA_XSP16, literal(-8)))
        CFI V1 load(1, XDATA, add(CFA_XSP16, literal(-9)))
        CFI V0 load(1, XDATA, add(CFA_XSP16, literal(-10)))
        CFI VB load(1, XDATA, add(CFA_XSP16, literal(-11)))
        CFI R6 load(1, XDATA, add(CFA_XSP16, literal(-12)))
        CFI CFA_SP SP+0
        CFI CFA_XSP16 add(XSP16, 12)
        ; Saved register size: 12
        ; Auto size: 0
        MOV     A,R1
        MOV     R7,A
        MOV     A,R2
        MOV     R6,A
        MOV     ?V0 + 0,R4
        MOV     ?V0 + 1,R5
//  815   uint8 size;
//  816 
//  817   size = (uint8)osal_nv_item_len( configId );
        ; Setup parameters for call to function osal_nv_item_len
        MOV     ?V0 + 2,R7
        MOV     R2,?V0 + 2
        MOV     R3,#0x0
        LCALL   ??osal_nv_item_len?relay
        MOV     A,R2
        MOV     R1,A
//  818   if ( size > len )
        MOV     A,R6
        CLR     C
        SUBB    A,R1
        JNC     ??cb_ReadConfiguration_0
//  819   {
//  820     return ZFailure;
        MOV     R1,#0x1
        SJMP    ??cb_ReadConfiguration_1
//  821   }
//  822   else
//  823   {
//  824     return( osal_nv_read(configId, 0, size, pValue) );
??cb_ReadConfiguration_0:
        ; Setup parameters for call to function osal_nv_read
        MOV     R0,#?V0 + 0
        LCALL   ?PUSH_XSTACK_I_TWO
        CFI CFA_XSP16 add(XSP16, 14)
        MOV     ?V0 + 0,R1
        MOV     ?V0 + 1,#0x0
        MOV     R0,#?V0 + 0
        LCALL   ?PUSH_XSTACK_I_TWO
        CFI CFA_XSP16 add(XSP16, 16)
        MOV     R4,#0x0
        MOV     R5,#0x0
        MOV     ?V0 + 0,R7
        MOV     R2,?V0 + 0
        MOV     R3,#0x0
        LCALL   ??osal_nv_read?relay
        MOV     A,#0x4
        LCALL   ?DEALLOC_XSTACK8
        CFI CFA_XSP16 add(XSP16, 12)
        CFI EndBlock cfiBlock76
//  825   }
??cb_ReadConfiguration_1:
        REQUIRE ?Subroutine2
        ; // Fall through to label ?Subroutine2
//  826 }

        RSEG BANKED_CODE:CODE:NOROOT(0)
?Subroutine2:
        CFI Block cfiBlock77 Using cfiCommon0
        CFI NoFunction
        CFI CFA_SP SP+0
        CFI CFA_XSP16 add(XSP16, 12)
        CFI VB load(1, XDATA, add(CFA_XSP16, literal(-11)))
        CFI DPL0 load(1, XDATA, add(CFA_XSP16, literal(-2)))
        CFI DPH0 load(1, XDATA, add(CFA_XSP16, literal(-1)))
        CFI R6 load(1, XDATA, add(CFA_XSP16, literal(-12)))
        CFI R7 load(1, XDATA, add(CFA_XSP16, literal(-6)))
        CFI V0 load(1, XDATA, add(CFA_XSP16, literal(-10)))
        CFI V1 load(1, XDATA, add(CFA_XSP16, literal(-9)))
        CFI V2 load(1, XDATA, add(CFA_XSP16, literal(-8)))
        CFI V3 load(1, XDATA, add(CFA_XSP16, literal(-7)))
        CFI ?BRET_EXT load(1, XDATA, add(CFA_XSP16, literal(-3)))
        CFI ?RET_HIGH load(1, XDATA, add(CFA_XSP16, literal(-4)))
        CFI ?RET_LOW load(1, XDATA, add(CFA_XSP16, literal(-5)))
        MOV     R7,#0x4
        LJMP    ?BANKED_LEAVE_XDATA
        CFI EndBlock cfiBlock77
//  827 

        RSEG BANKED_CODE:CODE:NOROOT(0)
//  828 uint8 cb_WriteConfiguration( uint8 configId, uint8 len, void *pValue )
cb_WriteConfiguration:
        CFI Block cfiBlock78 Using cfiCommon0
        CFI Function cb_WriteConfiguration
        CODE
//  829 {
        FUNCALL cb_WriteConfiguration, osal_nv_write
        LOCFRAME ISTACK, 0, STACK
        LOCFRAME PSTACK, 0, STACK
        LOCFRAME XSTACK, 14, STACK
        LOCFRAME IOVERLAY, 0, STATIC
        LOCFRAME DOVERLAY, 0, STATIC
        ARGFRAME ISTACK, 0, STACK
        ARGFRAME PSTACK, 0, STACK
        ARGFRAME XSTACK, 14, STACK
        ARGFRAME IOVERLAY, 0, STATIC
        ARGFRAME DOVERLAY, 0, STATIC
        MOV     A,#-0xa
        LCALL   ?BANKED_ENTER_XDATA
        CFI DPH0 load(1, XDATA, add(CFA_XSP16, literal(-1)))
        CFI DPL0 load(1, XDATA, add(CFA_XSP16, literal(-2)))
        CFI ?BRET_EXT load(1, XDATA, add(CFA_XSP16, literal(-3)))
        CFI ?RET_HIGH load(1, XDATA, add(CFA_XSP16, literal(-4)))
        CFI ?RET_LOW load(1, XDATA, add(CFA_XSP16, literal(-5)))
        CFI R7 load(1, XDATA, add(CFA_XSP16, literal(-6)))
        CFI V1 load(1, XDATA, add(CFA_XSP16, literal(-7)))
        CFI V0 load(1, XDATA, add(CFA_XSP16, literal(-8)))
        CFI VB load(1, XDATA, add(CFA_XSP16, literal(-9)))
        CFI R6 load(1, XDATA, add(CFA_XSP16, literal(-10)))
        CFI CFA_SP SP+0
        CFI CFA_XSP16 add(XSP16, 10)
        ; Saved register size: 10
        ; Auto size: 0
        MOV     A,R1
        MOV     R7,A
        MOV     A,R2
        MOV     R6,A
//  830   return( osal_nv_write(configId, 0, len, pValue) );
        ; Setup parameters for call to function osal_nv_write
        MOV     ?V0 + 0,R4
        MOV     ?V0 + 1,R5
        MOV     R0,#?V0 + 0
        LCALL   ?PUSH_XSTACK_I_TWO
        CFI CFA_XSP16 add(XSP16, 12)
        MOV     ?V0 + 0,R6
        MOV     ?V0 + 1,#0x0
        MOV     R0,#?V0 + 0
        LCALL   ?PUSH_XSTACK_I_TWO
        CFI CFA_XSP16 add(XSP16, 14)
        MOV     R4,#0x0
        MOV     R5,#0x0
        MOV     ?V0 + 0,R7
        MOV     R2,?V0 + 0
        LCALL   ??Subroutine22_0 & 0xFFFF
        CFI EndBlock cfiBlock78
??CrossCallReturnLabel_55:
        REQUIRE ?Subroutine0
        ; // Fall through to label ?Subroutine0
//  831 }

        RSEG BANKED_CODE:CODE:NOROOT(0)
?Subroutine0:
        CFI Block cfiBlock79 Using cfiCommon0
        CFI NoFunction
        CFI CFA_SP SP+0
        CFI CFA_XSP16 add(XSP16, 22)
        CFI VB load(1, XDATA, add(CFA_XSP16, literal(-9)))
        CFI DPL0 load(1, XDATA, add(CFA_XSP16, literal(-2)))
        CFI DPH0 load(1, XDATA, add(CFA_XSP16, literal(-1)))
        CFI R6 load(1, XDATA, add(CFA_XSP16, literal(-10)))
        CFI R7 load(1, XDATA, add(CFA_XSP16, literal(-6)))
        CFI V0 load(1, XDATA, add(CFA_XSP16, literal(-8)))
        CFI V1 load(1, XDATA, add(CFA_XSP16, literal(-7)))
        CFI ?BRET_EXT load(1, XDATA, add(CFA_XSP16, literal(-3)))
        CFI ?RET_HIGH load(1, XDATA, add(CFA_XSP16, literal(-4)))
        CFI ?RET_LOW load(1, XDATA, add(CFA_XSP16, literal(-5)))
        CFI Invalid
        LCALL   ?DEALLOC_XSTACK8
        CFI EndBlock cfiBlock79
        REQUIRE ??Subroutine23_0
        ; // Fall through to label ??Subroutine23_0

        RSEG BANKED_CODE:CODE:NOROOT(0)
??Subroutine23_0:
        CFI Block cfiBlock80 Using cfiCommon0
        CFI NoFunction
        CFI CFA_SP SP+0
        CFI CFA_XSP16 add(XSP16, 10)
        CFI VB load(1, XDATA, add(CFA_XSP16, literal(-9)))
        CFI DPL0 load(1, XDATA, add(CFA_XSP16, literal(-2)))
        CFI DPH0 load(1, XDATA, add(CFA_XSP16, literal(-1)))
        CFI R6 load(1, XDATA, add(CFA_XSP16, literal(-10)))
        CFI R7 load(1, XDATA, add(CFA_XSP16, literal(-6)))
        CFI V0 load(1, XDATA, add(CFA_XSP16, literal(-8)))
        CFI V1 load(1, XDATA, add(CFA_XSP16, literal(-7)))
        CFI ?BRET_EXT load(1, XDATA, add(CFA_XSP16, literal(-3)))
        CFI ?RET_HIGH load(1, XDATA, add(CFA_XSP16, literal(-4)))
        CFI ?RET_LOW load(1, XDATA, add(CFA_XSP16, literal(-5)))
        MOV     R7,#0x2
        LJMP    ?BANKED_LEAVE_XDATA
        CFI EndBlock cfiBlock80
//  832 
//  833 
//  834 /*********************************************************************
//  835  * LOCAL FUNCTIONS
//  836  */
//  837 static void GenericApp_ProcessZDOMsgs( zdoIncomingMsg_t *inMsg );
//  838 static void GenericApp_HandleKeys( byte shift, byte keys );
//  839 static void GenericApp_MessageMSGCB( afIncomingMSGPacket_t *pckt );
//  840 static void GenericApp_SendTheMessage( afIncomingMSGPacket_t* );
//  841 
//  842 #if defined( IAR_ARMCM3_LM )
//  843 static void GenericApp_ProcessRtosMessage( void );
//  844 #endif
//  845 
//  846 /*********************************************************************
//  847  * NETWORK LAYER CALLBACKS
//  848  */
//  849 
//  850 

        RSEG BANKED_CODE:CODE:NOROOT(0)
//  851 void GenericApp_Init( uint8 task_id )
GenericApp_Init:
        CFI Block cfiBlock81 Using cfiCommon0
        CFI Function GenericApp_Init
        CODE
//  852 {
        FUNCALL GenericApp_Init, afRegister
        LOCFRAME ISTACK, 0, STACK
        LOCFRAME PSTACK, 0, STACK
        LOCFRAME XSTACK, 10, STACK
        LOCFRAME IOVERLAY, 0, STATIC
        LOCFRAME DOVERLAY, 0, STATIC
        ARGFRAME ISTACK, 0, STACK
        ARGFRAME PSTACK, 0, STACK
        ARGFRAME XSTACK, 10, STACK
        ARGFRAME IOVERLAY, 0, STATIC
        ARGFRAME DOVERLAY, 0, STATIC
        FUNCALL GenericApp_Init, RegisterForKeys
        LOCFRAME ISTACK, 0, STACK
        LOCFRAME PSTACK, 0, STACK
        LOCFRAME XSTACK, 10, STACK
        LOCFRAME IOVERLAY, 0, STATIC
        LOCFRAME DOVERLAY, 0, STATIC
        ARGFRAME ISTACK, 0, STACK
        ARGFRAME PSTACK, 0, STACK
        ARGFRAME XSTACK, 10, STACK
        ARGFRAME IOVERLAY, 0, STATIC
        ARGFRAME DOVERLAY, 0, STATIC
        FUNCALL GenericApp_Init, HalLcdWriteString
        LOCFRAME ISTACK, 0, STACK
        LOCFRAME PSTACK, 0, STACK
        LOCFRAME XSTACK, 10, STACK
        LOCFRAME IOVERLAY, 0, STATIC
        LOCFRAME DOVERLAY, 0, STATIC
        ARGFRAME ISTACK, 0, STACK
        ARGFRAME PSTACK, 0, STACK
        ARGFRAME XSTACK, 10, STACK
        ARGFRAME IOVERLAY, 0, STATIC
        ARGFRAME DOVERLAY, 0, STATIC
        FUNCALL GenericApp_Init, osal_nv_item_len
        LOCFRAME ISTACK, 0, STACK
        LOCFRAME PSTACK, 0, STACK
        LOCFRAME XSTACK, 10, STACK
        LOCFRAME IOVERLAY, 0, STATIC
        LOCFRAME DOVERLAY, 0, STATIC
        ARGFRAME ISTACK, 0, STACK
        ARGFRAME PSTACK, 0, STACK
        ARGFRAME XSTACK, 10, STACK
        ARGFRAME IOVERLAY, 0, STATIC
        ARGFRAME DOVERLAY, 0, STATIC
        FUNCALL GenericApp_Init, cb_ReadConfiguration
        LOCFRAME ISTACK, 0, STACK
        LOCFRAME PSTACK, 0, STACK
        LOCFRAME XSTACK, 10, STACK
        LOCFRAME IOVERLAY, 0, STATIC
        LOCFRAME DOVERLAY, 0, STATIC
        ARGFRAME ISTACK, 0, STACK
        ARGFRAME PSTACK, 0, STACK
        ARGFRAME XSTACK, 10, STACK
        ARGFRAME IOVERLAY, 0, STATIC
        ARGFRAME DOVERLAY, 0, STATIC
        FUNCALL GenericApp_Init, uprint
        LOCFRAME ISTACK, 0, STACK
        LOCFRAME PSTACK, 0, STACK
        LOCFRAME XSTACK, 10, STACK
        LOCFRAME IOVERLAY, 0, STATIC
        LOCFRAME DOVERLAY, 0, STATIC
        ARGFRAME ISTACK, 0, STACK
        ARGFRAME PSTACK, 0, STACK
        ARGFRAME XSTACK, 10, STACK
        ARGFRAME IOVERLAY, 0, STATIC
        ARGFRAME DOVERLAY, 0, STATIC
        FUNCALL GenericApp_Init, uprint
        LOCFRAME ISTACK, 0, STACK
        LOCFRAME PSTACK, 0, STACK
        LOCFRAME XSTACK, 10, STACK
        LOCFRAME IOVERLAY, 0, STATIC
        LOCFRAME DOVERLAY, 0, STATIC
        ARGFRAME ISTACK, 0, STACK
        ARGFRAME PSTACK, 0, STACK
        ARGFRAME XSTACK, 10, STACK
        ARGFRAME IOVERLAY, 0, STATIC
        ARGFRAME DOVERLAY, 0, STATIC
        FUNCALL GenericApp_Init, ZDOInitDevice
        LOCFRAME ISTACK, 0, STACK
        LOCFRAME PSTACK, 0, STACK
        LOCFRAME XSTACK, 10, STACK
        LOCFRAME IOVERLAY, 0, STATIC
        LOCFRAME DOVERLAY, 0, STATIC
        ARGFRAME ISTACK, 0, STACK
        ARGFRAME PSTACK, 0, STACK
        ARGFRAME XSTACK, 10, STACK
        ARGFRAME IOVERLAY, 0, STATIC
        ARGFRAME DOVERLAY, 0, STATIC
        FUNCALL GenericApp_Init, uprint
        LOCFRAME ISTACK, 0, STACK
        LOCFRAME PSTACK, 0, STACK
        LOCFRAME XSTACK, 10, STACK
        LOCFRAME IOVERLAY, 0, STATIC
        LOCFRAME DOVERLAY, 0, STATIC
        ARGFRAME ISTACK, 0, STACK
        ARGFRAME PSTACK, 0, STACK
        ARGFRAME XSTACK, 10, STACK
        ARGFRAME IOVERLAY, 0, STATIC
        ARGFRAME DOVERLAY, 0, STATIC
        FUNCALL GenericApp_Init, uprint
        LOCFRAME ISTACK, 0, STACK
        LOCFRAME PSTACK, 0, STACK
        LOCFRAME XSTACK, 10, STACK
        LOCFRAME IOVERLAY, 0, STATIC
        LOCFRAME DOVERLAY, 0, STATIC
        ARGFRAME ISTACK, 0, STACK
        ARGFRAME PSTACK, 0, STACK
        ARGFRAME XSTACK, 10, STACK
        ARGFRAME IOVERLAY, 0, STATIC
        ARGFRAME DOVERLAY, 0, STATIC
        FUNCALL GenericApp_Init, io_init
        LOCFRAME ISTACK, 0, STACK
        LOCFRAME PSTACK, 0, STACK
        LOCFRAME XSTACK, 10, STACK
        LOCFRAME IOVERLAY, 0, STATIC
        LOCFRAME DOVERLAY, 0, STATIC
        ARGFRAME ISTACK, 0, STACK
        ARGFRAME PSTACK, 0, STACK
        ARGFRAME XSTACK, 10, STACK
        ARGFRAME IOVERLAY, 0, STATIC
        ARGFRAME DOVERLAY, 0, STATIC
        FUNCALL GenericApp_Init, serial_init
        LOCFRAME ISTACK, 0, STACK
        LOCFRAME PSTACK, 0, STACK
        LOCFRAME XSTACK, 10, STACK
        LOCFRAME IOVERLAY, 0, STATIC
        LOCFRAME DOVERLAY, 0, STATIC
        ARGFRAME ISTACK, 0, STACK
        ARGFRAME PSTACK, 0, STACK
        ARGFRAME XSTACK, 10, STACK
        ARGFRAME IOVERLAY, 0, STATIC
        ARGFRAME DOVERLAY, 0, STATIC
        MOV     A,#-0xa
        LCALL   ?BANKED_ENTER_XDATA
        CFI DPH0 load(1, XDATA, add(CFA_XSP16, literal(-1)))
        CFI DPL0 load(1, XDATA, add(CFA_XSP16, literal(-2)))
        CFI ?BRET_EXT load(1, XDATA, add(CFA_XSP16, literal(-3)))
        CFI ?RET_HIGH load(1, XDATA, add(CFA_XSP16, literal(-4)))
        CFI ?RET_LOW load(1, XDATA, add(CFA_XSP16, literal(-5)))
        CFI R7 load(1, XDATA, add(CFA_XSP16, literal(-6)))
        CFI V1 load(1, XDATA, add(CFA_XSP16, literal(-7)))
        CFI V0 load(1, XDATA, add(CFA_XSP16, literal(-8)))
        CFI VB load(1, XDATA, add(CFA_XSP16, literal(-9)))
        CFI R6 load(1, XDATA, add(CFA_XSP16, literal(-10)))
        CFI CFA_SP SP+0
        CFI CFA_XSP16 add(XSP16, 10)
        ; Saved register size: 10
        ; Auto size: 0
        MOV     A,R1
//  853   
//  854 //  zclSE_Init( &GenericApp_SimpleDesc );
//  855   uint16 size;
//  856   
//  857   GenericApp_TaskID = task_id;
        MOV     DPTR,#GenericApp_TaskID
        MOVX    @DPTR,A
//  858   GenericApp_NwkState = DEV_INIT;
        MOV     DPTR,#GenericApp_NwkState
        MOV     A,#0x1
        MOVX    @DPTR,A
//  859   GenericApp_TransID = 0;
        MOV     DPTR,#GenericApp_TransID
        CLR     A
        MOVX    @DPTR,A
//  860 
//  861   // Device hardware initialization can be added here or in main() (Zmain.c).
//  862   // If the hardware is application specific - add it here.
//  863   // If the hardware is other parts of the device add it in main().
//  864 
//  865   GenericApp_DstAddr.addrMode = (afAddrMode_t)Addr16Bit;
        MOV     DPTR,#GenericApp_DstAddr + 8
        MOV     A,#0x2
        MOVX    @DPTR,A
//  866   GenericApp_DstAddr.endPoint = GENERICAPP_ENDPOINT;
        INC     DPTR
        MOV     A,#0x14
        MOVX    @DPTR,A
//  867   GenericApp_DstAddr.addr.shortAddr = 0xFFFF;
        MOV     DPTR,#GenericApp_DstAddr
        MOV     A,#-0x1
        MOVX    @DPTR,A
        INC     DPTR
        MOVX    @DPTR,A
//  868 
//  869   // Fill out the endpoint description.
//  870   GenericApp_epDesc.endPoint = GENERICAPP_ENDPOINT;
        MOV     DPTR,#GenericApp_epDesc
        MOV     A,#0x14
        MOVX    @DPTR,A
//  871   GenericApp_epDesc.task_id = &GenericApp_TaskID;
        INC     DPTR
        MOV     A,#GenericApp_TaskID & 0xff
        MOVX    @DPTR,A
        INC     DPTR
        MOV     A,#(GenericApp_TaskID >> 8) & 0xff
        MOVX    @DPTR,A
//  872   GenericApp_epDesc.simpleDesc
//  873             = (SimpleDescriptionFormat_t *)&GenericApp_SimpleDesc;
        INC     DPTR
        MOV     A,#GenericApp_SimpleDesc & 0xff
        MOVX    @DPTR,A
        INC     DPTR
        MOV     A,#(GenericApp_SimpleDesc >> 8) & 0xff
        MOVX    @DPTR,A
//  874   GenericApp_epDesc.latencyReq = noLatencyReqs;
        INC     DPTR
        CLR     A
        MOVX    @DPTR,A
//  875 
//  876   // Register the endpoint description with the AF
//  877   afRegister( &GenericApp_epDesc );
        ; Setup parameters for call to function afRegister
        MOV     R2,#GenericApp_epDesc & 0xff
        MOV     R3,#(GenericApp_epDesc >> 8) & 0xff
        LCALL   ??afRegister?relay
//  878 
//  879 
//  880   RegisterForKeys( GenericApp_TaskID );
        ; Setup parameters for call to function RegisterForKeys
        MOV     DPTR,#GenericApp_TaskID
        MOVX    A,@DPTR
        MOV     R1,A
        LCALL   ??RegisterForKeys?relay
//  881 
//  882   // Update the display
//  883 #if defined ( LCD_SUPPORTED )
//  884   HalLcdWriteString( "GenericApp", HAL_LCD_LINE_1 );
        ; Setup parameters for call to function HalLcdWriteString
        MOV     R1,#0x1
        MOV     R2,#`?<Constant "GenericApp">` & 0xff
        MOV     R3,#(`?<Constant "GenericApp">` >> 8) & 0xff
        LCALL   ??HalLcdWriteString?relay
//  885 #endif
//  886 
//  887 #if !defined( ZDO_COORDINATOR )
//  888   ZDO_RegisterForZDOMsg( GenericApp_TaskID, End_Device_Bind_rsp );
//  889   ZDO_RegisterForZDOMsg( GenericApp_TaskID, Match_Desc_rsp );
//  890   
//  891 #endif
//  892 
//  893 
//  894 #if defined( IAR_ARMCM3_LM )
//  895 
//  896   RTOS_RegisterApp( task_id, GENERICAPP_RTOS_MSG_EVT );
//  897 #endif
//  898   
//  899 #if defined ( BUILD_ALL_DEVICES )
//  900   size = osal_nv_item_len( ZCD_NV_LOGICAL_TYPE );
        ; Setup parameters for call to function osal_nv_item_len
        MOV     R2,#-0x79
        MOV     R3,#0x0
        LCALL   ??osal_nv_item_len?relay
        MOV     ?V0 + 0,R2
        MOV     ?V0 + 1,R3
        MOV     R0,?V0 + 0
        MOV     R1,?V0 + 1
//  901   if( size  <= sizeof(zgDeviceLogicalType) && size != 0 )
        CLR     C
        MOV     A,R0
        SUBB    A,#0x2
        MOV     A,R1
        SUBB    A,#0x0
        JNC     ??GenericApp_Init_0
        MOV     A,R0
        ORL     A,R1
        JZ      ??GenericApp_Init_0
//  902   {
//  903     cb_ReadConfiguration( ZCD_NV_LOGICAL_TYPE, sizeof(zgDeviceLogicalType), &zgDeviceLogicalType);
        ; Setup parameters for call to function cb_ReadConfiguration
        MOV     R4,#zgDeviceLogicalType & 0xff
        MOV     R5,#(zgDeviceLogicalType >> 8) & 0xff
        MOV     R2,#0x1
        MOV     R1,#-0x79
        LCALL   ??cb_ReadConfiguration?relay
//  904   }
//  905   
//  906 #endif
//  907 
//  908 #if defined ( HOLD_AUTO_START )
//  909     // HOLD_AUTO_START is a compile option that will surpress ZDApp
//  910     //  from starting the device and wait for the application to
//  911     //  start the device.
//  912   
//  913   if(zgDeviceLogicalType == ZG_DEVICETYPE_COORDINATOR)
??GenericApp_Init_0:
        MOV     DPTR,#zgDeviceLogicalType
        MOVX    A,@DPTR
        JNZ     ??GenericApp_Init_1
//  914     uprint("Coord0\n");
        ; Setup parameters for call to function uprint
        MOV     R2,#`?<Constant "Coord0\\n">` & 0xff
        MOV     R3,#(`?<Constant "Coord0\\n">` >> 8) & 0xff
        LCALL   ??uprint?relay
//  915   if(zgDeviceLogicalType == ZG_DEVICETYPE_ROUTER)
??GenericApp_Init_1:
        MOV     DPTR,#zgDeviceLogicalType
        MOVX    A,@DPTR
        XRL     A,#0x1
        JNZ     ??GenericApp_Init_2
//  916     uprint("Router0\n");
        ; Setup parameters for call to function uprint
        MOV     R2,#`?<Constant "Router0\\n">` & 0xff
        MOV     R3,#(`?<Constant "Router0\\n">` >> 8) & 0xff
        LCALL   ??uprint?relay
//  917   
//  918   ZDOInitDevice(0);
??GenericApp_Init_2:
        ; Setup parameters for call to function ZDOInitDevice
        MOV     R2,#0x0
        MOV     R3,#0x0
        LCALL   ??ZDOInitDevice?relay
//  919   
//  920   if(zgDeviceLogicalType == ZG_DEVICETYPE_COORDINATOR)
        MOV     DPTR,#zgDeviceLogicalType
        MOVX    A,@DPTR
        JNZ     ??GenericApp_Init_3
//  921     uprint("Coord\n");
        ; Setup parameters for call to function uprint
        MOV     R2,#`?<Constant "Coord\\n">` & 0xff
        MOV     R3,#(`?<Constant "Coord\\n">` >> 8) & 0xff
        LCALL   ??uprint?relay
//  922   if(zgDeviceLogicalType == ZG_DEVICETYPE_ROUTER)
??GenericApp_Init_3:
        MOV     DPTR,#zgDeviceLogicalType
        MOVX    A,@DPTR
        XRL     A,#0x1
        JNZ     ??GenericApp_Init_4
//  923     uprint("Router\n");
        ; Setup parameters for call to function uprint
        MOV     R2,#`?<Constant "Router\\n">` & 0xff
        MOV     R3,#(`?<Constant "Router\\n">` >> 8) & 0xff
        LCALL   ??uprint?relay
//  924 
//  925   
//  926 #endif   
//  927   
//  928   io_init();
??GenericApp_Init_4:
        ; Setup parameters for call to function io_init
        LCALL   ??io_init?relay
//  929   
//  930   serial_init( );
        ; Setup parameters for call to function serial_init
        LCALL   ??serial_init?relay
//  931 
//  932   
//  933 //  HalLedSet( HAL_LED_2, HAL_LED_MODE_ON );
//  934 //  HalLedSet( HAL_LED_1, HAL_LED_MODE_ON );
//  935 //  NLME_PermitJoiningRequest(0xFE);
//  936 
//  937 
//  938   
//  939 }
        LJMP    ??Subroutine23_0 & 0xFFFF
        CFI EndBlock cfiBlock81
//  940 

        RSEG BANKED_CODE:CODE:NOROOT(0)
//  941 uint16 GenericApp_ProcessEvent( uint8 task_id, uint16 events )
GenericApp_ProcessEvent:
        CFI Block cfiBlock82 Using cfiCommon0
        CFI Function GenericApp_ProcessEvent
        CODE
//  942 {
        FUNCALL GenericApp_ProcessEvent, osal_msg_receive
        LOCFRAME ISTACK, 0, STACK
        LOCFRAME PSTACK, 0, STACK
        LOCFRAME XSTACK, 12, STACK
        LOCFRAME IOVERLAY, 0, STATIC
        LOCFRAME DOVERLAY, 0, STATIC
        ARGFRAME ISTACK, 0, STACK
        ARGFRAME PSTACK, 0, STACK
        ARGFRAME XSTACK, 12, STACK
        ARGFRAME IOVERLAY, 0, STATIC
        ARGFRAME DOVERLAY, 0, STATIC
        FUNCALL GenericApp_ProcessEvent, osal_msg_deallocate
        LOCFRAME ISTACK, 0, STACK
        LOCFRAME PSTACK, 0, STACK
        LOCFRAME XSTACK, 12, STACK
        LOCFRAME IOVERLAY, 0, STATIC
        LOCFRAME DOVERLAY, 0, STATIC
        ARGFRAME ISTACK, 0, STACK
        ARGFRAME PSTACK, 0, STACK
        ARGFRAME XSTACK, 12, STACK
        ARGFRAME IOVERLAY, 0, STATIC
        ARGFRAME DOVERLAY, 0, STATIC
        FUNCALL GenericApp_ProcessEvent, osal_msg_receive
        LOCFRAME ISTACK, 0, STACK
        LOCFRAME PSTACK, 0, STACK
        LOCFRAME XSTACK, 12, STACK
        LOCFRAME IOVERLAY, 0, STATIC
        LOCFRAME DOVERLAY, 0, STATIC
        ARGFRAME ISTACK, 0, STACK
        ARGFRAME PSTACK, 0, STACK
        ARGFRAME XSTACK, 12, STACK
        ARGFRAME IOVERLAY, 0, STATIC
        ARGFRAME DOVERLAY, 0, STATIC
        FUNCALL GenericApp_ProcessEvent, uprint
        LOCFRAME ISTACK, 0, STACK
        LOCFRAME PSTACK, 0, STACK
        LOCFRAME XSTACK, 12, STACK
        LOCFRAME IOVERLAY, 0, STATIC
        LOCFRAME DOVERLAY, 0, STATIC
        ARGFRAME ISTACK, 0, STACK
        ARGFRAME PSTACK, 0, STACK
        ARGFRAME XSTACK, 12, STACK
        ARGFRAME IOVERLAY, 0, STATIC
        ARGFRAME DOVERLAY, 0, STATIC
        FUNCALL GenericApp_ProcessEvent, ZDO_ParseEPListRsp
        LOCFRAME ISTACK, 0, STACK
        LOCFRAME PSTACK, 0, STACK
        LOCFRAME XSTACK, 12, STACK
        LOCFRAME IOVERLAY, 0, STATIC
        LOCFRAME DOVERLAY, 0, STATIC
        ARGFRAME ISTACK, 0, STACK
        ARGFRAME PSTACK, 0, STACK
        ARGFRAME XSTACK, 12, STACK
        ARGFRAME IOVERLAY, 0, STATIC
        ARGFRAME DOVERLAY, 0, STATIC
        FUNCALL GenericApp_ProcessEvent, osal_mem_free
        LOCFRAME ISTACK, 0, STACK
        LOCFRAME PSTACK, 0, STACK
        LOCFRAME XSTACK, 12, STACK
        LOCFRAME IOVERLAY, 0, STATIC
        LOCFRAME DOVERLAY, 0, STATIC
        ARGFRAME ISTACK, 0, STACK
        ARGFRAME PSTACK, 0, STACK
        ARGFRAME XSTACK, 12, STACK
        ARGFRAME IOVERLAY, 0, STATIC
        ARGFRAME DOVERLAY, 0, STATIC
        FUNCALL GenericApp_ProcessEvent, uprint
        LOCFRAME ISTACK, 0, STACK
        LOCFRAME PSTACK, 0, STACK
        LOCFRAME XSTACK, 12, STACK
        LOCFRAME IOVERLAY, 0, STATIC
        LOCFRAME DOVERLAY, 0, STATIC
        ARGFRAME ISTACK, 0, STACK
        ARGFRAME PSTACK, 0, STACK
        ARGFRAME XSTACK, 12, STACK
        ARGFRAME IOVERLAY, 0, STATIC
        ARGFRAME DOVERLAY, 0, STATIC
        FUNCALL GenericApp_ProcessEvent, HalLedSet
        LOCFRAME ISTACK, 0, STACK
        LOCFRAME PSTACK, 0, STACK
        LOCFRAME XSTACK, 12, STACK
        LOCFRAME IOVERLAY, 0, STATIC
        LOCFRAME DOVERLAY, 0, STATIC
        ARGFRAME ISTACK, 0, STACK
        ARGFRAME PSTACK, 0, STACK
        ARGFRAME XSTACK, 12, STACK
        ARGFRAME IOVERLAY, 0, STATIC
        ARGFRAME DOVERLAY, 0, STATIC
        FUNCALL GenericApp_ProcessEvent, uprint
        LOCFRAME ISTACK, 0, STACK
        LOCFRAME PSTACK, 0, STACK
        LOCFRAME XSTACK, 12, STACK
        LOCFRAME IOVERLAY, 0, STATIC
        LOCFRAME DOVERLAY, 0, STATIC
        ARGFRAME ISTACK, 0, STACK
        ARGFRAME PSTACK, 0, STACK
        ARGFRAME XSTACK, 12, STACK
        ARGFRAME IOVERLAY, 0, STATIC
        ARGFRAME DOVERLAY, 0, STATIC
        FUNCALL GenericApp_ProcessEvent, uprint
        LOCFRAME ISTACK, 0, STACK
        LOCFRAME PSTACK, 0, STACK
        LOCFRAME XSTACK, 12, STACK
        LOCFRAME IOVERLAY, 0, STATIC
        LOCFRAME DOVERLAY, 0, STATIC
        ARGFRAME ISTACK, 0, STACK
        ARGFRAME PSTACK, 0, STACK
        ARGFRAME XSTACK, 12, STACK
        ARGFRAME IOVERLAY, 0, STATIC
        ARGFRAME DOVERLAY, 0, STATIC
        FUNCALL GenericApp_ProcessEvent, uprint
        LOCFRAME ISTACK, 0, STACK
        LOCFRAME PSTACK, 0, STACK
        LOCFRAME XSTACK, 12, STACK
        LOCFRAME IOVERLAY, 0, STATIC
        LOCFRAME DOVERLAY, 0, STATIC
        ARGFRAME ISTACK, 0, STACK
        ARGFRAME PSTACK, 0, STACK
        ARGFRAME XSTACK, 12, STACK
        ARGFRAME IOVERLAY, 0, STATIC
        ARGFRAME DOVERLAY, 0, STATIC
        FUNCALL GenericApp_ProcessEvent, uprint
        LOCFRAME ISTACK, 0, STACK
        LOCFRAME PSTACK, 0, STACK
        LOCFRAME XSTACK, 12, STACK
        LOCFRAME IOVERLAY, 0, STATIC
        LOCFRAME DOVERLAY, 0, STATIC
        ARGFRAME ISTACK, 0, STACK
        ARGFRAME PSTACK, 0, STACK
        ARGFRAME XSTACK, 12, STACK
        ARGFRAME IOVERLAY, 0, STATIC
        ARGFRAME DOVERLAY, 0, STATIC
        FUNCALL GenericApp_ProcessEvent, uprint
        LOCFRAME ISTACK, 0, STACK
        LOCFRAME PSTACK, 0, STACK
        LOCFRAME XSTACK, 12, STACK
        LOCFRAME IOVERLAY, 0, STATIC
        LOCFRAME DOVERLAY, 0, STATIC
        ARGFRAME ISTACK, 0, STACK
        ARGFRAME PSTACK, 0, STACK
        ARGFRAME XSTACK, 12, STACK
        ARGFRAME IOVERLAY, 0, STATIC
        ARGFRAME DOVERLAY, 0, STATIC
        FUNCALL GenericApp_ProcessEvent, uprint
        LOCFRAME ISTACK, 0, STACK
        LOCFRAME PSTACK, 0, STACK
        LOCFRAME XSTACK, 12, STACK
        LOCFRAME IOVERLAY, 0, STATIC
        LOCFRAME DOVERLAY, 0, STATIC
        ARGFRAME ISTACK, 0, STACK
        ARGFRAME PSTACK, 0, STACK
        ARGFRAME XSTACK, 12, STACK
        ARGFRAME IOVERLAY, 0, STATIC
        ARGFRAME DOVERLAY, 0, STATIC
        FUNCALL GenericApp_ProcessEvent, uprint
        LOCFRAME ISTACK, 0, STACK
        LOCFRAME PSTACK, 0, STACK
        LOCFRAME XSTACK, 12, STACK
        LOCFRAME IOVERLAY, 0, STATIC
        LOCFRAME DOVERLAY, 0, STATIC
        ARGFRAME ISTACK, 0, STACK
        ARGFRAME PSTACK, 0, STACK
        ARGFRAME XSTACK, 12, STACK
        ARGFRAME IOVERLAY, 0, STATIC
        ARGFRAME DOVERLAY, 0, STATIC
        FUNCALL GenericApp_ProcessEvent, uprint
        LOCFRAME ISTACK, 0, STACK
        LOCFRAME PSTACK, 0, STACK
        LOCFRAME XSTACK, 12, STACK
        LOCFRAME IOVERLAY, 0, STATIC
        LOCFRAME DOVERLAY, 0, STATIC
        ARGFRAME ISTACK, 0, STACK
        ARGFRAME PSTACK, 0, STACK
        ARGFRAME XSTACK, 12, STACK
        ARGFRAME IOVERLAY, 0, STATIC
        ARGFRAME DOVERLAY, 0, STATIC
        FUNCALL GenericApp_ProcessEvent, uprint
        LOCFRAME ISTACK, 0, STACK
        LOCFRAME PSTACK, 0, STACK
        LOCFRAME XSTACK, 12, STACK
        LOCFRAME IOVERLAY, 0, STATIC
        LOCFRAME DOVERLAY, 0, STATIC
        ARGFRAME ISTACK, 0, STACK
        ARGFRAME PSTACK, 0, STACK
        ARGFRAME XSTACK, 12, STACK
        ARGFRAME IOVERLAY, 0, STATIC
        ARGFRAME DOVERLAY, 0, STATIC
        FUNCALL GenericApp_ProcessEvent, GenericApp_MessageMSGCB
        LOCFRAME ISTACK, 0, STACK
        LOCFRAME PSTACK, 0, STACK
        LOCFRAME XSTACK, 12, STACK
        LOCFRAME IOVERLAY, 0, STATIC
        LOCFRAME DOVERLAY, 0, STATIC
        ARGFRAME ISTACK, 0, STACK
        ARGFRAME PSTACK, 0, STACK
        ARGFRAME XSTACK, 12, STACK
        ARGFRAME IOVERLAY, 0, STATIC
        ARGFRAME DOVERLAY, 0, STATIC
        MOV     A,#-0xc
        LCALL   ?BANKED_ENTER_XDATA
        CFI DPH0 load(1, XDATA, add(CFA_XSP16, literal(-1)))
        CFI DPL0 load(1, XDATA, add(CFA_XSP16, literal(-2)))
        CFI ?BRET_EXT load(1, XDATA, add(CFA_XSP16, literal(-3)))
        CFI ?RET_HIGH load(1, XDATA, add(CFA_XSP16, literal(-4)))
        CFI ?RET_LOW load(1, XDATA, add(CFA_XSP16, literal(-5)))
        CFI R7 load(1, XDATA, add(CFA_XSP16, literal(-6)))
        CFI V3 load(1, XDATA, add(CFA_XSP16, literal(-7)))
        CFI V2 load(1, XDATA, add(CFA_XSP16, literal(-8)))
        CFI V1 load(1, XDATA, add(CFA_XSP16, literal(-9)))
        CFI V0 load(1, XDATA, add(CFA_XSP16, literal(-10)))
        CFI VB load(1, XDATA, add(CFA_XSP16, literal(-11)))
        CFI R6 load(1, XDATA, add(CFA_XSP16, literal(-12)))
        CFI CFA_SP SP+0
        CFI CFA_XSP16 add(XSP16, 12)
        ; Saved register size: 12
        ; Auto size: 0
        MOV     ?V0 + 0,R2
        MOV     ?V0 + 1,R3
//  943   afIncomingMSGPacket_t *MSGpkt;
//  944   afDataConfirm_t *afDataConfirm;
//  945 
//  946   // Data Confirmation message fields
//  947   byte sentEP;
//  948   ZStatus_t sentStatus;
//  949   byte sentTransID;       // This should match the value sent
//  950   (void)task_id;  // Intentionally unreferenced parameter
//  951 
//  952   if ( events & SYS_EVENT_MSG )
        MOV     A,R3
        ANL     A,#0x80
        JNZ     $+5
        LJMP    ??GenericApp_ProcessEvent_0 & 0xFFFF
//  953   {
//  954     MSGpkt = (afIncomingMSGPacket_t *)osal_msg_receive( GenericApp_TaskID );
        ; Setup parameters for call to function osal_msg_receive
        SJMP    ??GenericApp_ProcessEvent_1
//  955     while ( MSGpkt )
//  956     {
//  957       switch ( MSGpkt->hdr.event )
//  958       {
//  959         case ZDO_CB_MSG:
//  960           GenericApp_ProcessZDOMsgs( (zdoIncomingMsg_t *)MSGpkt );
//  961           break;
//  962 
//  963         case KEY_CHANGE:
//  964           {
//  965            // HalLedSet ( HAL_LED_1, HAL_LED_MODE_BLINK );
//  966            // UART_Send_String("KEY_CHANGE", 10);
//  967             GenericApp_HandleKeys( ((keyChange_t *)MSGpkt)->state, ((keyChange_t *)MSGpkt)->keys );
//  968           }
//  969           break;
//  970 
//  971         case AF_DATA_CONFIRM_CMD:
//  972           // This message is received as a confirmation of a data packet sent.
//  973           // The status is of ZStatus_t type [defined in ZComDef.h]
//  974           // The message fields are defined in AF.h
//  975           afDataConfirm = (afDataConfirm_t *)MSGpkt;
//  976           sentEP = afDataConfirm->endpoint;
//  977           sentStatus = afDataConfirm->hdr.status;
//  978           sentTransID = afDataConfirm->transID;
//  979           (void)sentEP;
//  980           (void)sentTransID;
//  981 
//  982           // Action taken when confirmation is received.
//  983           if ( sentStatus != ZSuccess )
//  984           {
//  985             // The data wasn't delivered -- Do something
//  986             uprint("AF_DATA_CONFIRM_CMD ERR");
//  987             
//  988           }
//  989           break;
//  990                   
//  991         case AF_INCOMING_MSG_CMD:
//  992           
//  993           
//  994           GenericApp_MessageMSGCB( MSGpkt );
//  995           break;
//  996 
//  997         case ZDO_STATE_CHANGE:
//  998           GenericApp_NwkState = (devStates_t)(MSGpkt->hdr.status);
??GenericApp_ProcessEvent_2:
        INC     DPTR
        MOVX    A,@DPTR
        MOV     DPTR,#GenericApp_NwkState
        MOVX    @DPTR,A
//  999           if ( (GenericApp_NwkState == DEV_ZB_COORD)
// 1000               || (GenericApp_NwkState == DEV_ROUTER)
// 1001               || (GenericApp_NwkState == DEV_END_DEVICE) )
// 1002           {
// 1003 /*
// 1004             osal_start_timerEx( GenericApp_TaskID,
// 1005                                 GENERICAPP_SEND_MSG_EVT,
// 1006                                 GENERICAPP_SEND_MSG_TIMEOUT );
// 1007 */
// 1008           }
// 1009           
// 1010           break;
// 1011 
// 1012         default:
// 1013           break;
// 1014       }
// 1015 
// 1016       // Release the memory
// 1017       osal_msg_deallocate( (uint8 *)MSGpkt );
??GenericApp_ProcessEvent_3:
        ; Setup parameters for call to function osal_msg_deallocate
        MOV     A,R6
        MOV     R2,A
        MOV     A,R7
        MOV     R3,A
        LCALL   ??osal_msg_deallocate?relay
// 1018 
// 1019       // Next
// 1020       MSGpkt = (afIncomingMSGPacket_t *)osal_msg_receive( GenericApp_TaskID );
        ; Setup parameters for call to function osal_msg_receive
??GenericApp_ProcessEvent_1:
        MOV     DPTR,#GenericApp_TaskID
        MOVX    A,@DPTR
        MOV     R1,A
        LCALL   ??osal_msg_receive?relay
        MOV     ?V0 + 2,R2
        MOV     ?V0 + 3,R3
        MOV     R6,?V0 + 2
        MOV     R7,?V0 + 3
        MOV     A,R6
        ORL     A,R7
        JNZ     $+5
        LJMP    ??GenericApp_ProcessEvent_4 & 0xFFFF
        MOV     DPL,R6
        MOV     DPH,R7
        MOVX    A,@DPTR
        ADD     A,#-0x1a
        JNZ     $+5
        LJMP    ??GenericApp_ProcessEvent_5 & 0xFFFF
        ADD     A,#0x5a
        JNZ     $+5
        LJMP    ??GenericApp_ProcessEvent_6 & 0xFFFF
        ADD     A,#-0x11
        JZ      ??GenericApp_ProcessEvent_2
        ADD     A,#-0x2
        JZ      ??GenericApp_ProcessEvent_7
        ADD     A,#-0x2a
        JNZ     $+5
        LJMP    ??GenericApp_ProcessEvent_8 & 0xFFFF
        SJMP    ??GenericApp_ProcessEvent_3
??GenericApp_ProcessEvent_7:
        MOV     A,R6
        ADD     A,#0xc
        MOV     DPL,A
        MOV     A,R7
        LCALL   ??Subroutine25_0 & 0xFFFF
??CrossCallReturnLabel_56:
        MOV     ?V0 + 2,A
        INC     DPTR
        MOVX    A,@DPTR
        MOV     ?V0 + 3,A
        MOV     R0,#?V0 + 2
        LCALL   ?US_SWITCH_SPARSE
`?<Jumptable for GenericApp_ProcessEvent>_0`:
        DATA
        DATA16
        DATA
        DATA16
        DATA
        DATA16
        DW        0
        DATA
        DATA16
        DATA
        DATA16
        DATA
        DATA16
        DW        2
        DATA
        DATA16
        DATA
        DATA16
        DATA
        DATA16
        DW        32774
        DATA
        DATA16
        DATA
        DATA16
        DATA
        DATA16
        DW        ??GenericApp_ProcessEvent_9
        DATA
        DATA16
        DATA
        DATA16
        DATA
        DATA16
        DW        32800
        DATA
        DATA16
        DATA
        DATA16
        DATA
        DATA16
        DW        ??GenericApp_ProcessEvent_10
        DATA
        DATA16
        DATA
        DATA16
        DW        ??GenericApp_ProcessEvent_11
        CODE
??GenericApp_ProcessEvent_9:
        ; Setup parameters for call to function uprint
        MOV     R2,#`?<Constant "Match_Desc_rsp">` & 0xff
        MOV     R3,#(`?<Constant "Match_Desc_rsp">` >> 8) & 0xff
        LCALL   ??uprint?relay
        ; Setup parameters for call to function ZDO_ParseEPListRsp
        MOV     A,R6
        MOV     R2,A
        MOV     A,R7
        MOV     R3,A
        LCALL   ??ZDO_ParseEPListRsp?relay
        MOV     A,R2
        ORL     A,R3
        JZ      ??GenericApp_ProcessEvent_3
        MOV     DPL,R2
        MOV     DPH,R3
        MOVX    A,@DPTR
        JNZ     ??GenericApp_ProcessEvent_12
        INC     DPTR
        INC     DPTR
        INC     DPTR
        MOVX    A,@DPTR
        JZ      ??GenericApp_ProcessEvent_12
        MOV     DPTR,#GenericApp_DstAddr + 8
        MOV     A,#0x2
        MOVX    @DPTR,A
        MOV     DPL,R2
        MOV     DPH,R3
        INC     DPTR
        LCALL   ?Subroutine11 & 0xFFFF
??CrossCallReturnLabel_23:
        MOV     DPTR,#GenericApp_DstAddr
        LCALL   ?Subroutine18 & 0xFFFF
??CrossCallReturnLabel_48:
        MOV     DPL,R2
        MOV     DPH,R3
        INC     DPTR
        INC     DPTR
        INC     DPTR
        INC     DPTR
        MOVX    A,@DPTR
        MOV     DPTR,#GenericApp_DstAddr + 9
        MOVX    @DPTR,A
??GenericApp_ProcessEvent_12:
        ; Setup parameters for call to function osal_mem_free
        LCALL   ??osal_mem_free?relay
        LJMP    ??GenericApp_ProcessEvent_3 & 0xFFFF
??GenericApp_ProcessEvent_10:
        ; Setup parameters for call to function uprint
        MOV     R2,#`?<Constant "End_Device_Bind_rsp">` & 0xff
        MOV     R3,#(`?<Constant "End_Device_Bind_rsp">` >> 8) & 0xff
        LCALL   ??uprint?relay
        MOV     A,R6
        ADD     A,#0x13
        MOV     DPL,A
        MOV     A,R7
        LCALL   ?Subroutine6 & 0xFFFF
??CrossCallReturnLabel_11:
        JZ      $+5
        LJMP    ??GenericApp_ProcessEvent_3 & 0xFFFF
        ; Setup parameters for call to function HalLedSet
        MOV     R2,#0x1
        MOV     R1,#0x2
        LCALL   ??HalLedSet?relay
        LJMP    ??GenericApp_ProcessEvent_3 & 0xFFFF
??GenericApp_ProcessEvent_11:
        ; Setup parameters for call to function uprint
        MOV     R2,#`?<Constant "GenericApp_ProcessZDO...">` & 0xff
        MOV     R3,#(`?<Constant "GenericApp_ProcessZDO...">` >> 8) & 0xff
??GenericApp_ProcessEvent_13:
        LCALL   ??uprint?relay
        LJMP    ??GenericApp_ProcessEvent_3 & 0xFFFF
??GenericApp_ProcessEvent_6:
        INC     DPTR
        INC     DPTR
        INC     DPTR
        MOVX    A,@DPTR
        MOV     ?V0 + 2,A
        MOV     C,0xE0 /* A   */.0
        JNC     ??GenericApp_ProcessEvent_14
        ; Setup parameters for call to function uprint
        MOV     R2,#`?<Constant "key1">` & 0xff
        MOV     R3,#(`?<Constant "key1">` >> 8) & 0xff
        LCALL   ??uprint?relay
??GenericApp_ProcessEvent_14:
        MOV     A,?V0 + 2
        MOV     C,0xE0 /* A   */.1
        JNC     ??GenericApp_ProcessEvent_15
        ; Setup parameters for call to function uprint
        MOV     R2,#`?<Constant "key2">` & 0xff
        MOV     R3,#(`?<Constant "key2">` >> 8) & 0xff
        LCALL   ??uprint?relay
??GenericApp_ProcessEvent_15:
        MOV     A,?V0 + 2
        MOV     C,0xE0 /* A   */.4
        JNC     ??GenericApp_ProcessEvent_16
        ; Setup parameters for call to function uprint
        MOV     R2,#`?<Constant "key3">` & 0xff
        MOV     R3,#(`?<Constant "key3">` >> 8) & 0xff
        LCALL   ??uprint?relay
??GenericApp_ProcessEvent_16:
        MOV     A,?V0 + 2
        MOV     C,0xE0 /* A   */.3
        JNC     ??GenericApp_ProcessEvent_17
        ; Setup parameters for call to function uprint
        MOV     R2,#`?<Constant "key4">` & 0xff
        MOV     R3,#(`?<Constant "key4">` >> 8) & 0xff
        LCALL   ??uprint?relay
??GenericApp_ProcessEvent_17:
        MOV     A,?V0 + 2
        MOV     C,0xE0 /* A   */.2
        JNC     ??GenericApp_ProcessEvent_18
        ; Setup parameters for call to function uprint
        MOV     R2,#`?<Constant "key5">` & 0xff
        MOV     R3,#(`?<Constant "key5">` >> 8) & 0xff
        LCALL   ??uprint?relay
??GenericApp_ProcessEvent_18:
        MOV     A,?V0 + 2
        MOV     C,0xE0 /* A   */.5
        JNC     ??GenericApp_ProcessEvent_19
        ; Setup parameters for call to function uprint
        MOV     R2,#`?<Constant "key6">` & 0xff
        MOV     R3,#(`?<Constant "key6">` >> 8) & 0xff
        LCALL   ??uprint?relay
??GenericApp_ProcessEvent_19:
        MOV     A,?V0 + 2
        MOV     C,0xE0 /* A   */.6
        JC      $+5
        LJMP    ??GenericApp_ProcessEvent_3 & 0xFFFF
        ; Setup parameters for call to function uprint
        MOV     R2,#`?<Constant "key7">` & 0xff
        MOV     R3,#(`?<Constant "key7">` >> 8) & 0xff
        SJMP    ??GenericApp_ProcessEvent_13
??GenericApp_ProcessEvent_8:
        INC     DPTR
        MOVX    A,@DPTR
        JNZ     $+5
        LJMP    ??GenericApp_ProcessEvent_3 & 0xFFFF
        ; Setup parameters for call to function uprint
        MOV     R2,#`?<Constant "AF_DATA_CONFIRM_CMD ERR">` & 0xff
        MOV     R3,#(`?<Constant "AF_DATA_CONFIRM_CMD ERR">` >> 8) & 0xff
        SJMP    ??GenericApp_ProcessEvent_13
??GenericApp_ProcessEvent_5:
        ; Setup parameters for call to function GenericApp_MessageMSGCB
        MOV     A,R6
        MOV     R2,A
        MOV     A,R7
        MOV     R3,A
        LCALL   ??GenericApp_MessageMSGCB?relay
        LJMP    ??GenericApp_ProcessEvent_3 & 0xFFFF
// 1021     }
// 1022 
// 1023     // return unprocessed events
// 1024     return (events ^ SYS_EVENT_MSG);
??GenericApp_ProcessEvent_4:
        MOV     R2,?V0 + 0
        MOV     A,?V0 + 1
        XRL     A,#0x80
        MOV     R3,A
        SJMP    ??GenericApp_ProcessEvent_20
// 1025   }
// 1026 
// 1027   // Send a message out - This event is generated by a timer
// 1028   //  (setup in GenericApp_Init()).
// 1029 
// 1030 
// 1031   
// 1032 #if defined( IAR_ARMCM3_LM )
// 1033   // Receive a message from the RTOS queue
// 1034   if ( events & GENERICAPP_RTOS_MSG_EVT )
// 1035   {
// 1036     // Process message from RTOS queue
// 1037     GenericApp_ProcessRtosMessage();
// 1038 
// 1039     // return unprocessed events
// 1040     return (events ^ GENERICAPP_RTOS_MSG_EVT);
// 1041   }
// 1042 #endif
// 1043 
// 1044   // Discard unknown events
// 1045   return 0;
??GenericApp_ProcessEvent_0:
        MOV     R2,#0x0
        MOV     R3,#0x0
??GenericApp_ProcessEvent_20:
        LJMP    ?Subroutine2 & 0xFFFF
        CFI EndBlock cfiBlock82
// 1046 }
// 1047 
// 1048 
// 1049 static void GenericApp_ProcessZDOMsgs( zdoIncomingMsg_t *inMsg )
// 1050 {
// 1051   
// 1052   
// 1053   switch ( inMsg->clusterID )
// 1054   {
// 1055     case End_Device_Bind_rsp:
// 1056       uprint("End_Device_Bind_rsp");
// 1057       if ( ZDO_ParseBindRsp( inMsg ) == ZSuccess )
// 1058       {
// 1059         // Light LED
// 1060         HalLedSet( HAL_LED_2, HAL_LED_MODE_ON );
// 1061       }
// 1062 #if defined( BLINK_LEDS )
// 1063       else
// 1064       {
// 1065         // Flash LED to show failure
// 1066         //HalLedSet ( HAL_LED_1, HAL_LED_MODE_FLASH );
// 1067       }
// 1068 #endif
// 1069       break;
// 1070 
// 1071     case Match_Desc_rsp:
// 1072       {
// 1073         uprint("Match_Desc_rsp");
// 1074         
// 1075         ZDO_ActiveEndpointRsp_t *pRsp = ZDO_ParseEPListRsp( inMsg );
// 1076         if ( pRsp )
// 1077         {
// 1078           if ( pRsp->status == ZSuccess && pRsp->cnt )
// 1079           {
// 1080             GenericApp_DstAddr.addrMode = (afAddrMode_t)Addr16Bit;
// 1081             GenericApp_DstAddr.addr.shortAddr = pRsp->nwkAddr;
// 1082             // Take the first endpoint, Can be changed to search through endpoints
// 1083             GenericApp_DstAddr.endPoint = pRsp->epList[0];
// 1084 
// 1085             // Light LED
// 1086             //HalLedSet( HAL_LED_1, HAL_LED_MODE_ON );
// 1087           }
// 1088           osal_mem_free( pRsp );
// 1089         }
// 1090       }
// 1091       break;
// 1092   default:
// 1093       uprint("GenericApp_ProcessZDOMsgs");
// 1094       break;
// 1095   }
// 1096 }
// 1097 
// 1098 /*********************************************************************
// 1099  * @fn      GenericApp_HandleKeys
// 1100  *
// 1101  * @brief   Handles all key events for this device.
// 1102  *
// 1103  * @param   shift - true if in shift/alt.
// 1104  * @param   keys - bit field for key events. Valid entries:
// 1105  *                 HAL_KEY_SW_4
// 1106  *                 HAL_KEY_SW_3
// 1107  *                 HAL_KEY_SW_2
// 1108  *                 HAL_KEY_SW_1
// 1109  *
// 1110  * @return  none
// 1111  */
// 1112 static void GenericApp_HandleKeys( uint8 shift, uint8 keys )
// 1113 {
// 1114   zAddrType_t dstAddr;
// 1115 
// 1116   // Shift is used to make each button/switch dual purpose.
// 1117   ///UART_Send_String( (byte*)keys, 1);
// 1118 
// 1119     if ( keys & HAL_KEY_SW_1 )
// 1120     {
// 1121        uprint("key1");
// 1122     }
// 1123     if ( keys & HAL_KEY_SW_2 )
// 1124     {
// 1125       uprint("key2");
// 1126     }
// 1127     if ( keys & HAL_KEY_SW_3 )
// 1128     {
// 1129       uprint("key3");
// 1130     }
// 1131     if ( keys & HAL_KEY_SW_4 )
// 1132     {
// 1133       uprint("key4");
// 1134     }
// 1135     
// 1136     if ( keys & HAL_KEY_SW_5 )
// 1137     {
// 1138       uprint("key5");
// 1139     }
// 1140 
// 1141     if ( keys & HAL_KEY_SW_6 )
// 1142     {
// 1143       uprint("key6");
// 1144     }
// 1145     
// 1146     if ( keys & HAL_KEY_SW_7 )
// 1147     {
// 1148       uprint("key7");
// 1149     }
// 1150    
// 1151 /*  
// 1152   if ( shift )
// 1153   {
// 1154  
// 1155     if ( keys & HAL_KEY_SW_1 )
// 1156     {
// 1157        uprint("key1");
// 1158     }
// 1159     if ( keys & HAL_KEY_SW_2 )
// 1160     {
// 1161       uprint("key2");
// 1162     }
// 1163     if ( keys & HAL_KEY_SW_3 )
// 1164     {
// 1165       uprint("key3");
// 1166     }
// 1167     if ( keys & HAL_KEY_SW_4 )
// 1168     {
// 1169       uprint("key4");
// 1170     }
// 1171     
// 1172     if ( keys & HAL_KEY_SW_5 )
// 1173     {
// 1174       uprint("key5");
// 1175     }
// 1176 
// 1177     if ( keys & HAL_KEY_SW_6 )
// 1178    {
// 1179       uprint("key6");
// 1180    }
// 1181    if ( keys & HAL_KEY_SW_7 )
// 1182    {
// 1183       uprint("key7");
// 1184    }
// 1185   }
// 1186   else
// 1187   {
// 1188 
// 1189     if ( keys & HAL_KEY_SW_2 )
// 1190     {
// 1191       uprint("key2 no s");
// 1192       HalLedSet ( HAL_LED_1, HAL_LED_MODE_OFF );
// 1193 
// 1194       // Initiate an End Device Bind Request for the mandatory endpoint
// 1195       dstAddr.addrMode = Addr16Bit;
// 1196       dstAddr.addr.shortAddr = 0x0000; // Coordinator
// 1197       ZDP_EndDeviceBindReq( &dstAddr, NLME_GetShortAddr(),
// 1198                             GenericApp_epDesc.endPoint,
// 1199                             GENERICAPP_PROFID,
// 1200                             GENERICAPP_MAX_CLUSTERS, (cId_t *)GenericApp_ClusterList,
// 1201                             GENERICAPP_MAX_CLUSTERS, (cId_t *)GenericApp_ClusterList,
// 1202                             FALSE );
// 1203     }
// 1204 
// 1205     if ( keys & HAL_KEY_SW_1 )
// 1206     {
// 1207       uprint("key1 no s");
// 1208     }
// 1209     
// 1210     if ( keys & HAL_KEY_SW_4 )
// 1211    {
// 1212       uprint("key4 no s");
// 1213       HalLedSet ( HAL_LED_1, HAL_LED_MODE_OFF );
// 1214       // Initiate a Match Description Request (Service Discovery)
// 1215       dstAddr.addrMode = AddrBroadcast;
// 1216       dstAddr.addr.shortAddr = NWK_BROADCAST_SHORTADDR;
// 1217       ZDP_MatchDescReq( &dstAddr, NWK_BROADCAST_SHORTADDR,
// 1218                         GENERICAPP_PROFID,
// 1219                         GENERICAPP_MAX_CLUSTERS, (cId_t *)GenericApp_ClusterList,
// 1220                         GENERICAPP_MAX_CLUSTERS, (cId_t *)GenericApp_ClusterList,
// 1221                         FALSE );
// 1222     }
// 1223     
// 1224     if ( keys & HAL_KEY_SW_6 )
// 1225     {
// 1226       uprint("key6 no s");
// 1227       AF_DataRequest( &GenericApp_DstAddr, &GenericApp_epDesc,
// 1228                        GENERICAPP_CLUSTERID,
// 1229                        6,
// 1230                        "hello6",
// 1231                        &GenericApp_TransID,
// 1232                        AF_DISCV_ROUTE, AF_DEFAULT_RADIUS );         
// 1233     }   
// 1234 
// 1235     if ( keys & HAL_KEY_SW_7 )
// 1236     {
// 1237       uprint("key7 no s");    
// 1238     }
// 1239   }
// 1240 */
// 1241   /*
// 1242       HalLedSet ( HAL_LED_1, HAL_LED_MODE_FLASH );
// 1243 
// 1244       dstAddr.addrMode = AddrBroadcast;
// 1245       dstAddr.addr.shortAddr = NWK_BROADCAST_SHORTADDR;
// 1246       ZDP_MatchDescReq( &dstAddr, NWK_BROADCAST_SHORTADDR,
// 1247                         GENERICAPP_PROFID,
// 1248                         GENERICAPP_MAX_CLUSTERS, (cId_t *)GenericApp_ClusterList,
// 1249                         GENERICAPP_MAX_CLUSTERS, (cId_t *)GenericApp_ClusterList,
// 1250                         FALSE );
// 1251     */  
// 1252 
// 1253 }
// 1254 
// 1255 /*********************************************************************
// 1256  * LOCAL FUNCTIONS
// 1257  */
// 1258 
// 1259 /*********************************************************************
// 1260  * @fn      GenericApp_MessageMSGCB
// 1261  *
// 1262  * @brief   Data message processor callback.  This function processes
// 1263  *          any incoming data - probably from other devices.  So, based
// 1264  *          on cluster ID, perform the intended action.
// 1265  *
// 1266  * @param   none
// 1267  *
// 1268  * @return  none
// 1269  */

        RSEG BANKED_CODE:CODE:NOROOT(0)
// 1270 static void GenericApp_MessageMSGCB( afIncomingMSGPacket_t *pkt )
GenericApp_MessageMSGCB:
        CFI Block cfiBlock83 Using cfiCommon0
        CFI Function GenericApp_MessageMSGCB
        CODE
// 1271 {
        FUNCALL GenericApp_MessageMSGCB, UART_Send_String
        LOCFRAME ISTACK, 2, STACK
        LOCFRAME PSTACK, 0, STACK
        LOCFRAME XSTACK, 0, STACK
        LOCFRAME IOVERLAY, 0, STATIC
        LOCFRAME DOVERLAY, 0, STATIC
        ARGFRAME ISTACK, 2, STACK
        ARGFRAME PSTACK, 0, STACK
        ARGFRAME XSTACK, 0, STACK
        ARGFRAME IOVERLAY, 0, STATIC
        ARGFRAME DOVERLAY, 0, STATIC
        PUSH    DPL
        CFI DPL0 Frame(CFA_SP, 4)
        CFI CFA_SP SP+-4
        PUSH    DPH
        CFI DPH0 Frame(CFA_SP, 5)
        CFI CFA_SP SP+-5
        ; Saved register size: 2
        ; Auto size: 0
// 1272   unsigned char buff[12];
// 1273 
// 1274   byte nr;
// 1275   uint8 i;
// 1276   uint8 ass_num;
// 1277 
// 1278   uint8 yy1;
// 1279   
// 1280   afAddrType_t myaddr; // use for p2p
// 1281   
// 1282   ass_num = 0;
// 1283   
// 1284   switch ( pkt->clusterId )
        MOV     DPL,R2
        MOV     DPH,R3
        INC     DPTR
        INC     DPTR
        INC     DPTR
        INC     DPTR
        MOVX    A,@DPTR
        XRL     A,#0x1
        JNZ     ??GenericApp_MessageMSGCB_0
        INC     DPTR
        MOVX    A,@DPTR
??GenericApp_MessageMSGCB_0:
        JZ      $+5
        LJMP    ??GenericApp_MessageMSGCB_1 & 0xFFFF
// 1285   {
// 1286     case GENERICAPP_CLUSTERID:
// 1287     if( pkt->cmd.DataLength == 1)
// 1288     {      
// 1289         yy1 = 1;
// 1290 #if !defined( ZDO_COORDINATOR ) 
// 1291         if(pkt->cmd.Data[0] == 0x6d)
// 1292         {
// 1293           /// return mac address : ac xx xx ieee addr
// 1294                myaddr.addrMode = (afAddrMode_t)Addr16Bit;
// 1295                myaddr.endPoint = GENERICAPP_ENDPOINT;          
// 1296                myaddr.addr.shortAddr = 0x0000;
// 1297                
// 1298             ieeeAddr = NLME_GetExtAddr();
// 1299             osal_cpyExtAddr(buff+3, ieeeAddr);
// 1300             buff[0] = 0xac;
// 1301             buff[1] = LO_UINT16(_NIB.nwkDevAddress);
// 1302             buff[2] = HI_UINT16(_NIB.nwkDevAddress);
// 1303             if ( AF_DataRequest( &myaddr, &GenericApp_epDesc, GENERICAPP_CLUSTERID,  11,
// 1304                           &buff[0],
// 1305                           &GenericApp_TransID,
// 1306                           AF_DISCV_ROUTE, AF_DEFAULT_RADIUS ) != afStatus_SUCCESS )
// 1307             {
// 1308                  AF_DataRequest( &myaddr, &GenericApp_epDesc, GENERICAPP_CLUSTERID,  11,
// 1309                           &buff[0],
// 1310                           &GenericApp_TransID,
// 1311                           AF_DISCV_ROUTE, AF_DEFAULT_RADIUS );
// 1312               // send twice only, if it is still not ok, fuck it
// 1313             }            
// 1314             
// 1315         }
// 1316         // only routers return devlist
// 1317         if( pkt->cmd.Data[0] == 0xCA )
// 1318         {
// 1319                myaddr.addrMode = (afAddrMode_t)Addr16Bit;
// 1320                myaddr.endPoint = GENERICAPP_ENDPOINT;          
// 1321                myaddr.addr.shortAddr = 0x0000;
// 1322           
// 1323         ass_num = AssocCount(1, 4);
// 1324       //  if( ass_num > 0)
// 1325         //{
// 1326           for(i=0;i< NWK_MAX_DEVICES; i++)
// 1327           {
// 1328              nr = AssociatedDevList[ i ].nodeRelation;
// 1329               if(nr > 0 && nr < 5) //CHILD_RFD CHILD_RFD_RX_IDLE CHILD_FFD CHILD_FFD_RX_IDLE
// 1330              //if( nr != 0XFF)
// 1331              {
// 1332              //  if( AssociatedDevList[ i ].shortAddr != 0x0000)
// 1333              //  {
// 1334                   //if( AssocIsChild( AssociatedDevList[ i ].shortAddr ) != 1 || AssociatedDevList[ i ].age > NWK_ROUTE_AGE_LIMIT)
// 1335                   //if( AssocIsChild( AssociatedDevList[ i ].shortAddr ) == 1 && AssociatedDevList[ i ].age > NWK_ROUTE_AGE_LIMIT )
// 1336                  // {
// 1337                     //  myaddr.addr.shortAddr = AssociatedDevList[ i ].shortAddr;
// 1338                       /*
// 1339                       if ( AF_DataRequest( &myaddr, &GenericApp_epDesc, GENERICAPP_CLUSTERID,(byte)osal_strlen( theMessageData ) + 1,
// 1340                               (byte *)&theMessageData,
// 1341                               &GenericApp_TransID,
// 1342                               AF_ACK_REQUEST, AF_DEFAULT_RADIUS ) != afStatus_SUCCESS )
// 1343                         {
// 1344                           uprint("delete asso");
// 1345                         */
// 1346                    //       delete_asso( AssociatedDevList[ i ]. addrIdx);
// 1347                           
// 1348                   // }
// 1349                     //    else
// 1350                      //   {
// 1351                           devlist[yy1] = AssociatedDevList[ i ].shortAddr;
// 1352                           yy1++;
// 1353                      //   }
// 1354                   
// 1355                   // }
// 1356              }
// 1357               else { break; }
// 1358           }
// 1359        // }else
// 1360         //{
// 1361           //devlist[yy1] = 0;
// 1362         //}
// 1363           devlist[0] = BUILD_UINT16(0xce,  ass_num );
// 1364           if ( AF_DataRequest( &myaddr, &GenericApp_epDesc, GENERICAPP_CLUSTERID, yy1*2,
// 1365                           (byte *)&devlist,
// 1366                           &GenericApp_TransID,
// 1367                           AF_DISCV_ROUTE, AF_DEFAULT_RADIUS ) != afStatus_SUCCESS )
// 1368           {
// 1369               AF_DataRequest( &myaddr, &GenericApp_epDesc, GENERICAPP_CLUSTERID, yy1*2,
// 1370                           (byte *)&devlist,
// 1371                           &GenericApp_TransID,
// 1372                           AF_DISCV_ROUTE, AF_DEFAULT_RADIUS );
// 1373              // send twice only, if it is still not ok, fuck it
// 1374           }
// 1375         
// 1376           
// 1377           //cb_SendDataRequest( 0x0000, GENERICAPP_CLUSTERID, yy1*2+1, (uint8*)&devlist[0], 0, AF_DISCV_ROUTE, 0 );
// 1378           
// 1379           //UART_Send_String( (uint8*)&devlist[0], yy1*2);
// 1380           
// 1381             //p1 = AssocMakeList( &cnt );
// 1382             //UART_Send_String( (uint8*)p1,  AssocCount(1, 4)*2);
// 1383             //osal_mem_free(p1);
// 1384         }
// 1385 #endif  
// 1386     } //if( pkt->cmd.DataLength == 1)
// 1387     
// 1388     if( pkt->cmd.DataLength == 3)
        LCALL   ?Subroutine9 & 0xFFFF
??CrossCallReturnLabel_58:
        XRL     A,#0x3
        JNZ     ??GenericApp_MessageMSGCB_2
        INC     DPTR
        MOVX    A,@DPTR
??GenericApp_MessageMSGCB_2:
        JNZ     ??GenericApp_MessageMSGCB_3
// 1389     { 
// 1390         //ed fa 01 ,turn on led 1
// 1391         //ed ff 01  turn off led 1
// 1392         if( pkt->cmd.Data[0] == 0xed  && pkt->cmd.Data[1] == 0xfa )
        MOV     A,R2
        ADD     A,#0x22
        MOV     DPL,A
        MOV     A,R3
        LCALL   ?Subroutine6 & 0xFFFF
??CrossCallReturnLabel_12:
        XRL     A,#0xed
        JNZ     ??GenericApp_MessageMSGCB_4
        LCALL   ?Subroutine4 & 0xFFFF
??CrossCallReturnLabel_3:
        XRL     A,#0xfa
        JNZ     ??GenericApp_MessageMSGCB_4
// 1393         {
// 1394             switch(pkt->cmd.Data[2])
        LCALL   ?Subroutine3 & 0xFFFF
??CrossCallReturnLabel_0:
        JZ      ??GenericApp_MessageMSGCB_5
        DEC     A
        JZ      ??GenericApp_MessageMSGCB_6
        SJMP    ??GenericApp_MessageMSGCB_4
// 1395             {
// 1396               case 0x01:
// 1397                 LED1 = 1;
??GenericApp_MessageMSGCB_5:
        SETB    0x90.0
// 1398                 break;
        SJMP    ??GenericApp_MessageMSGCB_4
// 1399               case 0x02:
// 1400                  LED2 = 1;
??GenericApp_MessageMSGCB_6:
        SETB    0x90.1
// 1401                 break;
// 1402               default:break;
// 1403             }
// 1404                    
// 1405         }
// 1406         if( pkt->cmd.Data[0] == 0xed  && pkt->cmd.Data[1] == 0xff )
??GenericApp_MessageMSGCB_4:
        LCALL   ?Subroutine7 & 0xFFFF
??CrossCallReturnLabel_13:
        JNZ     ??GenericApp_MessageMSGCB_7
        LCALL   ?Subroutine4 & 0xFFFF
??CrossCallReturnLabel_4:
        CPL     A
        JNZ     ??GenericApp_MessageMSGCB_7
// 1407         {
// 1408             switch(pkt->cmd.Data[2])
        LCALL   ?Subroutine3 & 0xFFFF
??CrossCallReturnLabel_1:
        JZ      ??GenericApp_MessageMSGCB_8
        DEC     A
        JZ      ??GenericApp_MessageMSGCB_9
        SJMP    ??GenericApp_MessageMSGCB_7
// 1409             {
// 1410               case 0x01:
// 1411                 LED1 = 0;
??GenericApp_MessageMSGCB_8:
        CLR     0x90.0
// 1412                 break;
        SJMP    ??GenericApp_MessageMSGCB_7
// 1413               case 0x02:
// 1414                  LED2 = 0;
??GenericApp_MessageMSGCB_9:
        CLR     0x90.1
// 1415                 break;
// 1416               default:break;
// 1417             }          
// 1418         }
// 1419         if( pkt->cmd.Data[0] == 0xed  && pkt->cmd.Data[1] == 0xfc ) //
??GenericApp_MessageMSGCB_7:
        LCALL   ?Subroutine7 & 0xFFFF
??CrossCallReturnLabel_14:
        JNZ     ??GenericApp_MessageMSGCB_3
        LCALL   ?Subroutine4 & 0xFFFF
??CrossCallReturnLabel_5:
        XRL     A,#0xfc
        JNZ     ??GenericApp_MessageMSGCB_3
// 1420         {
// 1421             switch(pkt->cmd.Data[2])
        LCALL   ?Subroutine3 & 0xFFFF
??CrossCallReturnLabel_2:
        JZ      ??GenericApp_MessageMSGCB_10
        DEC     A
        JZ      ??GenericApp_MessageMSGCB_11
        SJMP    ??GenericApp_MessageMSGCB_3
// 1422             {
// 1423               case 0x01:
// 1424                 LED1 = !LED1;
??GenericApp_MessageMSGCB_10:
        SETB    B.0
        MOV     C,0x90.0
        JNB     B.0,??GenericApp_MessageMSGCB_12
        CPL     C
??GenericApp_MessageMSGCB_12:
        MOV     0x90.0,C
// 1425                 break;
        SJMP    ??GenericApp_MessageMSGCB_3
// 1426               case 0x02:
// 1427                  LED2 = !LED2;
??GenericApp_MessageMSGCB_11:
        SETB    B.0
        MOV     C,0x90.1
        JNB     B.0,??GenericApp_MessageMSGCB_13
        CPL     C
??GenericApp_MessageMSGCB_13:
        MOV     0x90.1,C
// 1428                 break;
// 1429               default:break;
// 1430             }          
// 1431         }
// 1432         
// 1433     } // if( pkt->cmd.DataLength == 3)
// 1434     
// 1435 #if defined( LCD_SUPPORTED )
// 1436       UART_Send_String( &pkt->cmd.Data[0], pkt->cmd.DataLength);
??GenericApp_MessageMSGCB_3:
        ; Setup parameters for call to function UART_Send_String
        LCALL   ?Subroutine9 & 0xFFFF
??CrossCallReturnLabel_59:
        MOV     R4,A
        INC     DPTR
        MOVX    A,@DPTR
        MOV     R5,A
        MOV     A,R2
        ADD     A,#0x22
        LCALL   ??Subroutine24_0 & 0xFFFF
??CrossCallReturnLabel_57:
        MOV     R2,A
        INC     DPTR
        MOVX    A,@DPTR
        MOV     R3,A
        LCALL   ??UART_Send_String?relay
// 1437 #endif
// 1438     
// 1439       break;
// 1440   default:break;
// 1441   }
// 1442   
// 1443   
// 1444 
// 1445   
// 1446 }
??GenericApp_MessageMSGCB_1:
        LJMP    ?Subroutine1 & 0xFFFF
        CFI EndBlock cfiBlock83
        REQUIRE _A_P1

        RSEG BANKED_CODE:CODE:NOROOT(0)
?Subroutine9:
        CFI Block cfiCond84 Using cfiCommon0
        CFI NoFunction
        CFI Conditional ??CrossCallReturnLabel_58
        CFI DPL0 Frame(CFA_SP, 4)
        CFI DPH0 Frame(CFA_SP, 5)
        CFI CFA_SP SP+-5
        CFI Block cfiCond85 Using cfiCommon0
        CFI (cfiCond85) NoFunction
        CFI (cfiCond85) Conditional ??CrossCallReturnLabel_59
        CFI (cfiCond85) DPL0 Frame(CFA_SP, 4)
        CFI (cfiCond85) DPH0 Frame(CFA_SP, 5)
        CFI (cfiCond85) CFA_SP SP+-5
        CFI Block cfiPicker86 Using cfiCommon1
        CFI (cfiPicker86) NoFunction
        CFI (cfiPicker86) Picker
        MOV     A,R2
        ADD     A,#0x20
        CFI EndBlock cfiCond84
        CFI EndBlock cfiCond85
        CFI EndBlock cfiPicker86
        REQUIRE ??Subroutine24_0
        ; // Fall through to label ??Subroutine24_0

        RSEG BANKED_CODE:CODE:NOROOT(0)
??Subroutine24_0:
        CFI Block cfiCond87 Using cfiCommon0
        CFI NoFunction
        CFI Conditional ??CrossCallReturnLabel_57
        CFI DPL0 Frame(CFA_SP, 4)
        CFI DPH0 Frame(CFA_SP, 5)
        CFI CFA_SP SP+-5
        CFI Block cfiCond88 Using cfiCommon0
        CFI (cfiCond88) NoFunction
        CFI (cfiCond88) Conditional ??CrossCallReturnLabel_58
        CFI (cfiCond88) DPL0 Frame(CFA_SP, 4)
        CFI (cfiCond88) DPH0 Frame(CFA_SP, 5)
        CFI (cfiCond88) CFA_SP SP+-5
        CFI Block cfiCond89 Using cfiCommon0
        CFI (cfiCond89) NoFunction
        CFI (cfiCond89) Conditional ??CrossCallReturnLabel_59
        CFI (cfiCond89) DPL0 Frame(CFA_SP, 4)
        CFI (cfiCond89) DPH0 Frame(CFA_SP, 5)
        CFI (cfiCond89) CFA_SP SP+-5
        CFI Block cfiPicker90 Using cfiCommon1
        CFI (cfiPicker90) NoFunction
        CFI (cfiPicker90) Picker
        MOV     DPL,A
        MOV     A,R3
        CFI EndBlock cfiCond87
        CFI EndBlock cfiCond88
        CFI EndBlock cfiCond89
        CFI EndBlock cfiPicker90
        REQUIRE ??Subroutine25_0
        ; // Fall through to label ??Subroutine25_0

        RSEG BANKED_CODE:CODE:NOROOT(0)
??Subroutine25_0:
        CFI Block cfiCond91 Using cfiCommon0
        CFI NoFunction
        CFI Conditional ??CrossCallReturnLabel_56
        CFI R6 load(1, XDATA, add(CFA_XSP16, literal(-12)))
        CFI VB load(1, XDATA, add(CFA_XSP16, literal(-11)))
        CFI V0 load(1, XDATA, add(CFA_XSP16, literal(-10)))
        CFI V1 load(1, XDATA, add(CFA_XSP16, literal(-9)))
        CFI V2 load(1, XDATA, add(CFA_XSP16, literal(-8)))
        CFI V3 load(1, XDATA, add(CFA_XSP16, literal(-7)))
        CFI R7 load(1, XDATA, add(CFA_XSP16, literal(-6)))
        CFI ?RET_LOW load(1, XDATA, add(CFA_XSP16, literal(-5)))
        CFI ?RET_HIGH load(1, XDATA, add(CFA_XSP16, literal(-4)))
        CFI ?BRET_EXT load(1, XDATA, add(CFA_XSP16, literal(-3)))
        CFI DPL0 load(1, XDATA, add(CFA_XSP16, literal(-2)))
        CFI DPH0 load(1, XDATA, add(CFA_XSP16, literal(-1)))
        CFI CFA_SP SP+0
        CFI CFA_XSP16 add(XSP16, 12)
        CFI Block cfiCond92 Using cfiCommon0
        CFI (cfiCond92) NoFunction
        CFI (cfiCond92) Conditional ??CrossCallReturnLabel_57
        CFI (cfiCond92) DPL0 Frame(CFA_SP, 4)
        CFI (cfiCond92) DPH0 Frame(CFA_SP, 5)
        CFI (cfiCond92) CFA_SP SP+-5
        CFI Block cfiCond93 Using cfiCommon0
        CFI (cfiCond93) NoFunction
        CFI (cfiCond93) Conditional ??CrossCallReturnLabel_58
        CFI (cfiCond93) DPL0 Frame(CFA_SP, 4)
        CFI (cfiCond93) DPH0 Frame(CFA_SP, 5)
        CFI (cfiCond93) CFA_SP SP+-5
        CFI Block cfiCond94 Using cfiCommon0
        CFI (cfiCond94) NoFunction
        CFI (cfiCond94) Conditional ??CrossCallReturnLabel_59
        CFI (cfiCond94) DPL0 Frame(CFA_SP, 4)
        CFI (cfiCond94) DPH0 Frame(CFA_SP, 5)
        CFI (cfiCond94) CFA_SP SP+-5
        CFI Block cfiPicker95 Using cfiCommon1
        CFI (cfiPicker95) NoFunction
        CFI (cfiPicker95) Picker
        ADDC    A,#0x0
        MOV     DPH,A
        MOVX    A,@DPTR
        RET
        CFI EndBlock cfiCond91
        CFI EndBlock cfiCond92
        CFI EndBlock cfiCond93
        CFI EndBlock cfiCond94
        CFI EndBlock cfiPicker95

        RSEG BANKED_CODE:CODE:NOROOT(0)
?Subroutine7:
        CFI Block cfiCond96 Using cfiCommon0
        CFI NoFunction
        CFI Conditional ??CrossCallReturnLabel_13
        CFI DPL0 Frame(CFA_SP, 4)
        CFI DPH0 Frame(CFA_SP, 5)
        CFI CFA_SP SP+-5
        CFI Block cfiCond97 Using cfiCommon0
        CFI (cfiCond97) NoFunction
        CFI (cfiCond97) Conditional ??CrossCallReturnLabel_14
        CFI (cfiCond97) DPL0 Frame(CFA_SP, 4)
        CFI (cfiCond97) DPH0 Frame(CFA_SP, 5)
        CFI (cfiCond97) CFA_SP SP+-5
        CFI Block cfiPicker98 Using cfiCommon1
        CFI (cfiPicker98) NoFunction
        CFI (cfiPicker98) Picker
        LCALL   ?Subroutine19 & 0xFFFF
??CrossCallReturnLabel_38:
        MOVX    A,@DPTR
        XRL     A,#0xed
        RET
        CFI EndBlock cfiCond96
        CFI EndBlock cfiCond97
        CFI EndBlock cfiPicker98

        RSEG BANKED_CODE:CODE:NOROOT(0)
?Subroutine6:
        CFI Block cfiCond99 Using cfiCommon0
        CFI NoFunction
        CFI Conditional ??CrossCallReturnLabel_11
        CFI R6 load(1, XDATA, add(CFA_XSP16, literal(-12)))
        CFI VB load(1, XDATA, add(CFA_XSP16, literal(-11)))
        CFI V0 load(1, XDATA, add(CFA_XSP16, literal(-10)))
        CFI V1 load(1, XDATA, add(CFA_XSP16, literal(-9)))
        CFI V2 load(1, XDATA, add(CFA_XSP16, literal(-8)))
        CFI V3 load(1, XDATA, add(CFA_XSP16, literal(-7)))
        CFI R7 load(1, XDATA, add(CFA_XSP16, literal(-6)))
        CFI ?RET_LOW load(1, XDATA, add(CFA_XSP16, literal(-5)))
        CFI ?RET_HIGH load(1, XDATA, add(CFA_XSP16, literal(-4)))
        CFI ?BRET_EXT load(1, XDATA, add(CFA_XSP16, literal(-3)))
        CFI DPL0 load(1, XDATA, add(CFA_XSP16, literal(-2)))
        CFI DPH0 load(1, XDATA, add(CFA_XSP16, literal(-1)))
        CFI CFA_SP SP+0
        CFI CFA_XSP16 add(XSP16, 12)
        CFI Block cfiCond100 Using cfiCommon0
        CFI (cfiCond100) NoFunction
        CFI (cfiCond100) Conditional ??CrossCallReturnLabel_12
        CFI (cfiCond100) DPL0 Frame(CFA_SP, 4)
        CFI (cfiCond100) DPH0 Frame(CFA_SP, 5)
        CFI (cfiCond100) CFA_SP SP+-5
        CFI Block cfiPicker101 Using cfiCommon1
        CFI (cfiPicker101) NoFunction
        CFI (cfiPicker101) Picker
        ADDC    A,#0x0
        MOV     DPH,A
        MOVX    A,@DPTR
        MOV     R0,A
        INC     DPTR
        MOVX    A,@DPTR
        MOV     DPH,A
        MOV     DPL,R0
        MOVX    A,@DPTR
        RET
        CFI EndBlock cfiCond99
        CFI EndBlock cfiCond100
        CFI EndBlock cfiPicker101

        RSEG BANKED_CODE:CODE:NOROOT(0)
?Subroutine4:
        CFI Block cfiCond102 Using cfiCommon0
        CFI NoFunction
        CFI Conditional ??CrossCallReturnLabel_3
        CFI DPL0 Frame(CFA_SP, 4)
        CFI DPH0 Frame(CFA_SP, 5)
        CFI CFA_SP SP+-5
        CFI Block cfiCond103 Using cfiCommon0
        CFI (cfiCond103) NoFunction
        CFI (cfiCond103) Conditional ??CrossCallReturnLabel_4
        CFI (cfiCond103) DPL0 Frame(CFA_SP, 4)
        CFI (cfiCond103) DPH0 Frame(CFA_SP, 5)
        CFI (cfiCond103) CFA_SP SP+-5
        CFI Block cfiCond104 Using cfiCommon0
        CFI (cfiCond104) NoFunction
        CFI (cfiCond104) Conditional ??CrossCallReturnLabel_5
        CFI (cfiCond104) DPL0 Frame(CFA_SP, 4)
        CFI (cfiCond104) DPH0 Frame(CFA_SP, 5)
        CFI (cfiCond104) CFA_SP SP+-5
        CFI Block cfiPicker105 Using cfiCommon1
        CFI (cfiPicker105) NoFunction
        CFI (cfiPicker105) Picker
        LCALL   ?Subroutine17 & 0xFFFF
??CrossCallReturnLabel_37:
        MOVX    A,@DPTR
        RET
        CFI EndBlock cfiCond102
        CFI EndBlock cfiCond103
        CFI EndBlock cfiCond104
        CFI EndBlock cfiPicker105

        RSEG BANKED_CODE:CODE:NOROOT(0)
?Subroutine3:
        CFI Block cfiCond106 Using cfiCommon0
        CFI NoFunction
        CFI Conditional ??CrossCallReturnLabel_0
        CFI DPL0 Frame(CFA_SP, 4)
        CFI DPH0 Frame(CFA_SP, 5)
        CFI CFA_SP SP+-5
        CFI Block cfiCond107 Using cfiCommon0
        CFI (cfiCond107) NoFunction
        CFI (cfiCond107) Conditional ??CrossCallReturnLabel_1
        CFI (cfiCond107) DPL0 Frame(CFA_SP, 4)
        CFI (cfiCond107) DPH0 Frame(CFA_SP, 5)
        CFI (cfiCond107) CFA_SP SP+-5
        CFI Block cfiCond108 Using cfiCommon0
        CFI (cfiCond108) NoFunction
        CFI (cfiCond108) Conditional ??CrossCallReturnLabel_2
        CFI (cfiCond108) DPL0 Frame(CFA_SP, 4)
        CFI (cfiCond108) DPH0 Frame(CFA_SP, 5)
        CFI (cfiCond108) CFA_SP SP+-5
        CFI Block cfiPicker109 Using cfiCommon1
        CFI (cfiPicker109) NoFunction
        CFI (cfiPicker109) Picker
        LCALL   ?Subroutine17 & 0xFFFF
??CrossCallReturnLabel_36:
        INC     DPTR
        MOVX    A,@DPTR
        DEC     A
        RET
        CFI EndBlock cfiCond106
        CFI EndBlock cfiCond107
        CFI EndBlock cfiCond108
        CFI EndBlock cfiPicker109

        RSEG BANKED_CODE:CODE:NOROOT(0)
?Subroutine17:
        CFI Block cfiCond110 Using cfiCommon0
        CFI NoFunction
        CFI Conditional ??CrossCallReturnLabel_37, ??CrossCallReturnLabel_3
        CFI DPL0 Frame(CFA_SP, 4)
        CFI DPH0 Frame(CFA_SP, 5)
        CFI CFA_SP SP+-5
        CFI Block cfiCond111 Using cfiCommon0
        CFI (cfiCond111) NoFunction
        CFI (cfiCond111) Conditional ??CrossCallReturnLabel_37, ??CrossCallReturnLabel_4
        CFI (cfiCond111) DPL0 Frame(CFA_SP, 4)
        CFI (cfiCond111) DPH0 Frame(CFA_SP, 5)
        CFI (cfiCond111) CFA_SP SP+-5
        CFI Block cfiCond112 Using cfiCommon0
        CFI (cfiCond112) NoFunction
        CFI (cfiCond112) Conditional ??CrossCallReturnLabel_37, ??CrossCallReturnLabel_5
        CFI (cfiCond112) DPL0 Frame(CFA_SP, 4)
        CFI (cfiCond112) DPH0 Frame(CFA_SP, 5)
        CFI (cfiCond112) CFA_SP SP+-5
        CFI Block cfiCond113 Using cfiCommon0
        CFI (cfiCond113) NoFunction
        CFI (cfiCond113) Conditional ??CrossCallReturnLabel_36, ??CrossCallReturnLabel_0
        CFI (cfiCond113) DPL0 Frame(CFA_SP, 4)
        CFI (cfiCond113) DPH0 Frame(CFA_SP, 5)
        CFI (cfiCond113) CFA_SP SP+-5
        CFI Block cfiCond114 Using cfiCommon0
        CFI (cfiCond114) NoFunction
        CFI (cfiCond114) Conditional ??CrossCallReturnLabel_36, ??CrossCallReturnLabel_1
        CFI (cfiCond114) DPL0 Frame(CFA_SP, 4)
        CFI (cfiCond114) DPH0 Frame(CFA_SP, 5)
        CFI (cfiCond114) CFA_SP SP+-5
        CFI Block cfiCond115 Using cfiCommon0
        CFI (cfiCond115) NoFunction
        CFI (cfiCond115) Conditional ??CrossCallReturnLabel_36, ??CrossCallReturnLabel_2
        CFI (cfiCond115) DPL0 Frame(CFA_SP, 4)
        CFI (cfiCond115) DPH0 Frame(CFA_SP, 5)
        CFI (cfiCond115) CFA_SP SP+-5
        CFI Block cfiPicker116 Using cfiCommon1
        CFI (cfiPicker116) NoFunction
        CFI (cfiPicker116) Picker
        LCALL   ?Subroutine19 & 0xFFFF
??CrossCallReturnLabel_39:
        INC     DPTR
        RET
        CFI EndBlock cfiCond110
        CFI EndBlock cfiCond111
        CFI EndBlock cfiCond112
        CFI EndBlock cfiCond113
        CFI EndBlock cfiCond114
        CFI EndBlock cfiCond115
        CFI EndBlock cfiPicker116

        RSEG BANKED_CODE:CODE:NOROOT(0)
?Subroutine19:
        CFI Block cfiCond117 Using cfiCommon0
        CFI NoFunction
        CFI Conditional ??CrossCallReturnLabel_38, ??CrossCallReturnLabel_13
        CFI DPL0 Frame(CFA_SP, 4)
        CFI DPH0 Frame(CFA_SP, 5)
        CFI CFA_SP SP+-5
        CFI Block cfiCond118 Using cfiCommon0
        CFI (cfiCond118) NoFunction
        CFI (cfiCond118) Conditional ??CrossCallReturnLabel_38, ??CrossCallReturnLabel_14
        CFI (cfiCond118) DPL0 Frame(CFA_SP, 4)
        CFI (cfiCond118) DPH0 Frame(CFA_SP, 5)
        CFI (cfiCond118) CFA_SP SP+-5
        CFI Block cfiCond119 Using cfiCommon0
        CFI (cfiCond119) NoFunction
        CFI (cfiCond119) Conditional ??CrossCallReturnLabel_39, ??CrossCallReturnLabel_37, ??CrossCallReturnLabel_3
        CFI (cfiCond119) DPL0 Frame(CFA_SP, 4)
        CFI (cfiCond119) DPH0 Frame(CFA_SP, 5)
        CFI (cfiCond119) CFA_SP SP+-5
        CFI Block cfiCond120 Using cfiCommon0
        CFI (cfiCond120) NoFunction
        CFI (cfiCond120) Conditional ??CrossCallReturnLabel_39, ??CrossCallReturnLabel_37, ??CrossCallReturnLabel_4
        CFI (cfiCond120) DPL0 Frame(CFA_SP, 4)
        CFI (cfiCond120) DPH0 Frame(CFA_SP, 5)
        CFI (cfiCond120) CFA_SP SP+-5
        CFI Block cfiCond121 Using cfiCommon0
        CFI (cfiCond121) NoFunction
        CFI (cfiCond121) Conditional ??CrossCallReturnLabel_39, ??CrossCallReturnLabel_37, ??CrossCallReturnLabel_5
        CFI (cfiCond121) DPL0 Frame(CFA_SP, 4)
        CFI (cfiCond121) DPH0 Frame(CFA_SP, 5)
        CFI (cfiCond121) CFA_SP SP+-5
        CFI Block cfiCond122 Using cfiCommon0
        CFI (cfiCond122) NoFunction
        CFI (cfiCond122) Conditional ??CrossCallReturnLabel_39, ??CrossCallReturnLabel_36, ??CrossCallReturnLabel_0
        CFI (cfiCond122) DPL0 Frame(CFA_SP, 4)
        CFI (cfiCond122) DPH0 Frame(CFA_SP, 5)
        CFI (cfiCond122) CFA_SP SP+-5
        CFI Block cfiCond123 Using cfiCommon0
        CFI (cfiCond123) NoFunction
        CFI (cfiCond123) Conditional ??CrossCallReturnLabel_39, ??CrossCallReturnLabel_36, ??CrossCallReturnLabel_1
        CFI (cfiCond123) DPL0 Frame(CFA_SP, 4)
        CFI (cfiCond123) DPH0 Frame(CFA_SP, 5)
        CFI (cfiCond123) CFA_SP SP+-5
        CFI Block cfiCond124 Using cfiCommon0
        CFI (cfiCond124) NoFunction
        CFI (cfiCond124) Conditional ??CrossCallReturnLabel_39, ??CrossCallReturnLabel_36, ??CrossCallReturnLabel_2
        CFI (cfiCond124) DPL0 Frame(CFA_SP, 4)
        CFI (cfiCond124) DPH0 Frame(CFA_SP, 5)
        CFI (cfiCond124) CFA_SP SP+-5
        CFI Block cfiPicker125 Using cfiCommon1
        CFI (cfiPicker125) NoFunction
        CFI (cfiPicker125) Picker
        MOV     A,R2
        ADD     A,#0x22
        MOV     DPL,A
        MOV     A,R3
        ADDC    A,#0x0
        MOV     DPH,A
        INC     DPTR
        MOVX    A,@DPTR
        MOV     DPH,A
        MOV     DPL,R0
        RET
        CFI EndBlock cfiCond117
        CFI EndBlock cfiCond118
        CFI EndBlock cfiCond119
        CFI EndBlock cfiCond120
        CFI EndBlock cfiCond121
        CFI EndBlock cfiCond122
        CFI EndBlock cfiCond123
        CFI EndBlock cfiCond124
        CFI EndBlock cfiPicker125

        RSEG XDATA_ID:CODE:NOROOT(0)
`?<Initializer for GenericApp_SimpleDesc>`:
        DATA8
        DB 20
        DATA16
        DW 3844
        DW 1
        DATA8
        DB 0
        DB 1
        DATA16
        DW GenericApp_ClusterList
        DATA8
        DB 1
        DATA16
        DW GenericApp_ClusterList

        RSEG BANK_RELAYS:CODE:REORDER:NOROOT(0)
??SendData?relay:
        LCALL   ?BDISPATCH
        DATA
        DC24    SendData

        RSEG BANK_RELAYS:CODE:REORDER:NOROOT(0)
??Delay?relay:
        LCALL   ?BDISPATCH
        DATA
        DC24    Delay

        RSEG BANK_RELAYS:CODE:REORDER:NOROOT(0)
??UART_Send_String?relay:
        LCALL   ?BDISPATCH
        DATA
        DC24    UART_Send_String

        RSEG BANK_RELAYS:CODE:REORDER:NOROOT(0)
??uprint?relay:
        LCALL   ?BDISPATCH
        DATA
        DC24    uprint

        RSEG BANK_RELAYS:CODE:REORDER:NOROOT(0)
??Serial_callBack?relay:
        LCALL   ?BDISPATCH
        DATA
        DC24    Serial_callBack

        RSEG BANK_RELAYS:CODE:REORDER:NOROOT(0)
??serial_init?relay:
        LCALL   ?BDISPATCH
        DATA
        DC24    serial_init

        RSEG BANK_RELAYS:CODE:REORDER:NOROOT(0)
??io_init?relay:
        LCALL   ?BDISPATCH
        DATA
        DC24    io_init

        RSEG BANK_RELAYS:CODE:REORDER:NOROOT(0)
??set_panid?relay:
        LCALL   ?BDISPATCH
        DATA
        DC24    set_panid

        RSEG BANK_RELAYS:CODE:REORDER:NOROOT(0)
??cb_ReadConfiguration?relay:
        LCALL   ?BDISPATCH
        DATA
        DC24    cb_ReadConfiguration

        RSEG BANK_RELAYS:CODE:REORDER:NOROOT(0)
??cb_WriteConfiguration?relay:
        LCALL   ?BDISPATCH
        DATA
        DC24    cb_WriteConfiguration

        RSEG BANK_RELAYS:CODE:REORDER:NOROOT(0)
??GenericApp_Init?relay:
        LCALL   ?BDISPATCH
        DATA
        DC24    GenericApp_Init

        RSEG BANK_RELAYS:CODE:REORDER:NOROOT(0)
??GenericApp_ProcessEvent?relay:
        LCALL   ?BDISPATCH
        DATA
        DC24    GenericApp_ProcessEvent

        RSEG BANK_RELAYS:CODE:REORDER:NOROOT(0)
??GenericApp_MessageMSGCB?relay:
        LCALL   ?BDISPATCH
        DATA
        DC24    GenericApp_MessageMSGCB

        RSEG XDATA_ROM_C:CONST:REORDER:NOROOT(0)
        DATA8
`?<Constant "set device to coordi ...">`:
        DB "set device to coordi failed"

        RSEG XDATA_ROM_C:CONST:REORDER:NOROOT(0)
        DATA8
`?<Constant "set device to coordi,...">`:
        DB "set device to coordi,restart it"

        RSEG XDATA_ROM_C:CONST:REORDER:NOROOT(0)
        DATA8
`?<Constant "set device to router ...">`:
        DB "set device to router failed"

        RSEG XDATA_ROM_C:CONST:REORDER:NOROOT(0)
        DATA8
`?<Constant "set device to router,...">`:
        DB "set device to router,restart it"

        RSEG XDATA_ROM_C:CONST:REORDER:NOROOT(0)
        DATA8
`?<Constant "set device to end dev...">`:
        DB "set device to end device failed"

        RSEG XDATA_ROM_C:CONST:REORDER:NOROOT(0)
        DATA8
`?<Constant "set device to end dev...">_1`:
        DB "set device to end device,restart it"

        RSEG XDATA_ROM_C:CONST:REORDER:NOROOT(0)
        DATA8
`?<Constant "nwkkey">`:
        DB "nwkkey"

        RSEG XDATA_ROM_C:CONST:REORDER:NOROOT(0)
        DATA8
`?<Constant "osal nv read nwkkey e...">`:
        DB "osal nv read nwkkey error"

        RSEG XDATA_ROM_C:CONST:REORDER:NOROOT(0)
        DATA8
`?<Constant "pass:">`:
        DB "pass:"

        RSEG XDATA_ROM_C:CONST:REORDER:NOROOT(0)
        DATA8
`?<Constant "change key">`:
        DB "change key"

        RSEG XDATA_ROM_C:CONST:REORDER:NOROOT(0)
        DATA8
`?<Constant "EndDevice match">`:
        DB "EndDevice match"

        RSEG XDATA_ROM_C:CONST:REORDER:NOROOT(0)
        DATA8
`?<Constant "Router Device match">`:
        DB "Router Device match"

        RSEG XDATA_ROM_C:CONST:REORDER:NOROOT(0)
        DATA8
`?<Constant "type">`:
        DB "type"

        RSEG XDATA_ROM_C:CONST:REORDER:NOROOT(0)
        DATA8
`?<Constant "Coordi">`:
        DB "Coordi"

        RSEG XDATA_ROM_C:CONST:REORDER:NOROOT(0)
        DATA8
`?<Constant "Router">`:
        DB "Router"

        RSEG XDATA_ROM_C:CONST:REORDER:NOROOT(0)
        DATA8
`?<Constant "Enddev">`:
        DB "Enddev"

        RSEG XDATA_ROM_C:CONST:REORDER:NOROOT(0)
        DATA8
`?<Constant "Unknow">`:
        DB "Unknow"

        RSEG XDATA_ROM_C:CONST:REORDER:NOROOT(0)
        DATA8
`?<Constant "pong">`:
        DB "pong"

        RSEG XDATA_ROM_C:CONST:REORDER:NOROOT(0)
        DATA8
`?<Constant "reboot">`:
        DB "reboot"

        RSEG XDATA_ROM_C:CONST:REORDER:NOROOT(0)
        DATA8
`?<Constant "set_panid failed">`:
        DB "set_panid failed"

        RSEG XDATA_ROM_C:CONST:REORDER:NOROOT(0)
        DATA8
`?<Constant "GenericApp">`:
        DB "GenericApp"

        RSEG XDATA_ROM_C:CONST:REORDER:NOROOT(0)
        DATA8
`?<Constant "Coord0\\n">`:
        DB "Coord0\012"

        RSEG XDATA_ROM_C:CONST:REORDER:NOROOT(0)
        DATA8
`?<Constant "Router0\\n">`:
        DB "Router0\012"

        RSEG XDATA_ROM_C:CONST:REORDER:NOROOT(0)
        DATA8
`?<Constant "Coord\\n">`:
        DB "Coord\012"

        RSEG XDATA_ROM_C:CONST:REORDER:NOROOT(0)
        DATA8
`?<Constant "Router\\n">`:
        DB "Router\012"

        RSEG XDATA_ROM_C:CONST:REORDER:NOROOT(0)
        DATA8
`?<Constant "AF_DATA_CONFIRM_CMD ERR">`:
        DB "AF_DATA_CONFIRM_CMD ERR"

        RSEG XDATA_ROM_C:CONST:REORDER:NOROOT(0)
        DATA8
`?<Constant "End_Device_Bind_rsp">`:
        DB "End_Device_Bind_rsp"

        RSEG XDATA_ROM_C:CONST:REORDER:NOROOT(0)
        DATA8
`?<Constant "Match_Desc_rsp">`:
        DB "Match_Desc_rsp"

        RSEG XDATA_ROM_C:CONST:REORDER:NOROOT(0)
        DATA8
`?<Constant "GenericApp_ProcessZDO...">`:
        DB "GenericApp_ProcessZDOMsgs"

        RSEG XDATA_ROM_C:CONST:REORDER:NOROOT(0)
        DATA8
`?<Constant "key1">`:
        DB "key1"

        RSEG XDATA_ROM_C:CONST:REORDER:NOROOT(0)
        DATA8
`?<Constant "key2">`:
        DB "key2"

        RSEG XDATA_ROM_C:CONST:REORDER:NOROOT(0)
        DATA8
`?<Constant "key3">`:
        DB "key3"

        RSEG XDATA_ROM_C:CONST:REORDER:NOROOT(0)
        DATA8
`?<Constant "key4">`:
        DB "key4"

        RSEG XDATA_ROM_C:CONST:REORDER:NOROOT(0)
        DATA8
`?<Constant "key5">`:
        DB "key5"

        RSEG XDATA_ROM_C:CONST:REORDER:NOROOT(0)
        DATA8
`?<Constant "key6">`:
        DB "key6"

        RSEG XDATA_ROM_C:CONST:REORDER:NOROOT(0)
        DATA8
`?<Constant "key7">`:
        DB "key7"

        RSEG XDATA_ROM_C:CONST:REORDER:NOROOT(0)
        DATA32
__Constant_800:
        DD 2048

        RSEG XDATA_ROM_C:CONST:REORDER:NOROOT(0)
        DATA32
__Constant_1000:
        DD 4096

        RSEG XDATA_ROM_C:CONST:REORDER:NOROOT(0)
        DATA32
__Constant_2000:
        DD 8192

        RSEG XDATA_ROM_C:CONST:REORDER:NOROOT(0)
        DATA32
__Constant_4000:
        DD 16384

        RSEG XDATA_ROM_C:CONST:REORDER:NOROOT(0)
        DATA32
__Constant_8000:
        DD 32768

        RSEG XDATA_ROM_C:CONST:REORDER:NOROOT(0)
        DATA32
__Constant_10000:
        DD 65536

        RSEG XDATA_ROM_C:CONST:REORDER:NOROOT(0)
        DATA32
__Constant_20000:
        DD 131072

        RSEG XDATA_ROM_C:CONST:REORDER:NOROOT(0)
        DATA32
__Constant_40000:
        DD 262144

        RSEG XDATA_ROM_C:CONST:REORDER:NOROOT(0)
        DATA32
__Constant_80000:
        DD 524288

        RSEG XDATA_ROM_C:CONST:REORDER:NOROOT(0)
        DATA32
__Constant_100000:
        DD 1048576

        RSEG XDATA_ROM_C:CONST:REORDER:NOROOT(0)
        DATA32
__Constant_200000:
        DD 2097152

        RSEG XDATA_ROM_C:CONST:REORDER:NOROOT(0)
        DATA32
__Constant_400000:
        DD 4194304

        RSEG XDATA_ROM_C:CONST:REORDER:NOROOT(0)
        DATA32
__Constant_800000:
        DD 8388608

        RSEG XDATA_ROM_C:CONST:REORDER:NOROOT(0)
        DATA32
__Constant_1000000:
        DD 16777216

        RSEG XDATA_ROM_C:CONST:REORDER:NOROOT(0)
        DATA32
__Constant_2000000:
        DD 33554432

        RSEG XDATA_ROM_C:CONST:REORDER:NOROOT(0)
        DATA32
__Constant_4000000:
        DD 67108864

        END
// 1447 
// 1448 /*********************************************************************
// 1449  * @fn      GenericApp_SendTheMessage
// 1450  *
// 1451  * @brief   Send "the" message.
// 1452  *
// 1453  * @param   none
// 1454  *
// 1455  * @return  none
// 1456  */
// 1457 static void GenericApp_SendTheMessage( afIncomingMSGPacket_t *pkt )
// 1458 {
// 1459   
// 1460   afAddrType_t dstAddr;
// 1461   
// 1462   char theMessageData[] = "Hello World";
// 1463 
// 1464   dstAddr.addrMode = (afAddrMode_t)Addr16Bit;
// 1465   dstAddr.addr.shortAddr = 0xFFFF;
// 1466   dstAddr.endPoint = GENERICAPP_ENDPOINT;
// 1467   
// 1468   if ( AF_DataRequest( &pkt->srcAddr, &GenericApp_epDesc,
// 1469                        GENERICAPP_CLUSTERID,
// 1470                        (byte)osal_strlen( theMessageData ) + 1,
// 1471                        (byte *)&theMessageData,
// 1472                        &GenericApp_TransID,
// 1473                        AF_DISCV_ROUTE, AF_DEFAULT_RADIUS ) == afStatus_SUCCESS )
// 1474   {
// 1475     // Successfully requested to be sent.
// 1476     uprint("ok");
// 1477   }
// 1478   else
// 1479   {
// 1480     uprint("err");
// 1481     // Error occurred in request to send.
// 1482   }
// 1483 }
// 1484 
// 1485 #if defined( IAR_ARMCM3_LM )
// 1486 /*********************************************************************
// 1487  * @fn      GenericApp_ProcessRtosMessage
// 1488  *
// 1489  * @brief   Receive message from RTOS queue, send response back.
// 1490  *
// 1491  * @param   none
// 1492  *
// 1493  * @return  none
// 1494  */
// 1495 static void GenericApp_ProcessRtosMessage( void )
// 1496 {
// 1497   osalQueue_t inMsg;
// 1498 
// 1499   if ( osal_queue_receive( OsalQueue, &inMsg, 0 ) == pdPASS )
// 1500   {
// 1501     uint8 cmndId = inMsg.cmnd;
// 1502     uint32 counter = osal_build_uint32( inMsg.cbuf, 4 );
// 1503 
// 1504     switch ( cmndId )
// 1505     {
// 1506       case CMD_INCR:
// 1507         counter += 1;  /* Increment the incoming counter */
// 1508                        /* Intentionally fall through next case */
// 1509 
// 1510       case CMD_ECHO:
// 1511       {
// 1512         userQueue_t outMsg;
// 1513 
// 1514         outMsg.resp = RSP_CODE | cmndId;  /* Response ID */
// 1515         osal_buffer_uint32( outMsg.rbuf, counter );    /* Increment counter */
// 1516         osal_queue_send( UserQueue1, &outMsg, 0 );  /* Send back to UserTask */
// 1517         break;
// 1518       }
// 1519       
// 1520       default:
// 1521         break;  /* Ignore unknown command */    
// 1522     }
// 1523   }
// 1524 }
// 1525 #endif
// 1526 
// 1527 /*********************************************************************
// 1528  */
// 1529 
// 1530 /*
// 1531 #pragma vector=URX0_VECTOR
// 1532 __interrupt static void UART0_ISR(void)
// 1533 {
// 1534   URX0IF=0;//
// 1535   temp=U0DBUF;//temp
// 1536 }
// 1537 */
// 1538 
// 1539 
// 1540 
// 1541 
// 
// 3 604 bytes in segment BANKED_CODE
//    78 bytes in segment BANK_RELAYS
//     6 bytes in segment SFR_AN
//    12 bytes in segment XDATA_I
//    12 bytes in segment XDATA_ID
//   565 bytes in segment XDATA_ROM_C
//    72 bytes in segment XDATA_Z
// 
// 3 694 bytes of CODE  memory
//   501 bytes of CONST memory (+ 64 bytes shared)
//     0 bytes of DATA  memory (+  6 bytes shared)
//    84 bytes of XDATA memory
//
//Errors: none
//Warnings: 22
