###############################################################################
#                                                                             #
# IAR C/C++ Compiler V8.10.3.40338/W32 for 8051         14/Nov/2012  12:30:43 #
# Copyright 2004-2011 IAR Systems AB.                                         #
#                                                                             #
#    Core               =  plain                                              #
#    Code model         =  banked                                             #
#    Data model         =  large                                              #
#    Calling convention =  xdata reentrant                                    #
#    Constant location  =  data_rom                                           #
#    Dptr setup         =  1,16                                               #
#    Source file        =  C:\Texas Instruments\ZStack-CC2530-2.5.1a\Projects #
#                          \zstack\Samples\testApp_2.5\Source\GenericApp.c    #
#    Command line       =  -f "C:\Texas Instruments\ZStack-CC2530-2.5.1a\Proj #
#                          ects\zstack\Samples\testApp_2.5\CC2530DB\..\..\..\ #
#                          Tools\CC2530DB\f8wCoord.cfg" (-DCPU32MHZ           #
#                          -DROOT=__near_func -DMAC_CFG_APP_PENDING_QUEUE=TRU #
#                          E -DMAC_CFG_TX_DATA_MAX=5 -DMAC_CFG_TX_MAX=8       #
#                          -DMAC_CFG_RX_MAX=5 -DZDO_COORDINATOR -DRTR_NWK)    #
#                          -f "C:\Texas Instruments\ZStack-CC2530-2.5.1a\Proj #
#                          ects\zstack\Samples\testApp_2.5\CC2530DB\..\..\..\ #
#                          Tools\CC2530DB\f8wConfig.cfg" (-DZIGBEEPRO         #
#                          -DSECURE=0 -DZG_SECURE_DYNAMIC=0 -DREFLECTOR       #
#                          -DDEFAULT_CHANLIST=0x00000800                      #
#                          -DZDAPP_CONFIG_PAN_ID=0xFFFF                       #
#                          -DNWK_START_DELAY=100 -DEXTENDED_JOINING_RANDOM_MA #
#                          SK=0x007F -DBEACON_REQUEST_DELAY=100               #
#                          -DBEACON_REQ_DELAY_MASK=0x00FF                     #
#                          -DLINK_STATUS_JITTER_MASK=0x007F                   #
#                          -DROUTE_EXPIRY_TIME=30 -DAPSC_ACK_WAIT_DURATION_PO #
#                          LLED=3000 -DNWK_INDIRECT_MSG_TIMEOUT=7             #
#                          -DMAX_RREQ_ENTRIES=8 -DAPSC_MAX_FRAME_RETRIES=3    #
#                          -DNWK_MAX_DATA_RETRIES=2                           #
#                          -DMAX_POLL_FAILURE_RETRIES=2 -DMAX_BCAST=9         #
#                          -DAPS_MAX_GROUPS=16 -DMAX_RTG_ENTRIES=40           #
#                          -DNWK_MAX_BINDING_ENTRIES=4                        #
#                          -DMAX_BINDING_CLUSTER_IDS=4 "-DDEFAULT_KEY={0x01,  #
#                          0x03, 0x05, 0x07, 0x09, 0x0B, 0x0D, 0x0F, 0x00,    #
#                          0x02, 0x04, 0x06, 0x08, 0x0A, 0x0C, 0x0D}"         #
#                          -DMAC_MAX_FRAME_SIZE=116                           #
#                          -DZDNWKMGR_MIN_TRANSMISSIONS=20 "-DCONST=const     #
#                          __code" -DGENERIC=__generic                        #
#                          -DRFD_RCVC_ALWAYS_ON=FALSE -DPOLL_RATE=1000        #
#                          -DQUEUED_POLL_RATE=100 -DRESPONSE_POLL_RATE=100)   #
#                          -DREJOIN_POLL_RATE=440 "C:\Texas                   #
#                          Instruments\ZStack-CC2530-2.5.1a\Projects\zstack\S #
#                          amples\testApp_2.5\Source\GenericApp.c" -D         #
#                          ZTOOL_P1 -D MT_TASK -D LCD_SUPPORTED=DEBUG -D      #
#                          HAL_UART=TRUE -D xNV_INIT -D NV_RESTORE -D         #
#                          xPOWER_SAVING -D BUILD_ALL_DEVICES -D              #
#                          HOLD_AUTO_START -D HAL_LED=FALSE -lC "C:\Texas     #
#                          Instruments\ZStack-CC2530-2.5.1a\Projects\zstack\S #
#                          amples\testApp_2.5\CC2530DB\CoordinatorEB\List\"   #
#                          -lA "C:\Texas Instruments\ZStack-CC2530-2.5.1a\Pro #
#                          jects\zstack\Samples\testApp_2.5\CC2530DB\Coordina #
#                          torEB\List\" --diag_suppress Pe001,Pa010 -o        #
#                          "C:\Texas Instruments\ZStack-CC2530-2.5.1a\Project #
#                          s\zstack\Samples\testApp_2.5\CC2530DB\CoordinatorE #
#                          B\Obj\" -e --no_code_motion --debug --core=plain   #
#                          --dptr=16,1 --data_model=large                     #
#                          --code_model=banked --calling_convention=xdata_ree #
#                          ntrant --place_constants=data_rom                  #
#                          --nr_virtual_regs 16 -I "C:\Texas                  #
#                          Instruments\ZStack-CC2530-2.5.1a\Projects\zstack\S #
#                          amples\testApp_2.5\CC2530DB\" -I "C:\Texas         #
#                          Instruments\ZStack-CC2530-2.5.1a\Projects\zstack\S #
#                          amples\testApp_2.5\CC2530DB\..\Source\" -I         #
#                          "C:\Texas Instruments\ZStack-CC2530-2.5.1a\Project #
#                          s\zstack\Samples\testApp_2.5\CC2530DB\..\..\..\ZMa #
#                          in\TI2530DB\" -I "C:\Texas                         #
#                          Instruments\ZStack-CC2530-2.5.1a\Projects\zstack\S #
#                          amples\testApp_2.5\CC2530DB\..\..\..\..\..\Compone #
#                          nts\hal\include\" -I "C:\Texas                     #
#                          Instruments\ZStack-CC2530-2.5.1a\Projects\zstack\S #
#                          amples\testApp_2.5\CC2530DB\..\..\..\..\..\Compone #
#                          nts\hal\target\CC2530EB\" -I "C:\Texas             #
#                          Instruments\ZStack-CC2530-2.5.1a\Projects\zstack\S #
#                          amples\testApp_2.5\CC2530DB\..\..\..\..\..\Compone #
#                          nts\mac\include\" -I "C:\Texas                     #
#                          Instruments\ZStack-CC2530-2.5.1a\Projects\zstack\S #
#                          amples\testApp_2.5\CC2530DB\..\..\..\..\..\Compone #
#                          nts\mac\high_level\" -I "C:\Texas                  #
#                          Instruments\ZStack-CC2530-2.5.1a\Projects\zstack\S #
#                          amples\testApp_2.5\CC2530DB\..\..\..\..\..\Compone #
#                          nts\mac\low_level\srf04\" -I "C:\Texas             #
#                          Instruments\ZStack-CC2530-2.5.1a\Projects\zstack\S #
#                          amples\testApp_2.5\CC2530DB\..\..\..\..\..\Compone #
#                          nts\mac\low_level\srf04\single_chip\" -I           #
#                          "C:\Texas Instruments\ZStack-CC2530-2.5.1a\Project #
#                          s\zstack\Samples\testApp_2.5\CC2530DB\..\..\..\..\ #
#                          ..\Components\mt\" -I "C:\Texas                    #
#                          Instruments\ZStack-CC2530-2.5.1a\Projects\zstack\S #
#                          amples\testApp_2.5\CC2530DB\..\..\..\..\..\Compone #
#                          nts\osal\include\" -I "C:\Texas                    #
#                          Instruments\ZStack-CC2530-2.5.1a\Projects\zstack\S #
#                          amples\testApp_2.5\CC2530DB\..\..\..\..\..\Compone #
#                          nts\services\saddr\" -I "C:\Texas                  #
#                          Instruments\ZStack-CC2530-2.5.1a\Projects\zstack\S #
#                          amples\testApp_2.5\CC2530DB\..\..\..\..\..\Compone #
#                          nts\services\sdata\" -I "C:\Texas                  #
#                          Instruments\ZStack-CC2530-2.5.1a\Projects\zstack\S #
#                          amples\testApp_2.5\CC2530DB\..\..\..\..\..\Compone #
#                          nts\stack\af\" -I "C:\Texas                        #
#                          Instruments\ZStack-CC2530-2.5.1a\Projects\zstack\S #
#                          amples\testApp_2.5\CC2530DB\..\..\..\..\..\Compone #
#                          nts\stack\nwk\" -I "C:\Texas                       #
#                          Instruments\ZStack-CC2530-2.5.1a\Projects\zstack\S #
#                          amples\testApp_2.5\CC2530DB\..\..\..\..\..\Compone #
#                          nts\stack\sapi\" -I "C:\Texas                      #
#                          Instruments\ZStack-CC2530-2.5.1a\Projects\zstack\S #
#                          amples\testApp_2.5\CC2530DB\..\..\..\..\..\Compone #
#                          nts\stack\sec\" -I "C:\Texas                       #
#                          Instruments\ZStack-CC2530-2.5.1a\Projects\zstack\S #
#                          amples\testApp_2.5\CC2530DB\..\..\..\..\..\Compone #
#                          nts\stack\sys\" -I "C:\Texas                       #
#                          Instruments\ZStack-CC2530-2.5.1a\Projects\zstack\S #
#                          amples\testApp_2.5\CC2530DB\..\..\..\..\..\Compone #
#                          nts\stack\zdo\" -I "C:\Texas                       #
#                          Instruments\ZStack-CC2530-2.5.1a\Projects\zstack\S #
#                          amples\testApp_2.5\CC2530DB\..\..\..\..\..\Compone #
#                          nts\zmac\" -I "C:\Texas Instruments\ZStack-CC2530- #
#                          2.5.1a\Projects\zstack\Samples\testApp_2.5\CC2530D #
#                          B\..\..\..\..\..\Components\zmac\f8w\" -Ohz        #
#                          --require_prototypes                               #
#    List file          =  C:\Texas Instruments\ZStack-CC2530-2.5.1a\Projects #
#                          \zstack\Samples\testApp_2.5\CC2530DB\CoordinatorEB #
#                          \List\GenericApp.lst                               #
#    Object file        =  C:\Texas Instruments\ZStack-CC2530-2.5.1a\Projects #
#                          \zstack\Samples\testApp_2.5\CC2530DB\CoordinatorEB #
#                          \Obj\GenericApp.r51                                #
#                                                                             #
#                                                                             #
###############################################################################

C:\Texas Instruments\ZStack-CC2530-2.5.1a\Projects\zstack\Samples\testApp_2.5\Source\GenericApp.c
      1          
      2          #include <iocc2530.h>

   \                                 In  segment SFR_AN, at 0x80
   \   union <unnamed> volatile __sfr _A_P0
   \                     _A_P0:
   \   000000                DS 1

   \                                 In  segment SFR_AN, at 0x89
   \   unsigned char volatile __sfr P0IFG
   \                     P0IFG:
   \   000000                DS 1

   \                                 In  segment SFR_AN, at 0x90
   \   union <unnamed> volatile __sfr _A_P1
   \                     _A_P1:
   \   000000                DS 1

   \                                 In  segment SFR_AN, at 0xa8
   \   union <unnamed> volatile __sfr _A_IEN0
   \                     _A_IEN0:
   \   000000                DS 1

   \                                 In  segment SFR_AN, at 0xc9
   \   unsigned char volatile __sfr WDCTL
   \                     WDCTL:
   \   000000                DS 1

   \                                 In  segment SFR_AN, at 0xfd
   \   unsigned char volatile __sfr P0DIR
   \                     P0DIR:
   \   000000                DS 1
      3          #include <stdio.h>
      4          #include <stdlib.h>
      5          #include <string.h>
      6          
      7          #include "OSAL.h"
      8          #include "OSAL_Nv.h"
      9          
     10          #include "AF.h"
     11          #include "ZDApp.h"
     12          #include "ZDObject.h"
     13          #include "ZDProfile.h"
     14          #include "ZDSecMgr.h"
     15          
     16          
     17          #include "GenericApp.h"
     18          #include "DebugTrace.h"
     19          
     20          #if !defined( WIN32 )
     21            #include "OnBoard.h"
     22          #endif
     23          
     24          /* HAL */
     25          #include "hal_adc.h"
     26          #include "hal_mcu.h"
     27          #include "hal_lcd.h"
     28          #include "hal_led.h"
     29          #include "hal_key.h"
     30          #include "hal_uart.h"
     31          #include "hal_drivers.h"
     32          
     33          #include "nwk_util.h"
     34          
     35          #include "mac_low_level.h"
     36          
     37          
     38          /* RTOS */
     39          #if defined( IAR_ARMCM3_LM )
     40          #include "RTOS_App.h"
     41          #endif  
     42          
     43          //#define HAL_KEY_SW_6_BIT    BV(1)
     44          //#define HAL_KEY_JOY_MOVE_BIT    BV(0)
     45          

   \                                 In  segment XDATA_Z, align 1, keep-with-next
     46          uint16 devlist[ NWK_MAX_DEVICES + 1];
   \                     devlist:
   \   000000                DS 44
   \   00002C                REQUIRE __INIT_XDATA_Z

   \                                 In  segment XDATA_Z, align 1, keep-with-next
     47          uint8* ieeeAddr;
   \                     ieeeAddr:
   \   000000                DS 2
   \   000002                REQUIRE __INIT_XDATA_Z

   \                                 In  segment XDATA_Z, align 1, keep-with-next
     48          uint16 short_ddr;
   \                     short_ddr:
   \   000000                DS 2
   \   000002                REQUIRE __INIT_XDATA_Z

   \                                 In  segment XDATA_Z, align 1, keep-with-next
     49          uint16 panid;
   \                     panid:
   \   000000                DS 2
   \   000002                REQUIRE __INIT_XDATA_Z
     50          
     51          
     52          // This list should be filled with Application specific Cluster IDs.

   \                                 In  segment XDATA_ROM_C, align 1
     53          const cId_t GenericApp_ClusterList[GENERICAPP_MAX_CLUSTERS] =
   \                     GenericApp_ClusterList:
   \   000000   0100         DW 1
     54          {
     55            GENERICAPP_CLUSTERID
     56          };
     57          
     58          

   \                                 In  segment XDATA_I, align 1, keep-with-next
     59          SimpleDescriptionFormat_t GenericApp_SimpleDesc =
   \                     GenericApp_SimpleDesc:
   \   000000                DS 12
   \   00000C                REQUIRE `?<Initializer for GenericApp_SimpleDesc>`
   \   00000C                REQUIRE __INIT_XDATA_I
     60          {
     61            GENERICAPP_ENDPOINT,              //  int Endpoint;
     62            GENERICAPP_PROFID,                //  uint16 AppProfId[2];
     63            GENERICAPP_DEVICEID,              //  uint16 AppDeviceId[2];
     64            GENERICAPP_DEVICE_VERSION,        //  int   AppDevVer:4;
     65            GENERICAPP_FLAGS,                 //  int   AppFlags:4;
     66            GENERICAPP_MAX_CLUSTERS,          //  byte  AppNumInClusters;
     67            (cId_t *)GenericApp_ClusterList,  //  byte *pAppInClusterList;
     68            GENERICAPP_MAX_CLUSTERS,          //  byte  AppNumInClusters;
     69            (cId_t *)GenericApp_ClusterList   //  byte *pAppInClusterList;
     70          };
     71          
     72          // This is the Endpoint/Interface description.  It is defined here, but
     73          // filled-in in GenericApp_Init().  Another way to go would be to fill
     74          // in the structure here and make it a "const" (in code space).  The
     75          // way it's defined in this sample app it is define in RAM.

   \                                 In  segment XDATA_Z, align 1, keep-with-next
     76          endPointDesc_t GenericApp_epDesc;
   \                     GenericApp_epDesc:
   \   000000                DS 6
   \   000006                REQUIRE __INIT_XDATA_Z
     77          
     78          

   \                                 In  segment XDATA_Z, align 1, keep-with-next
     79          byte GenericApp_TaskID;   // Task ID for internal task/event processing
   \                     GenericApp_TaskID:
   \   000000                DS 1
   \   000001                REQUIRE __INIT_XDATA_Z
     80                                    // This variable will be received when
     81                                    // GenericApp_Init() is called.

   \                                 In  segment XDATA_Z, align 1, keep-with-next
     82          devStates_t GenericApp_NwkState;
   \                     GenericApp_NwkState:
   \   000000                DS 1
   \   000001                REQUIRE __INIT_XDATA_Z
     83          
     84          

   \                                 In  segment XDATA_Z, align 1, keep-with-next
     85          byte GenericApp_TransID;  // This is the unique message ID (counter)
   \                     GenericApp_TransID:
   \   000000                DS 1
   \   000001                REQUIRE __INIT_XDATA_Z
     86          
     87          

   \                                 In  segment XDATA_Z, align 1, keep-with-next
     88          devStates_t App_NwkState;
   \                     App_NwkState:
   \   000000                DS 1
   \   000001                REQUIRE __INIT_XDATA_Z
     89          

   \                                 In  segment XDATA_Z, align 1, keep-with-next
     90          afAddrType_t GenericApp_DstAddr;
   \                     GenericApp_DstAddr:
   \   000000                DS 12
   \   00000C                REQUIRE __INIT_XDATA_Z
     91          
     92          
     93          #define uint unsigned int
     94          #define uchar unsigned char
     95          
     96          
     97          #define SER_PORT 0
     98          
     99          #define TEST_BUTTON P0_1
    100          
    101          void Delay(unsigned  );
    102          void UART_Send_String( unsigned char *,int );
    103          void uprint( uint8*);
    104          
    105          void serial_init(void );
    106          void io_init(void);
    107          void _halProcessKeyInterrupt (void);
    108          
    109          void set_panid( uint16 );
    110          uint8 cb_ReadConfiguration( uint8 , uint8 , void * );
    111          uint8 cb_WriteConfiguration( uint8 , uint8 , void *);
    112          uint8 SendData( uint16, uint8 *, uint8);
    113          

   \                                 In  segment BANKED_CODE, align 1, keep-with-next
    114          uint8 SendData( uint16 addr, uint8 *buf, uint8 Leng)
   \                     SendData:
    115          {
   \   000000   74F6         MOV     A,#-0xa
   \   000002   12....       LCALL   ?BANKED_ENTER_XDATA
   \   000005                ; Saved register size: 10
   \   000005                ; Auto size: 12
   \   000005   74F4         MOV     A,#-0xc
   \   000007   12....       LCALL   ?ALLOC_XSTACK8
   \   00000A   E9           MOV     A,R1
   \   00000B   FE           MOV     R6,A
    116                  afAddrType_t SendDataAddr;
    117                  
    118                  SendDataAddr.addrMode = (afAddrMode_t)Addr16Bit;
   \   00000C   7408         MOV     A,#0x8
   \   00000E   12....       LCALL   ?XSTACK_DISP0_8
   \   000011   7402         MOV     A,#0x2
   \   000013   F0           MOVX    @DPTR,A
    119                  SendDataAddr.endPoint = GENERICAPP_ENDPOINT;
   \   000014   7409         MOV     A,#0x9
   \   000016   12....       LCALL   ?XSTACK_DISP0_8
   \   000019   7414         MOV     A,#0x14
   \   00001B   12....       LCALL   ?Subroutine4 & 0xFFFF
    120                  SendDataAddr.addr.shortAddr = addr;
   \                     ??CrossCallReturnLabel_0:
   \   00001E   EA           MOV     A,R2
   \   00001F   F0           MOVX    @DPTR,A
   \   000020   A3           INC     DPTR
   \   000021   EB           MOV     A,R3
   \   000022   F0           MOVX    @DPTR,A
    121                  if ( AF_DataRequest( &SendDataAddr, &GenericApp_epDesc,
    122                                 GENERICAPP_CLUSTERID,
    123                                 Leng,
    124                                 buf,
    125                                 &GenericApp_TransID,
    126                                 AF_DISCV_ROUTE,
    127                               //  AF_ACK_REQUEST,
    128                                 AF_DEFAULT_RADIUS ) == afStatus_SUCCESS )
   \   000023                ; Setup parameters for call to function AF_DataRequest
   \   000023   75..1E       MOV     ?V0 + 0,#0x1e
   \   000026   78..         MOV     R0,#?V0 + 0
   \   000028   12....       LCALL   ?PUSH_XSTACK_I_ONE
   \   00002B   75....       MOV     ?V0 + 0,#GenericApp_TransID & 0xff
   \   00002E   75....       MOV     ?V0 + 1,#(GenericApp_TransID >> 8) & 0xff
   \   000031   78..         MOV     R0,#?V0 + 0
   \   000033   12....       LCALL   ?PUSH_XSTACK_I_TWO
   \   000036   8C..         MOV     ?V0 + 0,R4
   \   000038   8D..         MOV     ?V0 + 1,R5
   \   00003A   78..         MOV     R0,#?V0 + 0
   \   00003C   12....       LCALL   ?PUSH_XSTACK_I_TWO
   \   00003F   8E..         MOV     ?V0 + 0,R6
   \   000041   75..00       MOV     ?V0 + 1,#0x0
   \   000044   78..         MOV     R0,#?V0 + 0
   \   000046   12....       LCALL   ?PUSH_XSTACK_I_TWO
   \   000049   75..01       MOV     ?V0 + 0,#0x1
   \   00004C   78..         MOV     R0,#?V0 + 0
   \   00004E   12....       LCALL   ?PUSH_XSTACK_I_TWO
   \   000051   7920         MOV     R1,#0x20
   \   000053   7C..         MOV     R4,#GenericApp_epDesc & 0xff
   \   000055   7D..         MOV     R5,#(GenericApp_epDesc >> 8) & 0xff
   \   000057   7409         MOV     A,#0x9
   \   000059   12....       LCALL   ?XSTACK_DISP0_8
   \   00005C   AA82         MOV     R2,DPL
   \   00005E   AB83         MOV     R3,DPH
   \   000060   12....       LCALL   ??AF_DataRequest?relay
   \   000063   7409         MOV     A,#0x9
   \   000065   12....       LCALL   ?DEALLOC_XSTACK8
   \   000068   E9           MOV     A,R1
   \   000069   7004         JNZ     ??SendData_0
    129                  {
    130                          return 1;
   \   00006B   7901         MOV     R1,#0x1
   \   00006D   8002         SJMP    ??SendData_1
    131                  }
    132                  else
    133                  {
    134                          return 0;// Error occurred in request to send.
   \                     ??SendData_0:
   \   00006F   7900         MOV     R1,#0x0
   \                     ??SendData_1:
   \   000071   740C         MOV     A,#0xc
    135                  }
   \   000073   02....       LJMP    ?Subroutine0 & 0xFFFF
    136          }

   \                                 In  segment BANKED_CODE, align 1, keep-with-next
   \                     ?Subroutine4:
   \   000000   F0           MOVX    @DPTR,A
   \   000001                ; Setup parameters for call to function HalUARTOpen
   \   000001   85..82       MOV     DPL,?XSP + 0
   \   000004   85..83       MOV     DPH,?XSP + 1
   \   000007   22           RET

   \                                 In  segment BANKED_CODE, align 1, keep-with-next
   \                     ?Subroutine0:
   \   000000   12....       LCALL   ?DEALLOC_XSTACK8
   \   000003                REQUIRE ??Subroutine34_0
   \   000003                ; // Fall through to label ??Subroutine34_0

   \                                 In  segment BANKED_CODE, align 1, keep-with-next
   \                     ??Subroutine34_0:
   \   000000   7F02         MOV     R7,#0x2
   \   000002   02....       LJMP    ?BANKED_LEAVE_XDATA
    137          

   \                                 In  segment BANKED_CODE, align 1, keep-with-next
    138          void Delay(unsigned n)  
   \                     Delay:
    139          {
   \   000000                ; Saved register size: 0
   \   000000                ; Auto size: 0
    140           unsigned tt;
    141           for(tt=0;tt<n;tt++);
   \   000000   7800         MOV     R0,#0x0
   \   000002   7900         MOV     R1,#0x0
   \   000004   8003         SJMP    ??CrossCallReturnLabel_5
   \                     ??Delay_0:
   \   000006   12....       LCALL   ?Subroutine5 & 0xFFFF
   \                     ??CrossCallReturnLabel_5:
   \   000009   C3           CLR     C
   \   00000A   E8           MOV     A,R0
   \   00000B   9A           SUBB    A,R2
   \   00000C   E9           MOV     A,R1
   \   00000D   9B           SUBB    A,R3
   \   00000E   40F6         JC      ??Delay_0
    142           for(tt=0;tt<n;tt++);
   \   000010   7800         MOV     R0,#0x0
   \   000012   7900         MOV     R1,#0x0
   \   000014   8003         SJMP    ??CrossCallReturnLabel_6
   \                     ??Delay_1:
   \   000016   12....       LCALL   ?Subroutine5 & 0xFFFF
   \                     ??CrossCallReturnLabel_6:
   \   000019   C3           CLR     C
   \   00001A   E8           MOV     A,R0
   \   00001B   9A           SUBB    A,R2
   \   00001C   E9           MOV     A,R1
   \   00001D   9B           SUBB    A,R3
   \   00001E   40F6         JC      ??Delay_1
    143           for(tt=0;tt<n;tt++);
   \   000020   7800         MOV     R0,#0x0
   \   000022   7900         MOV     R1,#0x0
   \   000024   8003         SJMP    ??CrossCallReturnLabel_7
   \                     ??Delay_2:
   \   000026   12....       LCALL   ?Subroutine5 & 0xFFFF
   \                     ??CrossCallReturnLabel_7:
   \   000029   C3           CLR     C
   \   00002A   E8           MOV     A,R0
   \   00002B   9A           SUBB    A,R2
   \   00002C   E9           MOV     A,R1
   \   00002D   9B           SUBB    A,R3
   \   00002E   40F6         JC      ??Delay_2
    144           for(tt=0;tt<n;tt++);
   \   000030   7800         MOV     R0,#0x0
   \   000032   7900         MOV     R1,#0x0
   \   000034   8003         SJMP    ??CrossCallReturnLabel_8
   \                     ??Delay_3:
   \   000036   12....       LCALL   ?Subroutine5 & 0xFFFF
   \                     ??CrossCallReturnLabel_8:
   \   000039   C3           CLR     C
   \   00003A   E8           MOV     A,R0
   \   00003B   9A           SUBB    A,R2
   \   00003C   E9           MOV     A,R1
   \   00003D   9B           SUBB    A,R3
   \   00003E   40F6         JC      ??Delay_3
    145           for(tt=0;tt<n;tt++);
   \   000040   7800         MOV     R0,#0x0
   \   000042   7900         MOV     R1,#0x0
   \   000044   8003         SJMP    ??CrossCallReturnLabel_9
   \                     ??Delay_4:
   \   000046   12....       LCALL   ?Subroutine5 & 0xFFFF
   \                     ??CrossCallReturnLabel_9:
   \   000049   C3           CLR     C
   \   00004A   E8           MOV     A,R0
   \   00004B   9A           SUBB    A,R2
   \   00004C   E9           MOV     A,R1
   \   00004D   9B           SUBB    A,R3
   \   00004E   40F6         JC      ??Delay_4
    146          }
   \   000050   02....       LJMP    ?BRET

   \                                 In  segment BANKED_CODE, align 1, keep-with-next
   \                     ?Subroutine5:
   \   000000   E8           MOV     A,R0
   \   000001   2401         ADD     A,#0x1
   \   000003   08           INC     R0
   \   000004   E9           MOV     A,R1
   \   000005   3400         ADDC    A,#0x0
   \   000007   F9           MOV     R1,A
   \   000008   22           RET
    147          

   \                                 In  segment BANKED_CODE, align 1, keep-with-next
    148          void UART_Send_String( unsigned char *Data,int len)
   \                     UART_Send_String:
    149          {
   \   000000   C082         PUSH    DPL
   \   000002   C083         PUSH    DPH
   \   000004                ; Saved register size: 2
   \   000004                ; Auto size: 0
    150          
    151            HalUARTWrite( SER_PORT,  Data, len);
   \   000004                ; Setup parameters for call to function HalUARTWrite
   \   000004   7900         MOV     R1,#0x0
   \   000006   12....       LCALL   ??HalUARTWrite?relay
    152          }
   \   000009                REQUIRE ?Subroutine1
   \   000009                ; // Fall through to label ?Subroutine1

   \                                 In  segment BANKED_CODE, align 1, keep-with-next
   \                     ?Subroutine1:
   \   000000   D083         POP     DPH
   \   000002   D082         POP     DPL
   \   000004   02....       LJMP    ?BRET
    153          
    154          

   \                                 In  segment BANKED_CODE, align 1, keep-with-next
    155          void uprint( uint8 * Data)
   \                     uprint:
    156          {
   \   000000   74F7         MOV     A,#-0x9
   \   000002   12....       LCALL   ?BANKED_ENTER_XDATA
   \   000005                ; Saved register size: 9
   \   000005                ; Auto size: 0
   \   000005   EA           MOV     A,R2
   \   000006   FE           MOV     R6,A
   \   000007   EB           MOV     A,R3
   \   000008   FF           MOV     R7,A
    157            UART_Send_String( Data, strlen(Data) );
                                                  ^
Warning[Pe167]: argument of type "unsigned char *" is incompatible with
          parameter of type "char const *"
   \   000009                ; Setup parameters for call to function UART_Send_String
   \   000009                ; Setup parameters for call to function strlen
   \   000009   12....       LCALL   ??strlen?relay
   \   00000C   EA           MOV     A,R2
   \   00000D   FC           MOV     R4,A
   \   00000E   EB           MOV     A,R3
   \   00000F   FD           MOV     R5,A
   \   000010   EE           MOV     A,R6
   \   000011   FA           MOV     R2,A
   \   000012   EF           MOV     A,R7
   \   000013   FB           MOV     R3,A
   \   000014   12....       LCALL   ??UART_Send_String?relay
    158          }
   \   000017                REQUIRE ?Subroutine2
   \   000017                ; // Fall through to label ?Subroutine2

   \                                 In  segment BANKED_CODE, align 1, keep-with-next
   \                     ?Subroutine2:
   \   000000   7F01         MOV     R7,#0x1
   \   000002   02....       LJMP    ?BANKED_LEAVE_XDATA
    159          
    160          

   \                                 In  segment BANKED_CODE, align 1, keep-with-next
    161          void parse_procotol(uint8*buff, uint8 len)
   \                     parse_procotol:
    162          {
   \   000000   74F0         MOV     A,#-0x10
   \   000002   12....       LCALL   ?BANKED_ENTER_XDATA
   \   000005                ; Saved register size: 16
   \   000005                ; Auto size: 93
   \   000005   74A3         MOV     A,#-0x5d
   \   000007   12....       LCALL   ?ALLOC_XSTACK8
   \   00000A   8A..         MOV     ?V0 + 0,R2
   \   00000C   8B..         MOV     ?V0 + 1,R3
   \   00000E   89..         MOV     ?V0 + 2,R1
    163             
    164            uint8 logicalType;
    165            char pbuf[3];
    166            char pbuf1[3];
    167            char pbuf2[65];
    168            
    169            uint16 tmp_ios;
    170            nwkActiveKeyItems keyItems;
    171            
    172            if(len == 1)
   \   000010   7401         MOV     A,#0x1
   \   000012   65..         XRL     A,?V0 + 2
   \   000014   6003         JZ      $+5
   \   000016   02....       LJMP    ??parse_procotol_0 & 0xFFFF
    173            {
    174                  if(buff[0] == 0x01)
   \   000019   8A82         MOV     DPL,R2
   \   00001B   8B83         MOV     DPH,R3
   \   00001D   E0           MOVX    A,@DPTR
   \   00001E   6401         XRL     A,#0x1
   \   000020   7010         JNZ     ??parse_procotol_1
    175                  {
    176                    SendData( 0xffff, buff, 1); 
   \   000022                ; Setup parameters for call to function SendData
   \   000022   7901         MOV     R1,#0x1
   \   000024   AC..         MOV     R4,?V0 + 0
   \   000026   AD..         MOV     R5,?V0 + 1
   \   000028   7AFF         MOV     R2,#-0x1
   \   00002A   7BFF         MOV     R3,#-0x1
   \   00002C   12....       LCALL   ??SendData?relay
    177                    return;
   \   00002F   02....       LJMP    ??parse_procotol_2 & 0xFFFF
    178                  } 
    179                  if(buff[0]== 0x02)
   \                     ??parse_procotol_1:
   \   000032   E0           MOVX    A,@DPTR
   \   000033   6402         XRL     A,#0x2
   \   000035   700B         JNZ     ??parse_procotol_3
    180                  {
    181                    /// short address
    182                    UART_Send_String( (uint8*)&_NIB.nwkDevAddress, 2);
   \   000037                ; Setup parameters for call to function UART_Send_String
   \   000037   7C02         MOV     R4,#0x2
   \   000039   7D00         MOV     R5,#0x0
   \   00003B   7A..         MOV     R2,#(_NIB + 20) & 0xff
   \   00003D   7B..         MOV     R3,#((_NIB + 20) >> 8) & 0xff
   \   00003F   12....       LCALL   ??UART_Send_String?relay
    183                    
    184                  }
    185                  if(buff[0] == 0x05)
   \                     ??parse_procotol_3:
   \   000042   85..82       MOV     DPL,?V0 + 0
   \   000045   85..83       MOV     DPH,?V0 + 1
   \   000048   E0           MOVX    A,@DPTR
   \   000049   6405         XRL     A,#0x5
   \   00004B   7034         JNZ     ??parse_procotol_4
    186                  {
    187                    /// pan id
    188                    pbuf[0] = 0x06;
   \   00004D   7401         MOV     A,#0x1
   \   00004F   12....       LCALL   ?XSTACK_DISP0_8
   \   000052   7406         MOV     A,#0x6
   \   000054   F0           MOVX    @DPTR,A
    189                    pbuf[1] = LO_UINT16(_NIB.nwkPanId);
   \   000055   90....       MOV     DPTR,#_NIB + 33
   \   000058   E0           MOVX    A,@DPTR
   \   000059   C0E0         PUSH    A
   \   00005B   7402         MOV     A,#0x2
   \   00005D   12....       LCALL   ?XSTACK_DISP0_8
   \   000060   D0E0         POP     A
   \   000062   F0           MOVX    @DPTR,A
    190                    pbuf[2] = HI_UINT16(_NIB.nwkPanId);
   \   000063   90....       MOV     DPTR,#_NIB + 34
   \   000066   E0           MOVX    A,@DPTR
   \   000067   C0E0         PUSH    A
   \   000069   7403         MOV     A,#0x3
   \   00006B   12....       LCALL   ?XSTACK_DISP0_8
   \   00006E   D0E0         POP     A
   \   000070   F0           MOVX    @DPTR,A
    191                    
    192                    UART_Send_String( (uint8*)&pbuf, 3);          
   \   000071                ; Setup parameters for call to function UART_Send_String
   \   000071   7C03         MOV     R4,#0x3
   \   000073   7D00         MOV     R5,#0x0
   \   000075   7401         MOV     A,#0x1
   \   000077   12....       LCALL   ?XSTACK_DISP0_8
   \   00007A   AA82         MOV     R2,DPL
   \   00007C   AB83         MOV     R3,DPH
   \   00007E   12....       LCALL   ??UART_Send_String?relay
    193                  }
    194                  if(buff[0] == 0x07)/// channel
   \                     ??parse_procotol_4:
   \   000081   85..82       MOV     DPL,?V0 + 0
   \   000084   85..83       MOV     DPH,?V0 + 1
   \   000087   E0           MOVX    A,@DPTR
   \   000088   6407         XRL     A,#0x7
   \   00008A   7026         JNZ     ??parse_procotol_5
    195                  {
    196                      pbuf[0] = 0x08;
   \   00008C   7401         MOV     A,#0x1
   \   00008E   12....       LCALL   ?XSTACK_DISP0_8
   \   000091   7408         MOV     A,#0x8
   \   000093   F0           MOVX    @DPTR,A
    197                      pbuf[1] = _NIB.nwkLogicalChannel;
   \   000094   90....       MOV     DPTR,#_NIB + 22
   \   000097   E0           MOVX    A,@DPTR
   \   000098   C0E0         PUSH    A
   \   00009A   7402         MOV     A,#0x2
   \   00009C   12....       LCALL   ?XSTACK_DISP0_8
   \   00009F   D0E0         POP     A
   \   0000A1   F0           MOVX    @DPTR,A
    198                      UART_Send_String( (uint8*)&pbuf, 2);
   \   0000A2                ; Setup parameters for call to function UART_Send_String
   \   0000A2   7C02         MOV     R4,#0x2
   \   0000A4   7D00         MOV     R5,#0x0
   \   0000A6   7401         MOV     A,#0x1
   \   0000A8   12....       LCALL   ?XSTACK_DISP0_8
   \   0000AB   AA82         MOV     R2,DPL
   \   0000AD   AB83         MOV     R3,DPH
   \   0000AF   12....       LCALL   ??UART_Send_String?relay
    199                  }
    200                  if(buff[0] ==0x03) // mac address
   \                     ??parse_procotol_5:
   \   0000B2   85..82       MOV     DPL,?V0 + 0
   \   0000B5   85..83       MOV     DPH,?V0 + 1
   \   0000B8   E0           MOVX    A,@DPTR
   \   0000B9   6403         XRL     A,#0x3
   \   0000BB   7041         JNZ     ??parse_procotol_6
    201                  {
    202                      ieeeAddr = NLME_GetExtAddr();
   \   0000BD                ; Setup parameters for call to function NLME_GetExtAddr
   \   0000BD   12....       LCALL   ??NLME_GetExtAddr?relay
   \   0000C0   90....       MOV     DPTR,#ieeeAddr
   \   0000C3   EA           MOV     A,R2
   \   0000C4   F0           MOVX    @DPTR,A
   \   0000C5   A3           INC     DPTR
   \   0000C6   EB           MOV     A,R3
   \   0000C7   F0           MOVX    @DPTR,A
    203                      
    204                      pbuf2[0] = 0x04;
   \   0000C8   741C         MOV     A,#0x1c
   \   0000CA   12....       LCALL   ?XSTACK_DISP0_8
   \   0000CD   7404         MOV     A,#0x4
   \   0000CF   F0           MOVX    @DPTR,A
    205                      strncpy(&pbuf2[1], ieeeAddr,8);
                                                ^
Warning[Pe167]: argument of type "unsigned char *" is incompatible with
          parameter of type "char const *"
   \   0000D0                ; Setup parameters for call to function strncpy
   \   0000D0   75..08       MOV     ?V0 + 4,#0x8
   \   0000D3   75..00       MOV     ?V0 + 5,#0x0
   \   0000D6   78..         MOV     R0,#?V0 + 4
   \   0000D8   12....       LCALL   ?PUSH_XSTACK_I_TWO
   \   0000DB   90....       MOV     DPTR,#ieeeAddr
   \   0000DE   E0           MOVX    A,@DPTR
   \   0000DF   FC           MOV     R4,A
   \   0000E0   A3           INC     DPTR
   \   0000E1   E0           MOVX    A,@DPTR
   \   0000E2   FD           MOV     R5,A
   \   0000E3   741F         MOV     A,#0x1f
   \   0000E5   12....       LCALL   ?XSTACK_DISP0_8
   \   0000E8   12....       LCALL   ?Subroutine19 & 0xFFFF
   \                     ??CrossCallReturnLabel_33:
   \   0000EB   12....       LCALL   ?DEALLOC_XSTACK8
    206                      
    207                      UART_Send_String( (uint8*)&pbuf2, 9);
   \   0000EE                ; Setup parameters for call to function UART_Send_String
   \   0000EE   7C09         MOV     R4,#0x9
   \   0000F0   7D00         MOV     R5,#0x0
   \   0000F2   741C         MOV     A,#0x1c
   \   0000F4   12....       LCALL   ?XSTACK_DISP0_8
   \   0000F7   AA82         MOV     R2,DPL
   \   0000F9   AB83         MOV     R3,DPH
   \   0000FB   12....       LCALL   ??UART_Send_String?relay
    208                      
    209                  }
    210                  if( buff[0] ==0xc0) // coordinator 
   \                     ??parse_procotol_6:
   \   0000FE   85..82       MOV     DPL,?V0 + 0
   \   000101   85..83       MOV     DPH,?V0 + 1
   \   000104   E0           MOVX    A,@DPTR
   \   000105   64C0         XRL     A,#0xc0
   \   000107   704A         JNZ     ??parse_procotol_7
    211                  {
    212                    logicalType = (uint8)ZDO_Config_Node_Descriptor.LogicalType;
   \   000109   12....       LCALL   ?Subroutine6 & 0xFFFF
    213                    osal_nv_item_init( ZCD_NV_LOGICAL_TYPE, sizeof(logicalType), &logicalType );
   \                     ??CrossCallReturnLabel_10:
   \   00010C   12....       LCALL   ?PUSH_XSTACK_I_TWO
   \   00010F   7C01         MOV     R4,#0x1
   \   000111   7D00         MOV     R5,#0x0
   \   000113   7A87         MOV     R2,#-0x79
   \   000115   7B00         MOV     R3,#0x0
   \   000117   12....       LCALL   ??Subroutine30_0 & 0xFFFF
   \                     ??CrossCallReturnLabel_62:
   \   00011A   12....       LCALL   ?DEALLOC_XSTACK8
    214                    logicalType = ZG_DEVICETYPE_COORDINATOR;
   \   00011D   85..82       MOV     DPL,?XSP + 0
   \   000120   85..83       MOV     DPH,?XSP + 1
   \   000123   E4           CLR     A
   \   000124   F0           MOVX    @DPTR,A
    215                    if( osal_nv_write( ZCD_NV_LOGICAL_TYPE, 0 ,sizeof(logicalType), &logicalType) != ZSUCCESS)
   \   000125                ; Setup parameters for call to function osal_nv_write
   \   000125   78..         MOV     R0,#?V0 + 0
   \   000127   12....       LCALL   ?PUSH_XSTACK_I_TWO
   \   00012A   75..01       MOV     ?V0 + 0,#0x1
   \   00012D   75..00       MOV     ?V0 + 1,#0x0
   \   000130   78..         MOV     R0,#?V0 + 0
   \   000132   12....       LCALL   ?PUSH_XSTACK_I_TWO
   \   000135   12....       LCALL   ?Subroutine18 & 0xFFFF
   \                     ??CrossCallReturnLabel_66:
   \   000138   12....       LCALL   ?DEALLOC_XSTACK8
   \   00013B   E9           MOV     A,R1
   \   00013C   6007         JZ      ??parse_procotol_8
    216                    {
    217                      uprint("set device to coordi failed");
   \   00013E                ; Setup parameters for call to function uprint
   \   00013E   7A..         MOV     R2,#`?<Constant "set device to coordi ...">` & 0xff
   \   000140   7B..         MOV     R3,#(`?<Constant "set device to coordi ...">` >> 8) & 0xff
   \   000142   02....       LJMP    ??parse_procotol_9 & 0xFFFF
    218                    }else
    219                    {
    220                      zgWriteStartupOptions (ZG_STARTUP_SET, ZCD_STARTOPT_DEFAULT_NETWORK_STATE);
   \                     ??parse_procotol_8:
   \   000145                ; Setup parameters for call to function zgWriteStartupOptions
   \   000145   7A02         MOV     R2,#0x2
   \   000147   79FF         MOV     R1,#-0x1
   \   000149   12....       LCALL   ??zgWriteStartupOptions?relay
    221                      uprint("set device to coordi,restart it");
   \   00014C                ; Setup parameters for call to function uprint
   \   00014C   7A..         MOV     R2,#`?<Constant "set device to coordi,...">` & 0xff
   \   00014E   7B..         MOV     R3,#(`?<Constant "set device to coordi,...">` >> 8) & 0xff
   \   000150   02....       LJMP    ??parse_procotol_9 & 0xFFFF
    222                    }         
    223                    return;
    224                  }
    225          
    226                  if( buff[0] ==0xe0) // router
   \                     ??parse_procotol_7:
   \   000153   E0           MOVX    A,@DPTR
   \   000154   64E0         XRL     A,#0xe0
   \   000156   704B         JNZ     ??parse_procotol_10
    227                  {
    228                    logicalType = (uint8)ZDO_Config_Node_Descriptor.LogicalType;
   \   000158   12....       LCALL   ?Subroutine6 & 0xFFFF
    229                    osal_nv_item_init( ZCD_NV_LOGICAL_TYPE, sizeof(logicalType), &logicalType );
   \                     ??CrossCallReturnLabel_11:
   \   00015B   12....       LCALL   ?PUSH_XSTACK_I_TWO
   \   00015E   7C01         MOV     R4,#0x1
   \   000160   7D00         MOV     R5,#0x0
   \   000162   7A87         MOV     R2,#-0x79
   \   000164   7B00         MOV     R3,#0x0
   \   000166   12....       LCALL   ??Subroutine30_0 & 0xFFFF
   \                     ??CrossCallReturnLabel_63:
   \   000169   12....       LCALL   ?DEALLOC_XSTACK8
    230                    logicalType = ZG_DEVICETYPE_ROUTER;
   \   00016C   85..82       MOV     DPL,?XSP + 0
   \   00016F   85..83       MOV     DPH,?XSP + 1
   \   000172   7401         MOV     A,#0x1
   \   000174   F0           MOVX    @DPTR,A
    231                    if( osal_nv_write( ZCD_NV_LOGICAL_TYPE, 0 ,sizeof(logicalType), &logicalType) != ZSUCCESS)
   \   000175                ; Setup parameters for call to function osal_nv_write
   \   000175   78..         MOV     R0,#?V0 + 0
   \   000177   12....       LCALL   ?PUSH_XSTACK_I_TWO
   \   00017A   75..01       MOV     ?V0 + 0,#0x1
   \   00017D   75..00       MOV     ?V0 + 1,#0x0
   \   000180   78..         MOV     R0,#?V0 + 0
   \   000182   12....       LCALL   ?PUSH_XSTACK_I_TWO
   \   000185   12....       LCALL   ?Subroutine18 & 0xFFFF
   \                     ??CrossCallReturnLabel_67:
   \   000188   12....       LCALL   ?DEALLOC_XSTACK8
   \   00018B   E9           MOV     A,R1
   \   00018C   6007         JZ      ??parse_procotol_11
    232                    {
    233                      uprint("set device to router failed");
   \   00018E                ; Setup parameters for call to function uprint
   \   00018E   7A..         MOV     R2,#`?<Constant "set device to router ...">` & 0xff
   \   000190   7B..         MOV     R3,#(`?<Constant "set device to router ...">` >> 8) & 0xff
   \   000192   02....       LJMP    ??parse_procotol_9 & 0xFFFF
    234                    }else
    235                    {
    236                      zgWriteStartupOptions (ZG_STARTUP_SET, ZCD_STARTOPT_DEFAULT_NETWORK_STATE);
   \                     ??parse_procotol_11:
   \   000195                ; Setup parameters for call to function zgWriteStartupOptions
   \   000195   7A02         MOV     R2,#0x2
   \   000197   79FF         MOV     R1,#-0x1
   \   000199   12....       LCALL   ??zgWriteStartupOptions?relay
    237                      uprint("set device to router,restart it");
   \   00019C                ; Setup parameters for call to function uprint
   \   00019C   7A..         MOV     R2,#`?<Constant "set device to router,...">` & 0xff
   \   00019E   7B..         MOV     R3,#(`?<Constant "set device to router,...">` >> 8) & 0xff
   \   0001A0   02....       LJMP    ??parse_procotol_9 & 0xFFFF
    238                    }
    239                    
    240                    return;
    241                  }
    242          
    243                  if( buff[0] ==0xe1) // end device
   \                     ??parse_procotol_10:
   \   0001A3   E0           MOVX    A,@DPTR
   \   0001A4   64E1         XRL     A,#0xe1
   \   0001A6   6003         JZ      $+5
   \   0001A8   02....       LJMP    ??parse_procotol_2 & 0xFFFF
    244                  {
    245                    logicalType = (uint8)ZDO_Config_Node_Descriptor.LogicalType;
   \   0001AB   12....       LCALL   ?Subroutine6 & 0xFFFF
    246                    osal_nv_item_init( ZCD_NV_LOGICAL_TYPE, sizeof(logicalType), &logicalType );
   \                     ??CrossCallReturnLabel_12:
   \   0001AE   12....       LCALL   ?PUSH_XSTACK_I_TWO
   \   0001B1   7C01         MOV     R4,#0x1
   \   0001B3   7D00         MOV     R5,#0x0
   \   0001B5   7A87         MOV     R2,#-0x79
   \   0001B7   7B00         MOV     R3,#0x0
   \   0001B9   12....       LCALL   ??Subroutine30_0 & 0xFFFF
   \                     ??CrossCallReturnLabel_64:
   \   0001BC   12....       LCALL   ?DEALLOC_XSTACK8
    247                    logicalType = ZG_DEVICETYPE_ENDDEVICE;
   \   0001BF   85..82       MOV     DPL,?XSP + 0
   \   0001C2   85..83       MOV     DPH,?XSP + 1
   \   0001C5   7402         MOV     A,#0x2
   \   0001C7   F0           MOVX    @DPTR,A
    248                    if( osal_nv_write( ZCD_NV_LOGICAL_TYPE, 0 ,sizeof(logicalType), &logicalType) != ZSUCCESS)
   \   0001C8                ; Setup parameters for call to function osal_nv_write
   \   0001C8   78..         MOV     R0,#?V0 + 0
   \   0001CA   12....       LCALL   ?PUSH_XSTACK_I_TWO
   \   0001CD   75..01       MOV     ?V0 + 0,#0x1
   \   0001D0   75..00       MOV     ?V0 + 1,#0x0
   \   0001D3   78..         MOV     R0,#?V0 + 0
   \   0001D5   12....       LCALL   ?PUSH_XSTACK_I_TWO
   \   0001D8   12....       LCALL   ?Subroutine18 & 0xFFFF
   \                     ??CrossCallReturnLabel_68:
   \   0001DB   12....       LCALL   ?DEALLOC_XSTACK8
   \   0001DE   E9           MOV     A,R1
   \   0001DF   6007         JZ      ??parse_procotol_12
    249                    {
    250                      uprint("set device to end device failed");
   \   0001E1                ; Setup parameters for call to function uprint
   \   0001E1   7A..         MOV     R2,#`?<Constant "set device to end dev...">` & 0xff
   \   0001E3   7B..         MOV     R3,#(`?<Constant "set device to end dev...">` >> 8) & 0xff
   \   0001E5   02....       LJMP    ??parse_procotol_9 & 0xFFFF
    251                    }else
    252                    {
    253                      zgWriteStartupOptions (ZG_STARTUP_SET, ZCD_STARTOPT_DEFAULT_NETWORK_STATE);
   \                     ??parse_procotol_12:
   \   0001E8                ; Setup parameters for call to function zgWriteStartupOptions
   \   0001E8   7A02         MOV     R2,#0x2
   \   0001EA   79FF         MOV     R1,#-0x1
   \   0001EC   12....       LCALL   ??zgWriteStartupOptions?relay
    254                      uprint("set device to end device,restart it");
   \   0001EF                ; Setup parameters for call to function uprint
   \   0001EF   7A..         MOV     R2,#`?<Constant "set device to end dev...">_1` & 0xff
   \   0001F1   7B..         MOV     R3,#(`?<Constant "set device to end dev...">_1` >> 8) & 0xff
   \   0001F3   02....       LJMP    ??parse_procotol_9 & 0xFFFF
    255                    }
    256                    return;
    257                  }        
    258            }// len == 1
    259          
    260                if( len == 2)
   \                     ??parse_procotol_0:
   \   0001F6   7402         MOV     A,#0x2
   \   0001F8   65..         XRL     A,?V0 + 2
   \   0001FA   6003         JZ      $+5
   \   0001FC   02....       LJMP    ??parse_procotol_13 & 0xFFFF
    261                {
    262                  if(buff[0] == 0x09)
   \   0001FF   8A82         MOV     DPL,R2
   \   000201   8B83         MOV     DPH,R3
   \   000203   E0           MOVX    A,@DPTR
   \   000204   6409         XRL     A,#0x9
   \   000206   705A         JNZ     ??parse_procotol_14
    263                  {
    264                    if(buff[1] >= 0 && buff[1] <= 7)
                                      ^
Warning[Pe186]: pointless comparison of unsigned integer with zero
   \   000208   A3           INC     DPTR
   \   000209   E0           MOVX    A,@DPTR
   \   00020A   C3           CLR     C
   \   00020B   9408         SUBB    A,#0x8
   \   00020D   4003         JC      $+5
   \   00020F   02....       LJMP    ??parse_procotol_2 & 0xFFFF
    265                    {
    266                       tmp_ios = 0x0202 + buff[1];
   \   000212   8A82         MOV     DPL,R2
   \   000214   8B83         MOV     DPH,R3
   \   000216   12....       LCALL   ?Subroutine14 & 0xFFFF
    267                       if( osal_nv_item_init( tmp_ios, sizeof(uint8), NULL) == ZSUCCESS)
   \                     ??CrossCallReturnLabel_27:
   \   000219   12....       LCALL   ?PUSH_XSTACK_I_TWO
   \   00021C   12....       LCALL   ?Subroutine17 & 0xFFFF
   \                     ??CrossCallReturnLabel_58:
   \   00021F   12....       LCALL   ?DEALLOC_XSTACK8
   \   000222   E9           MOV     A,R1
   \   000223   7036         JNZ     ??parse_procotol_15
    268                       {
    269                         osal_nv_read(tmp_ios,0, sizeof(uint8),&pbuf[1]);
   \   000225                ; Setup parameters for call to function osal_nv_read
   \   000225   7402         MOV     A,#0x2
   \   000227   12....       LCALL   ?XSTACK_DISP0_8
   \   00022A   8582..       MOV     ?V0 + 4,DPL
   \   00022D   8583..       MOV     ?V0 + 5,DPH
   \   000230   78..         MOV     R0,#?V0 + 4
   \   000232   12....       LCALL   ?PUSH_XSTACK_I_TWO
   \   000235   75..01       MOV     ?V0 + 4,#0x1
   \   000238   75..00       MOV     ?V0 + 5,#0x0
   \   00023B   78..         MOV     R0,#?V0 + 4
   \   00023D   12....       LCALL   ?PUSH_XSTACK_I_TWO
   \   000240   12....       LCALL   ?Subroutine21 & 0xFFFF
   \                     ??CrossCallReturnLabel_74:
   \   000243   12....       LCALL   ?DEALLOC_XSTACK8
    270                         pbuf[0] = 0x09;
   \   000246   7401         MOV     A,#0x1
   \   000248   12....       LCALL   ?XSTACK_DISP0_8
   \   00024B   7409         MOV     A,#0x9
   \   00024D   F0           MOVX    @DPTR,A
    271                         UART_Send_String( (uint8*)&pbuf, 2);
   \   00024E                ; Setup parameters for call to function UART_Send_String
   \   00024E   7C02         MOV     R4,#0x2
   \   000250   7D00         MOV     R5,#0x0
   \   000252   AA82         MOV     R2,DPL
   \   000254   AB83         MOV     R3,DPH
   \   000256   12....       LCALL   ??UART_Send_String?relay
   \   000259   8007         SJMP    ??parse_procotol_14
    272                       }else
    273                       {
    274                         uprint("osal_nv_item_init 0x09 failed");
   \                     ??parse_procotol_15:
   \   00025B                ; Setup parameters for call to function uprint
   \   00025B   7A..         MOV     R2,#`?<Constant "osal_nv_item_init 0x0...">` & 0xff
   \   00025D   7B..         MOV     R3,#(`?<Constant "osal_nv_item_init 0x0...">` >> 8) & 0xff
   \   00025F   12....       LCALL   ??uprint?relay
    275                       }
    276                    }
    277                  }
    278                  if(buff[0] == 0x10)
   \                     ??parse_procotol_14:
   \   000262   85..82       MOV     DPL,?V0 + 0
   \   000265   85..83       MOV     DPH,?V0 + 1
   \   000268   E0           MOVX    A,@DPTR
   \   000269   6410         XRL     A,#0x10
   \   00026B   705D         JNZ     ??parse_procotol_16
    279                  {
    280                    if(buff[1] >= 0 && buff[1] <= 7)
                                      ^
Warning[Pe186]: pointless comparison of unsigned integer with zero
   \   00026D   A3           INC     DPTR
   \   00026E   E0           MOVX    A,@DPTR
   \   00026F   C3           CLR     C
   \   000270   9408         SUBB    A,#0x8
   \   000272   4003         JC      $+5
   \   000274   02....       LJMP    ??parse_procotol_2 & 0xFFFF
    281                    {
    282                       tmp_ios = 0x0210 + buff[1];
   \   000277   12....       LCALL   ?Subroutine15 & 0xFFFF
    283                       if( osal_nv_item_init( tmp_ios, sizeof(uint8)*64, NULL) == ZSUCCESS)
   \                     ??CrossCallReturnLabel_29:
   \   00027A   12....       LCALL   ?PUSH_XSTACK_I_TWO
   \   00027D   7C40         MOV     R4,#0x40
   \   00027F   12....       LCALL   ??Subroutine29_0 & 0xFFFF
   \                     ??CrossCallReturnLabel_60:
   \   000282   12....       LCALL   ?DEALLOC_XSTACK8
   \   000285   E9           MOV     A,R1
   \   000286   703B         JNZ     ??parse_procotol_17
    284                       {
    285                         osal_nv_read(tmp_ios,0, sizeof(uint8)*64,&pbuf2[1]);
   \   000288                ; Setup parameters for call to function osal_nv_read
   \   000288   741D         MOV     A,#0x1d
   \   00028A   12....       LCALL   ?XSTACK_DISP0_8
   \   00028D   8582..       MOV     ?V0 + 4,DPL
   \   000290   8583..       MOV     ?V0 + 5,DPH
   \   000293   78..         MOV     R0,#?V0 + 4
   \   000295   12....       LCALL   ?PUSH_XSTACK_I_TWO
   \   000298   75..40       MOV     ?V0 + 4,#0x40
   \   00029B   75..00       MOV     ?V0 + 5,#0x0
   \   00029E   78..         MOV     R0,#?V0 + 4
   \   0002A0   12....       LCALL   ?PUSH_XSTACK_I_TWO
   \   0002A3   12....       LCALL   ?Subroutine21 & 0xFFFF
   \                     ??CrossCallReturnLabel_75:
   \   0002A6   12....       LCALL   ?DEALLOC_XSTACK8
    286                         pbuf[0] = 0x10;
   \   0002A9   7401         MOV     A,#0x1
   \   0002AB   12....       LCALL   ?XSTACK_DISP0_8
   \   0002AE   7410         MOV     A,#0x10
   \   0002B0   F0           MOVX    @DPTR,A
    287                         UART_Send_String( (uint8*)&pbuf2, 65);
   \   0002B1                ; Setup parameters for call to function UART_Send_String
   \   0002B1   7C41         MOV     R4,#0x41
   \   0002B3   7D00         MOV     R5,#0x0
   \   0002B5   741C         MOV     A,#0x1c
   \   0002B7   12....       LCALL   ?XSTACK_DISP0_8
   \   0002BA   AA82         MOV     R2,DPL
   \   0002BC   AB83         MOV     R3,DPH
   \   0002BE   12....       LCALL   ??UART_Send_String?relay
   \   0002C1   8007         SJMP    ??parse_procotol_16
    288                       }else
    289                       {
    290                         uprint("osal_nv_item_init 0x10 failed");
   \                     ??parse_procotol_17:
   \   0002C3                ; Setup parameters for call to function uprint
   \   0002C3   7A..         MOV     R2,#`?<Constant "osal_nv_item_init 0x1...">` & 0xff
   \   0002C5   7B..         MOV     R3,#(`?<Constant "osal_nv_item_init 0x1...">` >> 8) & 0xff
   \   0002C7   12....       LCALL   ??uprint?relay
    291                       }
    292                    }          
    293                  }
    294                  
    295                  if( buff[0] == 0xcc )
   \                     ??parse_procotol_16:
   \   0002CA   85..82       MOV     DPL,?V0 + 0
   \   0002CD   85..83       MOV     DPH,?V0 + 1
   \   0002D0   E0           MOVX    A,@DPTR
   \   0002D1   64CC         XRL     A,#0xcc
   \   0002D3   6003         JZ      $+5
   \   0002D5   02....       LJMP    ??parse_procotol_2 & 0xFFFF
    296                  {
    297                    if( buff[1] > 0x0a && buff[1] < 0x1b )
   \   0002D8   A3           INC     DPTR
   \   0002D9   E0           MOVX    A,@DPTR
   \   0002DA   24F5         ADD     A,#-0xb
   \   0002DC   C3           CLR     C
   \   0002DD   9410         SUBB    A,#0x10
   \   0002DF   4003         JC      $+5
   \   0002E1   02....       LJMP    ??parse_procotol_2 & 0xFFFF
    298                    {
    299          
    300                      _NIB.nwkLogicalChannel = buff[1];
   \   0002E4   85..82       MOV     DPL,?V0 + 0
   \   0002E7   85..83       MOV     DPH,?V0 + 1
   \   0002EA   A3           INC     DPTR
   \   0002EB   AE82         MOV     R6,DPL
   \   0002ED   AF83         MOV     R7,DPH
   \   0002EF   E0           MOVX    A,@DPTR
   \   0002F0   90....       MOV     DPTR,#_NIB + 22
   \   0002F3   F0           MOVX    @DPTR,A
    301                      NLME_UpdateNV(0x01);
   \   0002F4                ; Setup parameters for call to function NLME_UpdateNV
   \   0002F4   7901         MOV     R1,#0x1
   \   0002F6   12....       LCALL   ??NLME_UpdateNV?relay
    302                      ZMacSetReq( ZMacChannel, &buff[1]);
   \   0002F9                ; Setup parameters for call to function ZMacSetReq
   \   0002F9   EE           MOV     A,R6
   \   0002FA   FA           MOV     R2,A
   \   0002FB   EF           MOV     A,R7
   \   0002FC   FB           MOV     R3,A
   \   0002FD   79E1         MOV     R1,#-0x1f
   \   0002FF   12....       LCALL   ??ZMacSetReq?relay
    303                      
    304                      osal_nv_item_init( ZCD_NV_CHANLIST, sizeof(zgDefaultChannelList), &zgDefaultChannelList);
   \   000302                ; Setup parameters for call to function osal_nv_item_init
   \   000302   75....       MOV     ?V0 + 4,#zgDefaultChannelList & 0xff
   \   000305   75....       MOV     ?V0 + 5,#(zgDefaultChannelList >> 8) & 0xff
   \   000308   78..         MOV     R0,#?V0 + 4
   \   00030A   12....       LCALL   ?PUSH_XSTACK_I_TWO
   \   00030D   7C04         MOV     R4,#0x4
   \   00030F   7D00         MOV     R5,#0x0
   \   000311   7A84         MOV     R2,#-0x7c
   \   000313   7B00         MOV     R3,#0x0
   \   000315   12....       LCALL   ??Subroutine30_0 & 0xFFFF
   \                     ??CrossCallReturnLabel_65:
   \   000318   12....       LCALL   ?DEALLOC_XSTACK8
    305                      
    306                      if( buff[1] == 0x0b)
   \   00031B   8E82         MOV     DPL,R6
   \   00031D   8F83         MOV     DPH,R7
   \   00031F   E0           MOVX    A,@DPTR
   \   000320   640B         XRL     A,#0xb
   \   000322   700C         JNZ     ??parse_procotol_18
    307                      {
    308                        zgDefaultChannelList = 0x00000800;
   \   000324   90....       MOV     DPTR,#__Constant_800
   \   000327   12....       LCALL   ?XLOAD_R2345
   \   00032A   90....       MOV     DPTR,#zgDefaultChannelList
   \   00032D   12....       LCALL   ?XSTORE_R2345
    309                        
    310                      } 
    311                      if (buff[1] == 0x0c )
   \                     ??parse_procotol_18:
   \   000330   85..82       MOV     DPL,?V0 + 0
   \   000333   85..83       MOV     DPH,?V0 + 1
   \   000336   A3           INC     DPTR
   \   000337   E0           MOVX    A,@DPTR
   \   000338   640C         XRL     A,#0xc
   \   00033A   700C         JNZ     ??parse_procotol_19
    312                      {
    313                        zgDefaultChannelList = 0x00001000;
   \   00033C   90....       MOV     DPTR,#__Constant_1000
   \   00033F   12....       LCALL   ?XLOAD_R2345
   \   000342   90....       MOV     DPTR,#zgDefaultChannelList
   \   000345   12....       LCALL   ?XSTORE_R2345
    314                      }            
    315                      if (buff[1] == 0x0d )
   \                     ??parse_procotol_19:
   \   000348   85..82       MOV     DPL,?V0 + 0
   \   00034B   85..83       MOV     DPH,?V0 + 1
   \   00034E   A3           INC     DPTR
   \   00034F   E0           MOVX    A,@DPTR
   \   000350   640D         XRL     A,#0xd
   \   000352   700C         JNZ     ??parse_procotol_20
    316                      {
    317                        zgDefaultChannelList = 0x00002000;
   \   000354   90....       MOV     DPTR,#__Constant_2000
   \   000357   12....       LCALL   ?XLOAD_R2345
   \   00035A   90....       MOV     DPTR,#zgDefaultChannelList
   \   00035D   12....       LCALL   ?XSTORE_R2345
    318                      }
    319                      if (buff[1] == 0x0e )
   \                     ??parse_procotol_20:
   \   000360   85..82       MOV     DPL,?V0 + 0
   \   000363   85..83       MOV     DPH,?V0 + 1
   \   000366   A3           INC     DPTR
   \   000367   E0           MOVX    A,@DPTR
   \   000368   640E         XRL     A,#0xe
   \   00036A   700C         JNZ     ??parse_procotol_21
    320                      {
    321                        zgDefaultChannelList = 0x00004000;
   \   00036C   90....       MOV     DPTR,#__Constant_4000
   \   00036F   12....       LCALL   ?XLOAD_R2345
   \   000372   90....       MOV     DPTR,#zgDefaultChannelList
   \   000375   12....       LCALL   ?XSTORE_R2345
    322                      }
    323                      if (buff[1] == 0x0f )
   \                     ??parse_procotol_21:
   \   000378   85..82       MOV     DPL,?V0 + 0
   \   00037B   85..83       MOV     DPH,?V0 + 1
   \   00037E   A3           INC     DPTR
   \   00037F   E0           MOVX    A,@DPTR
   \   000380   640F         XRL     A,#0xf
   \   000382   700C         JNZ     ??parse_procotol_22
    324                      {
    325                        zgDefaultChannelList = 0x00008000;
   \   000384   90....       MOV     DPTR,#__Constant_8000
   \   000387   12....       LCALL   ?XLOAD_R2345
   \   00038A   90....       MOV     DPTR,#zgDefaultChannelList
   \   00038D   12....       LCALL   ?XSTORE_R2345
    326                      }
    327                      if (buff[1] == 0x10 )
   \                     ??parse_procotol_22:
   \   000390   85..82       MOV     DPL,?V0 + 0
   \   000393   85..83       MOV     DPH,?V0 + 1
   \   000396   A3           INC     DPTR
   \   000397   E0           MOVX    A,@DPTR
   \   000398   6410         XRL     A,#0x10
   \   00039A   700C         JNZ     ??parse_procotol_23
    328                      {
    329                        zgDefaultChannelList = 0x00010000;
   \   00039C   90....       MOV     DPTR,#__Constant_10000
   \   00039F   12....       LCALL   ?XLOAD_R2345
   \   0003A2   90....       MOV     DPTR,#zgDefaultChannelList
   \   0003A5   12....       LCALL   ?XSTORE_R2345
    330                      }
    331                      if (buff[1] == 0x11 )
   \                     ??parse_procotol_23:
   \   0003A8   85..82       MOV     DPL,?V0 + 0
   \   0003AB   85..83       MOV     DPH,?V0 + 1
   \   0003AE   A3           INC     DPTR
   \   0003AF   E0           MOVX    A,@DPTR
   \   0003B0   6411         XRL     A,#0x11
   \   0003B2   700C         JNZ     ??parse_procotol_24
    332                      {
    333                        zgDefaultChannelList = 0x00020000;
   \   0003B4   90....       MOV     DPTR,#__Constant_20000
   \   0003B7   12....       LCALL   ?XLOAD_R2345
   \   0003BA   90....       MOV     DPTR,#zgDefaultChannelList
   \   0003BD   12....       LCALL   ?XSTORE_R2345
    334                      }
    335                      if (buff[1] == 0x12 )
   \                     ??parse_procotol_24:
   \   0003C0   85..82       MOV     DPL,?V0 + 0
   \   0003C3   85..83       MOV     DPH,?V0 + 1
   \   0003C6   A3           INC     DPTR
   \   0003C7   E0           MOVX    A,@DPTR
   \   0003C8   6412         XRL     A,#0x12
   \   0003CA   700C         JNZ     ??parse_procotol_25
    336                      {
    337                        zgDefaultChannelList = 0x00040000;
   \   0003CC   90....       MOV     DPTR,#__Constant_40000
   \   0003CF   12....       LCALL   ?XLOAD_R2345
   \   0003D2   90....       MOV     DPTR,#zgDefaultChannelList
   \   0003D5   12....       LCALL   ?XSTORE_R2345
    338                      }            
    339                      if (buff[1] == 0x13 )
   \                     ??parse_procotol_25:
   \   0003D8   85..82       MOV     DPL,?V0 + 0
   \   0003DB   85..83       MOV     DPH,?V0 + 1
   \   0003DE   A3           INC     DPTR
   \   0003DF   E0           MOVX    A,@DPTR
   \   0003E0   6413         XRL     A,#0x13
   \   0003E2   700C         JNZ     ??parse_procotol_26
    340                      {
    341                        zgDefaultChannelList = 0x00080000;
   \   0003E4   90....       MOV     DPTR,#__Constant_80000
   \   0003E7   12....       LCALL   ?XLOAD_R2345
   \   0003EA   90....       MOV     DPTR,#zgDefaultChannelList
   \   0003ED   12....       LCALL   ?XSTORE_R2345
    342                      }
    343                      if (buff[1] == 0x14 )
   \                     ??parse_procotol_26:
   \   0003F0   85..82       MOV     DPL,?V0 + 0
   \   0003F3   85..83       MOV     DPH,?V0 + 1
   \   0003F6   A3           INC     DPTR
   \   0003F7   E0           MOVX    A,@DPTR
   \   0003F8   6414         XRL     A,#0x14
   \   0003FA   700C         JNZ     ??parse_procotol_27
    344                      {
    345                        zgDefaultChannelList = 0x00100000;
   \   0003FC   90....       MOV     DPTR,#__Constant_100000
   \   0003FF   12....       LCALL   ?XLOAD_R2345
   \   000402   90....       MOV     DPTR,#zgDefaultChannelList
   \   000405   12....       LCALL   ?XSTORE_R2345
    346                      }
    347                      if (buff[1] == 0x15 )
   \                     ??parse_procotol_27:
   \   000408   85..82       MOV     DPL,?V0 + 0
   \   00040B   85..83       MOV     DPH,?V0 + 1
   \   00040E   A3           INC     DPTR
   \   00040F   E0           MOVX    A,@DPTR
   \   000410   6415         XRL     A,#0x15
   \   000412   700C         JNZ     ??parse_procotol_28
    348                      {
    349                        zgDefaultChannelList = 0x00200000;
   \   000414   90....       MOV     DPTR,#__Constant_200000
   \   000417   12....       LCALL   ?XLOAD_R2345
   \   00041A   90....       MOV     DPTR,#zgDefaultChannelList
   \   00041D   12....       LCALL   ?XSTORE_R2345
    350                      }            
    351                      if (buff[1] == 0x16 )
   \                     ??parse_procotol_28:
   \   000420   85..82       MOV     DPL,?V0 + 0
   \   000423   85..83       MOV     DPH,?V0 + 1
   \   000426   A3           INC     DPTR
   \   000427   E0           MOVX    A,@DPTR
   \   000428   6416         XRL     A,#0x16
   \   00042A   700C         JNZ     ??parse_procotol_29
    352                      {
    353                        zgDefaultChannelList = 0x00400000;
   \   00042C   90....       MOV     DPTR,#__Constant_400000
   \   00042F   12....       LCALL   ?XLOAD_R2345
   \   000432   90....       MOV     DPTR,#zgDefaultChannelList
   \   000435   12....       LCALL   ?XSTORE_R2345
    354                      }
    355                      if (buff[1] == 0x17 )
   \                     ??parse_procotol_29:
   \   000438   85..82       MOV     DPL,?V0 + 0
   \   00043B   85..83       MOV     DPH,?V0 + 1
   \   00043E   A3           INC     DPTR
   \   00043F   E0           MOVX    A,@DPTR
   \   000440   6417         XRL     A,#0x17
   \   000442   700C         JNZ     ??parse_procotol_30
    356                      {
    357                        zgDefaultChannelList = 0x00800000;
   \   000444   90....       MOV     DPTR,#__Constant_800000
   \   000447   12....       LCALL   ?XLOAD_R2345
   \   00044A   90....       MOV     DPTR,#zgDefaultChannelList
   \   00044D   12....       LCALL   ?XSTORE_R2345
    358                      }
    359                      if (buff[1] == 0x18 )
   \                     ??parse_procotol_30:
   \   000450   85..82       MOV     DPL,?V0 + 0
   \   000453   85..83       MOV     DPH,?V0 + 1
   \   000456   A3           INC     DPTR
   \   000457   E0           MOVX    A,@DPTR
   \   000458   6418         XRL     A,#0x18
   \   00045A   700C         JNZ     ??parse_procotol_31
    360                      {
    361                        zgDefaultChannelList = 0x01000000;
   \   00045C   90....       MOV     DPTR,#__Constant_1000000
   \   00045F   12....       LCALL   ?XLOAD_R2345
   \   000462   90....       MOV     DPTR,#zgDefaultChannelList
   \   000465   12....       LCALL   ?XSTORE_R2345
    362                      }
    363          
    364                      if (buff[1] == 0x19 )
   \                     ??parse_procotol_31:
   \   000468   85..82       MOV     DPL,?V0 + 0
   \   00046B   85..83       MOV     DPH,?V0 + 1
   \   00046E   A3           INC     DPTR
   \   00046F   E0           MOVX    A,@DPTR
   \   000470   6419         XRL     A,#0x19
   \   000472   700C         JNZ     ??parse_procotol_32
    365                      {
    366                        zgDefaultChannelList = 0x02000000;
   \   000474   90....       MOV     DPTR,#__Constant_2000000
   \   000477   12....       LCALL   ?XLOAD_R2345
   \   00047A   90....       MOV     DPTR,#zgDefaultChannelList
   \   00047D   12....       LCALL   ?XSTORE_R2345
    367                      }
    368                      if (buff[1] == 0x1a )
   \                     ??parse_procotol_32:
   \   000480   85..82       MOV     DPL,?V0 + 0
   \   000483   85..83       MOV     DPH,?V0 + 1
   \   000486   A3           INC     DPTR
   \   000487   E0           MOVX    A,@DPTR
   \   000488   641A         XRL     A,#0x1a
   \   00048A   700C         JNZ     ??parse_procotol_33
    369                      {
    370                        zgDefaultChannelList = 0x04000000;
   \   00048C   90....       MOV     DPTR,#__Constant_4000000
   \   00048F   12....       LCALL   ?XLOAD_R2345
   \   000492   90....       MOV     DPTR,#zgDefaultChannelList
   \   000495   12....       LCALL   ?XSTORE_R2345
    371                      }
    372                      
    373                      osal_nv_write(  ZCD_NV_CHANLIST, 0 ,sizeof(zgDefaultChannelList), &zgDefaultChannelList);
   \                     ??parse_procotol_33:
   \   000498                ; Setup parameters for call to function osal_nv_write
   \   000498   75....       MOV     ?V0 + 0,#zgDefaultChannelList & 0xff
   \   00049B   75....       MOV     ?V0 + 1,#(zgDefaultChannelList >> 8) & 0xff
   \   00049E   78..         MOV     R0,#?V0 + 0
   \   0004A0   12....       LCALL   ?PUSH_XSTACK_I_TWO
   \   0004A3   75..04       MOV     ?V0 + 0,#0x4
   \   0004A6   75..00       MOV     ?V0 + 1,#0x0
   \   0004A9   78..         MOV     R0,#?V0 + 0
   \   0004AB   12....       LCALL   ?PUSH_XSTACK_I_TWO
   \   0004AE   7C00         MOV     R4,#0x0
   \   0004B0   7D00         MOV     R5,#0x0
   \   0004B2   7A84         MOV     R2,#-0x7c
   \   0004B4   12....       LCALL   ??Subroutine31_0 & 0xFFFF
   \                     ??CrossCallReturnLabel_69:
   \   0004B7   12....       LCALL   ?DEALLOC_XSTACK8
    374                      
    375                      UART_Send_String( (uint8*)&zgDefaultChannelList, sizeof(zgDefaultChannelList) );
   \   0004BA                ; Setup parameters for call to function UART_Send_String
   \   0004BA   7C04         MOV     R4,#0x4
   \   0004BC   7D00         MOV     R5,#0x0
   \   0004BE   7A..         MOV     R2,#zgDefaultChannelList & 0xff
   \   0004C0   7B..         MOV     R3,#(zgDefaultChannelList >> 8) & 0xff
   \                     ??parse_procotol_34:
   \   0004C2   12....       LCALL   ??UART_Send_String?relay
   \   0004C5   02....       LJMP    ??parse_procotol_2 & 0xFFFF
    376          
    377                      /*
    378                      _NIB.nwkLogicalChannel = buff[1];
    379                      ZMacSetReq( ZMacChannel, &buff[1]);
    380                      ZDApp_NwkStateUpdateCB();
    381                      _NIB.nwkTotalTransmissions = 0;
    382                      nwkTransmissionFailures( TRUE );
    383                      */
    384                    }
    385                  }
    386                }  
    387            
    388                if( len == 3)
   \                     ??parse_procotol_13:
   \   0004C8   7403         MOV     A,#0x3
   \   0004CA   65..         XRL     A,?V0 + 2
   \   0004CC   6003         JZ      $+5
   \   0004CE   02....       LJMP    ??parse_procotol_35 & 0xFFFF
    389                {
    390          #if defined( ZDO_COORDINATOR )
    391              // only coordinator can have this function
    392                
    393                if( buff[0] == 0xCA || buff[0] == 0x03 || buff[0] == 0x01 )
   \   0004D1   8A82         MOV     DPL,R2
   \   0004D3   8B83         MOV     DPH,R3
   \   0004D5   E0           MOVX    A,@DPTR
   \   0004D6   64CA         XRL     A,#0xca
   \   0004D8   600A         JZ      ??parse_procotol_36
   \   0004DA   E0           MOVX    A,@DPTR
   \   0004DB   6403         XRL     A,#0x3
   \   0004DD   6005         JZ      ??parse_procotol_36
   \   0004DF   E0           MOVX    A,@DPTR
   \   0004E0   6401         XRL     A,#0x1
   \   0004E2   702B         JNZ     ??parse_procotol_37
    394                {
    395                  // CA xx xx ,send CA to a node ,with it's short address, 0x03 ,mac address, 0x01 short address
    396                  ///uprint("it's CA ");
    397                  short_ddr = BUILD_UINT16( buff[1], buff[2] );        
   \                     ??parse_procotol_36:
   \   0004E4   A3           INC     DPTR
   \   0004E5   E0           MOVX    A,@DPTR
   \   0004E6   FA           MOV     R2,A
   \   0004E7   85..82       MOV     DPL,?V0 + 0
   \   0004EA   8B83         MOV     DPH,R3
   \   0004EC   A3           INC     DPTR
   \   0004ED   A3           INC     DPTR
   \   0004EE   E0           MOVX    A,@DPTR
   \   0004EF   F9           MOV     R1,A
   \   0004F0   EA           MOV     A,R2
   \   0004F1   90....       MOV     DPTR,#short_ddr
   \   0004F4   F0           MOVX    @DPTR,A
   \   0004F5   A3           INC     DPTR
   \   0004F6   E9           MOV     A,R1
   \   0004F7   F0           MOVX    @DPTR,A
    398                  if(  SendData( short_ddr, buff, 1) == 0 )
   \   0004F8                ; Setup parameters for call to function SendData
   \   0004F8   7901         MOV     R1,#0x1
   \   0004FA   AC..         MOV     R4,?V0 + 0
   \   0004FC   AD..         MOV     R5,?V0 + 1
   \   0004FE   FB           MOV     R3,A
   \   0004FF   12....       LCALL   ??SendData?relay
   \   000502   E9           MOV     A,R1
   \   000503   6003         JZ      $+5
   \   000505   02....       LJMP    ??parse_procotol_2 & 0xFFFF
    399                  {
    400                    uprint("send failed,0xca 0x03 0x01");
   \   000508                ; Setup parameters for call to function uprint
   \   000508   7A..         MOV     R2,#`?<Constant "send failed,0xca 0x03...">` & 0xff
   \   00050A   7B..         MOV     R3,#(`?<Constant "send failed,0xca 0x03...">` >> 8) & 0xff
   \   00050C   02....       LJMP    ??parse_procotol_9 & 0xFFFF
    401                  }
    402                  return;
    403                }
    404              
    405          #endif 
    406                  if(buff[0] == 0xed)
   \                     ??parse_procotol_37:
   \   00050F   E0           MOVX    A,@DPTR
   \   000510   64ED         XRL     A,#0xed
   \   000512   6003         JZ      $+5
   \   000514   02....       LJMP    ??parse_procotol_38 & 0xFFFF
    407                  {
    408                    if(buff[1] == 0xfa)
   \   000517   A3           INC     DPTR
   \   000518   E0           MOVX    A,@DPTR
   \   000519   64FA         XRL     A,#0xfa
   \   00051B   8A82         MOV     DPL,R2
   \   00051D   8B83         MOV     DPH,R3
   \   00051F   A3           INC     DPTR
   \   000520   701E         JNZ     ??parse_procotol_39
    409                    {
    410                      if(buff[2] == 0x01)
   \   000522   A3           INC     DPTR
   \   000523   E0           MOVX    A,@DPTR
   \   000524   6401         XRL     A,#0x1
   \   000526   7005         JNZ     ??parse_procotol_40
    411                      {
    412                        LED1 = 1;return;
   \   000528   D290         SETB    0x90.0
   \   00052A   02....       LJMP    ??parse_procotol_2 & 0xFFFF
    413                      }
    414                      if(buff[2] == 0x02)
   \                     ??parse_procotol_40:
   \   00052D   8A82         MOV     DPL,R2
   \   00052F   8B83         MOV     DPH,R3
   \   000531   A3           INC     DPTR
   \   000532   A3           INC     DPTR
   \   000533   E0           MOVX    A,@DPTR
   \   000534   6402         XRL     A,#0x2
   \   000536   6003         JZ      $+5
   \   000538   02....       LJMP    ??parse_procotol_2 & 0xFFFF
    415                      {
    416                        LED2 = 1;return;
   \   00053B   D291         SETB    0x90.1
   \   00053D   02....       LJMP    ??parse_procotol_2 & 0xFFFF
    417                      }
    418                    }
    419                    if(buff[1] ==0xff)
   \                     ??parse_procotol_39:
   \   000540   E0           MOVX    A,@DPTR
   \   000541   F4           CPL     A
   \   000542   8A82         MOV     DPL,R2
   \   000544   8B83         MOV     DPH,R3
   \   000546   A3           INC     DPTR
   \   000547   701E         JNZ     ??parse_procotol_41
    420                    {
    421                      if(buff[2] == 0x01)
   \   000549   A3           INC     DPTR
   \   00054A   E0           MOVX    A,@DPTR
   \   00054B   6401         XRL     A,#0x1
   \   00054D   7005         JNZ     ??parse_procotol_42
    422                      {
    423                        LED1 = 0;return;
   \   00054F   C290         CLR     0x90.0
   \   000551   02....       LJMP    ??parse_procotol_2 & 0xFFFF
    424                      }
    425                      if(buff[2] == 0x02)
   \                     ??parse_procotol_42:
   \   000554   8A82         MOV     DPL,R2
   \   000556   8B83         MOV     DPH,R3
   \   000558   A3           INC     DPTR
   \   000559   A3           INC     DPTR
   \   00055A   E0           MOVX    A,@DPTR
   \   00055B   6402         XRL     A,#0x2
   \   00055D   6003         JZ      $+5
   \   00055F   02....       LJMP    ??parse_procotol_2 & 0xFFFF
    426                      {
    427                        LED2 = 0;return;
   \   000562   C291         CLR     0x90.1
   \   000564   02....       LJMP    ??parse_procotol_2 & 0xFFFF
    428                      }
    429                    }
    430                    if(buff[1] == 0xfc)
   \                     ??parse_procotol_41:
   \   000567   E0           MOVX    A,@DPTR
   \   000568   64FC         XRL     A,#0xfc
   \   00056A   6003         JZ      $+5
   \   00056C   02....       LJMP    ??parse_procotol_2 & 0xFFFF
    431                    {
    432                      if(buff[2]== 0x01)
   \   00056F   8A82         MOV     DPL,R2
   \   000571   8B83         MOV     DPH,R3
   \   000573   A3           INC     DPTR
   \   000574   A3           INC     DPTR
   \   000575   E0           MOVX    A,@DPTR
   \   000576   6401         XRL     A,#0x1
   \   000578   700D         JNZ     ??parse_procotol_43
    433                      {
    434                        LED1= !LED1;return;
   \   00057A   D2F0         SETB    B.0
   \   00057C   A290         MOV     C,0x90.0
   \   00057E   30F001       JNB     B.0,??parse_procotol_44
   \   000581   B3           CPL     C
   \                     ??parse_procotol_44:
   \   000582   9290         MOV     0x90.0,C
   \   000584   02....       LJMP    ??parse_procotol_2 & 0xFFFF
    435                      }
    436                      if(buff[2] == 0x02)
   \                     ??parse_procotol_43:
   \   000587   8A82         MOV     DPL,R2
   \   000589   8B83         MOV     DPH,R3
   \   00058B   A3           INC     DPTR
   \   00058C   A3           INC     DPTR
   \   00058D   E0           MOVX    A,@DPTR
   \   00058E   6402         XRL     A,#0x2
   \   000590   6003         JZ      $+5
   \   000592   02....       LJMP    ??parse_procotol_2 & 0xFFFF
    437                      {
    438                        LED2 = !LED2;return;
   \   000595   D2F0         SETB    B.0
   \   000597   A291         MOV     C,0x90.1
   \   000599   30F001       JNB     B.0,??parse_procotol_45
   \   00059C   B3           CPL     C
   \                     ??parse_procotol_45:
   \   00059D   9291         MOV     0x90.1,C
   \   00059F   02....       LJMP    ??parse_procotol_2 & 0xFFFF
    439                      }
    440                    }
    441                    
    442                  }
    443                  
    444                  if(buff[0] == 0xdc)
   \                     ??parse_procotol_38:
   \   0005A2   E0           MOVX    A,@DPTR
   \   0005A3   64DC         XRL     A,#0xdc
   \   0005A5   6003         JZ      $+5
   \   0005A7   02....       LJMP    ??parse_procotol_2 & 0xFFFF
    445                  {
    446                    if( buff[1] >= 0 && buff[1] <= 0x0f)
                                       ^
Warning[Pe186]: pointless comparison of unsigned integer with zero
   \   0005AA   A3           INC     DPTR
   \   0005AB   E0           MOVX    A,@DPTR
   \   0005AC   C3           CLR     C
   \   0005AD   9410         SUBB    A,#0x10
   \   0005AF   4003         JC      $+5
   \   0005B1   02....       LJMP    ??parse_procotol_2 & 0xFFFF
    447                    {
    448                      switch (buff[2])
   \   0005B4   8A82         MOV     DPL,R2
   \   0005B6   8B83         MOV     DPH,R3
   \   0005B8   A3           INC     DPTR
   \   0005B9   A3           INC     DPTR
   \   0005BA   E0           MOVX    A,@DPTR
   \   0005BB   24F8         ADD     A,#-0x8
   \   0005BD   600E         JZ      ??parse_procotol_46
   \   0005BF   24FE         ADD     A,#-0x2
   \   0005C1   601E         JZ      ??parse_procotol_47
   \   0005C3   24FE         ADD     A,#-0x2
   \   0005C5   601E         JZ      ??parse_procotol_48
   \   0005C7   24FE         ADD     A,#-0x2
   \   0005C9   601E         JZ      ??parse_procotol_49
   \   0005CB   8020         SJMP    ??parse_procotol_50
    449                      {
    450                      case 8:
    451                        UART_Send_String( (uint8*)HalAdcRead ( buff[1], HAL_ADC_RESOLUTION_8), 2);
   \                     ??parse_procotol_46:
   \   0005CD                ; Setup parameters for call to function UART_Send_String
   \   0005CD                ; Setup parameters for call to function HalAdcRead
   \   0005CD   7A01         MOV     R2,#0x1
   \                     ??parse_procotol_51:
   \   0005CF   85..82       MOV     DPL,?V0 + 0
   \   0005D2   8B83         MOV     DPH,R3
   \   0005D4   A3           INC     DPTR
   \   0005D5   E0           MOVX    A,@DPTR
   \   0005D6   F9           MOV     R1,A
   \   0005D7   12....       LCALL   ??HalAdcRead?relay
   \   0005DA   7C02         MOV     R4,#0x2
   \   0005DC   7D00         MOV     R5,#0x0
   \   0005DE   02....       LJMP    ??parse_procotol_34 & 0xFFFF
    452                        break;
    453                      case 10:
    454                        UART_Send_String( (uint8*)HalAdcRead ( buff[1], HAL_ADC_RESOLUTION_10), 2);
   \                     ??parse_procotol_47:
   \   0005E1                ; Setup parameters for call to function UART_Send_String
   \   0005E1                ; Setup parameters for call to function HalAdcRead
   \   0005E1   7A02         MOV     R2,#0x2
   \   0005E3   80EA         SJMP    ??parse_procotol_51
    455                        break;
    456                      case 12:
    457                        UART_Send_String( (uint8*)HalAdcRead ( buff[1], HAL_ADC_RESOLUTION_12), 2);
   \                     ??parse_procotol_48:
   \   0005E5                ; Setup parameters for call to function UART_Send_String
   \   0005E5                ; Setup parameters for call to function HalAdcRead
   \   0005E5   7A03         MOV     R2,#0x3
   \   0005E7   80E6         SJMP    ??parse_procotol_51
    458                        break;
    459                      case 14:
    460                        UART_Send_String( (uint8*)HalAdcRead ( buff[1], HAL_ADC_RESOLUTION_14), 2);
   \                     ??parse_procotol_49:
   \   0005E9                ; Setup parameters for call to function UART_Send_String
   \   0005E9                ; Setup parameters for call to function HalAdcRead
   \   0005E9   7A04         MOV     R2,#0x4
   \   0005EB   80E2         SJMP    ??parse_procotol_51
    461                        break;
    462                      default:
    463                        UART_Send_String( (uint8*)HalAdcRead ( buff[1], 0), 2);
   \                     ??parse_procotol_50:
   \   0005ED                ; Setup parameters for call to function UART_Send_String
   \   0005ED                ; Setup parameters for call to function HalAdcRead
   \   0005ED   7A00         MOV     R2,#0x0
   \   0005EF   80DE         SJMP    ??parse_procotol_51
    464                        break;
    465                      }
    466                    }
    467                  }
    468                  
    469                }
    470                
    471                if( len == 6)
   \                     ??parse_procotol_35:
   \   0005F1   7406         MOV     A,#0x6
   \   0005F3   65..         XRL     A,?V0 + 2
   \   0005F5   6003         JZ      $+5
   \   0005F7   02....       LJMP    ??parse_procotol_52 & 0xFFFF
    472                {
    473                  if( strstr( buff,"reboot") )
                                     ^
Warning[Pe167]: argument of type "unsigned char *" is incompatible with
          parameter of type "char const *"
   \   0005FA                ; Setup parameters for call to function strstr
   \   0005FA   7C..         MOV     R4,#`?<Constant "reboot">` & 0xff
   \   0005FC   7D..         MOV     R5,#(`?<Constant "reboot">` >> 8) & 0xff
   \   0005FE   12....       LCALL   ?Subroutine22 & 0xFFFF
   \                     ??CrossCallReturnLabel_40:
   \   000601   600C         JZ      ??parse_procotol_53
    474                  {
    475                    SystemReset();
   \   000603   C2AF         CLR     0xa8.7
   \   000605   C2AF         CLR     0xa8.7
   \   000607   75C9AB       MOV     0xc9,#-0x55
   \   00060A   75C95B       MOV     0xc9,#0x5b
   \                     ??parse_procotol_54:
   \   00060D   80FE         SJMP    ??parse_procotol_54
    476                  }
    477                  
    478                  if(buff[0] == 'p' && buff[1]==':') // pan id
   \                     ??parse_procotol_53:
   \   00060F   85..82       MOV     DPL,?V0 + 0
   \   000612   85..83       MOV     DPH,?V0 + 1
   \   000615   E0           MOVX    A,@DPTR
   \   000616   6470         XRL     A,#0x70
   \   000618   6003         JZ      $+5
   \   00061A   02....       LJMP    ??parse_procotol_55 & 0xFFFF
   \   00061D   A3           INC     DPTR
   \   00061E   E0           MOVX    A,@DPTR
   \   00061F   643A         XRL     A,#0x3a
   \   000621   6003         JZ      $+5
   \   000623   02....       LJMP    ??parse_procotol_56 & 0xFFFF
    479                  {
    480                     // NLME_SetDefaultNV();
    481                      strncpy(pbuf, &buff[2],2); pbuf[2] = '\0';
                                           ^
Warning[Pe167]: argument of type "unsigned char *" is incompatible with
          parameter of type "char const *"
   \   000626                ; Setup parameters for call to function strncpy
   \   000626   75..02       MOV     ?V0 + 4,#0x2
   \   000629   75..00       MOV     ?V0 + 5,#0x0
   \   00062C   78..         MOV     R0,#?V0 + 4
   \   00062E   12....       LCALL   ?PUSH_XSTACK_I_TWO
   \   000631   12....       LCALL   ?Subroutine20 & 0xFFFF
   \                     ??CrossCallReturnLabel_38:
   \   000634   12....       LCALL   ?XSTACK_DISP0_8
   \   000637   12....       LCALL   ?Subroutine19 & 0xFFFF
   \                     ??CrossCallReturnLabel_34:
   \   00063A   12....       LCALL   ?DEALLOC_XSTACK8
   \   00063D   7403         MOV     A,#0x3
   \   00063F   12....       LCALL   ?XSTACK_DISP0_8
   \   000642   E4           CLR     A
   \   000643   F0           MOVX    @DPTR,A
    482                      strncpy(pbuf1, &buff[4],2); pbuf1[2] = '\0';
                                            ^
Warning[Pe167]: argument of type "unsigned char *" is incompatible with
          parameter of type "char const *"
   \   000644                ; Setup parameters for call to function strncpy
   \   000644   78..         MOV     R0,#?V0 + 4
   \   000646   12....       LCALL   ?PUSH_XSTACK_I_TWO
   \   000649   12....       LCALL   ?Subroutine23 & 0xFFFF
   \                     ??CrossCallReturnLabel_44:
   \   00064C   12....       LCALL   ?XSTACK_DISP0_8
   \   00064F   12....       LCALL   ?Subroutine19 & 0xFFFF
   \                     ??CrossCallReturnLabel_35:
   \   000652   12....       LCALL   ?DEALLOC_XSTACK8
   \   000655   7406         MOV     A,#0x6
   \   000657   12....       LCALL   ?XSTACK_DISP0_8
   \   00065A   E4           CLR     A
   \   00065B   F0           MOVX    @DPTR,A
    483                      
    484                      set_panid( BUILD_UINT16( strtol(pbuf1,NULL,16),strtol(pbuf,NULL,16) ));
   \   00065C                ; Setup parameters for call to function strtol
   \   00065C   75..10       MOV     ?V0 + 4,#0x10
   \   00065F   78..         MOV     R0,#?V0 + 4
   \   000661   12....       LCALL   ?PUSH_XSTACK_I_TWO
   \   000664   7C00         MOV     R4,#0x0
   \   000666   7D00         MOV     R5,#0x0
   \   000668   7406         MOV     A,#0x6
   \   00066A   12....       LCALL   ?XSTACK_DISP0_8
   \   00066D   12....       LCALL   ?Subroutine24 & 0xFFFF
   \                     ??CrossCallReturnLabel_46:
   \   000670   12....       LCALL   ?DEALLOC_XSTACK8
   \   000673                ; Setup parameters for call to function set_panid
   \   000673   EA           MOV     A,R2
   \   000674   FE           MOV     R6,A
   \   000675                ; Setup parameters for call to function strtol
   \   000675   78..         MOV     R0,#?V0 + 4
   \   000677   12....       LCALL   ?PUSH_XSTACK_I_TWO
   \   00067A   7C00         MOV     R4,#0x0
   \   00067C   7D00         MOV     R5,#0x0
   \   00067E   7403         MOV     A,#0x3
   \   000680   12....       LCALL   ?XSTACK_DISP0_8
   \   000683   12....       LCALL   ?Subroutine24 & 0xFFFF
   \                     ??CrossCallReturnLabel_47:
   \   000686   12....       LCALL   ?DEALLOC_XSTACK8
   \   000689   EA           MOV     A,R2
   \   00068A   F5..         MOV     ?V0 + 5,A
   \   00068C   EE           MOV     A,R6
   \   00068D   2400         ADD     A,#0x0
   \   00068F   FA           MOV     R2,A
   \   000690   E4           CLR     A
   \   000691   35..         ADDC    A,?V0 + 5
   \   000693   FB           MOV     R3,A
   \   000694   12....       LCALL   ??set_panid?relay
    485                      
    486                      //_NIB.nwkPanId = BUILD_UINT16( strtol(pbuf1,NULL,16),strtol(pbuf,NULL,16));
    487          
    488                      
    489          //            NLME_UpdateNV(0x01);
    490                      
    491                      /*
    492                      ZAddr.addr.shortAddr = NLME_GetShortAddr();
    493                      ZAddr.addrMode = Addr16Bit;
    494                      ZDP_MgmtLeaveReq( &ZAddr, NLME_GetExtAddr(), 0 ); 
    495                      */
    496                      
    497                      
    498                      if(_NIB.nwkPanId == 0xffff)
   \   000697   90....       MOV     DPTR,#_NIB + 33
   \   00069A   E0           MOVX    A,@DPTR
   \   00069B   F4           CPL     A
   \   00069C   7003         JNZ     ??parse_procotol_57
   \   00069E   A3           INC     DPTR
   \   00069F   E0           MOVX    A,@DPTR
   \   0006A0   F4           CPL     A
   \                     ??parse_procotol_57:
   \   0006A1   7013         JNZ     ??parse_procotol_55
    499                      {
    500                        zgWriteStartupOptions (ZG_STARTUP_SET, ZCD_STARTOPT_DEFAULT_NETWORK_STATE);
   \   0006A3                ; Setup parameters for call to function zgWriteStartupOptions
   \   0006A3   7A02         MOV     R2,#0x2
   \   0006A5   79FF         MOV     R1,#-0x1
   \   0006A7   12....       LCALL   ??zgWriteStartupOptions?relay
    501                        
    502                        /*
    503                        if( _NIB.nwkLogicalChannel == 0x0b )
    504                        {
    505                          zgDefaultChannelList = 0x00000800;  
    506                        } 
    507                        if ( _NIB.nwkLogicalChannel == 0x0c )
    508                        {
    509                          zgDefaultChannelList = 0x00001000;
    510                        }
    511                        */
    512                        /*
    513                        osal_nv_item_init( ZCD_NV_CHANLIST, sizeof(zgDefaultChannelList), &zgDefaultChannelList);
    514                        osal_nv_read(  ZCD_NV_CHANLIST, 0, sizeof(zgDefaultChannelList), &zgDefaultChannelList);
    515                        
    516                        UART_Send_String( (uint8*)&zgDefaultChannelList, sizeof(zgDefaultChannelList) );
    517                        */
    518                        //ZDOInitDevice( 0 );
    519                        
    520                        /*
    521                        if ( ZG_BUILD_COORDINATOR_TYPE && logicalType == NODETYPE_COORDINATOR )
    522                        {
    523                         // if( 
    524                          NLME_NetworkFormationRequest( zgConfigPANID, zgApsUseExtendedPANID, _NIB.nwkLogicalChannel,
    525                                                         zgDefaultStartingScanDuration, BEACON_ORDER_NO_BEACONS , BEACON_ORDER_NO_BEACONS,false);
    526                          //NLME_StartRouterRequest( BEACON_ORDER_NO_BEACONS, BEACON_ORDER_NO_BEACONS, false );
    527                        }
    528                        if ( ZG_BUILD_JOINING_TYPE && (logicalType == NODETYPE_ROUTER || logicalType == NODETYPE_DEVICE) )
    529                        {
    530                          NLME_NetworkDiscoveryRequest( _NIB.nwkLogicalChannel, zgDefaultStartingScanDuration );
    531                          uprint("researching");
    532                        }
    533                        */
    534                        // after reset, search and join new network
    535                      
    536                        SystemReset();
   \   0006AA   C2AF         CLR     0xa8.7
   \   0006AC   C2AF         CLR     0xa8.7
   \   0006AE   75C9AB       MOV     0xc9,#-0x55
   \   0006B1   75C95B       MOV     0xc9,#0x5b
   \                     ??parse_procotol_58:
   \   0006B4   80FE         SJMP    ??parse_procotol_58
    537                      }
    538                      
    539                  }
    540                  
    541                  if(buff[0] == 's' && buff[1]==':') // short address
   \                     ??parse_procotol_55:
   \   0006B6   85..82       MOV     DPL,?V0 + 0
   \   0006B9   85..83       MOV     DPH,?V0 + 1
   \   0006BC   E0           MOVX    A,@DPTR
   \   0006BD   6473         XRL     A,#0x73
   \   0006BF   6003         JZ      $+5
   \   0006C1   02....       LJMP    ??parse_procotol_56 & 0xFFFF
   \   0006C4   A3           INC     DPTR
   \   0006C5   E0           MOVX    A,@DPTR
   \   0006C6   643A         XRL     A,#0x3a
   \   0006C8   707B         JNZ     ??parse_procotol_56
    542                  {
    543                      strncpy(pbuf, &buff[2],2); pbuf[2] = '\0';
                                           ^
Warning[Pe167]: argument of type "unsigned char *" is incompatible with
          parameter of type "char const *"
   \   0006CA                ; Setup parameters for call to function strncpy
   \   0006CA   75..02       MOV     ?V0 + 4,#0x2
   \   0006CD   75..00       MOV     ?V0 + 5,#0x0
   \   0006D0   78..         MOV     R0,#?V0 + 4
   \   0006D2   12....       LCALL   ?PUSH_XSTACK_I_TWO
   \   0006D5   12....       LCALL   ?Subroutine20 & 0xFFFF
   \                     ??CrossCallReturnLabel_39:
   \   0006D8   12....       LCALL   ?XSTACK_DISP0_8
   \   0006DB   12....       LCALL   ?Subroutine19 & 0xFFFF
   \                     ??CrossCallReturnLabel_36:
   \   0006DE   12....       LCALL   ?DEALLOC_XSTACK8
   \   0006E1   7403         MOV     A,#0x3
   \   0006E3   12....       LCALL   ?XSTACK_DISP0_8
   \   0006E6   E4           CLR     A
   \   0006E7   F0           MOVX    @DPTR,A
    544                      strncpy(pbuf1, &buff[4],2); pbuf1[2] = '\0';
                                            ^
Warning[Pe167]: argument of type "unsigned char *" is incompatible with
          parameter of type "char const *"
   \   0006E8                ; Setup parameters for call to function strncpy
   \   0006E8   78..         MOV     R0,#?V0 + 4
   \   0006EA   12....       LCALL   ?PUSH_XSTACK_I_TWO
   \   0006ED   12....       LCALL   ?Subroutine23 & 0xFFFF
   \                     ??CrossCallReturnLabel_45:
   \   0006F0   12....       LCALL   ?XSTACK_DISP0_8
   \   0006F3   12....       LCALL   ?Subroutine19 & 0xFFFF
   \                     ??CrossCallReturnLabel_37:
   \   0006F6   12....       LCALL   ?DEALLOC_XSTACK8
   \   0006F9   7406         MOV     A,#0x6
   \   0006FB   12....       LCALL   ?XSTACK_DISP0_8
   \   0006FE   E4           CLR     A
   \   0006FF   F0           MOVX    @DPTR,A
    545                      _NIB.nwkDevAddress = BUILD_UINT16( strtol(pbuf1,NULL,16),strtol(pbuf,NULL,16));
   \   000700                ; Setup parameters for call to function strtol
   \   000700   75..10       MOV     ?V0 + 4,#0x10
   \   000703   78..         MOV     R0,#?V0 + 4
   \   000705   12....       LCALL   ?PUSH_XSTACK_I_TWO
   \   000708   7C00         MOV     R4,#0x0
   \   00070A   7D00         MOV     R5,#0x0
   \   00070C   7406         MOV     A,#0x6
   \   00070E   12....       LCALL   ?XSTACK_DISP0_8
   \   000711   12....       LCALL   ?Subroutine24 & 0xFFFF
   \                     ??CrossCallReturnLabel_48:
   \   000714   12....       LCALL   ?DEALLOC_XSTACK8
   \   000717   EA           MOV     A,R2
   \   000718   FE           MOV     R6,A
   \   000719                ; Setup parameters for call to function strtol
   \   000719   78..         MOV     R0,#?V0 + 4
   \   00071B   12....       LCALL   ?PUSH_XSTACK_I_TWO
   \   00071E   7C00         MOV     R4,#0x0
   \   000720   7D00         MOV     R5,#0x0
   \   000722   7403         MOV     A,#0x3
   \   000724   12....       LCALL   ?XSTACK_DISP0_8
   \   000727   12....       LCALL   ?Subroutine24 & 0xFFFF
   \                     ??CrossCallReturnLabel_49:
   \   00072A   12....       LCALL   ?DEALLOC_XSTACK8
   \   00072D   EA           MOV     A,R2
   \   00072E   F5..         MOV     ?V0 + 5,A
   \   000730   EE           MOV     A,R6
   \   000731   2400         ADD     A,#0x0
   \   000733   F8           MOV     R0,A
   \   000734   E4           CLR     A
   \   000735   35..         ADDC    A,?V0 + 5
   \   000737   F9           MOV     R1,A
   \   000738   90....       MOV     DPTR,#_NIB + 20
   \   00073B   E8           MOV     A,R0
   \   00073C   F0           MOVX    @DPTR,A
   \   00073D   A3           INC     DPTR
   \   00073E   E9           MOV     A,R1
   \   00073F   F0           MOVX    @DPTR,A
    546                      NLME_UpdateNV(0x01);
   \   000740                ; Setup parameters for call to function NLME_UpdateNV
   \   000740   7901         MOV     R1,#0x1
   \   000742   12....       LCALL   ??NLME_UpdateNV?relay
    547                      //SystemResetSoft();
    548                      
    549                  }
    550                  
    551                  if( strstr(buff, "nwkkey")  )
                                    ^
Warning[Pe167]: argument of type "unsigned char *" is incompatible with
          parameter of type "char const *"
   \                     ??parse_procotol_56:
   \   000745                ; Setup parameters for call to function strstr
   \   000745   7C..         MOV     R4,#`?<Constant "nwkkey">` & 0xff
   \   000747   7D..         MOV     R5,#(`?<Constant "nwkkey">` >> 8) & 0xff
   \   000749   AA..         MOV     R2,?V0 + 0
   \   00074B   AB..         MOV     R3,?V0 + 1
   \   00074D   12....       LCALL   ?Subroutine22 & 0xFFFF
   \                     ??CrossCallReturnLabel_41:
   \   000750   7003         JNZ     $+5
   \   000752   02....       LJMP    ??parse_procotol_59 & 0xFFFF
    552                  {
    553                    if ( osal_nv_read( ZCD_NV_NWKKEY, 0, sizeof(nwkActiveKeyItems), (void*)&keyItems ) ==   ZSUCCESS )
   \   000755                ; Setup parameters for call to function osal_nv_read
   \   000755   7407         MOV     A,#0x7
   \   000757   12....       LCALL   ?XSTACK_DISP0_8
   \   00075A   8582..       MOV     ?V0 + 4,DPL
   \   00075D   8583..       MOV     ?V0 + 5,DPH
   \   000760   78..         MOV     R0,#?V0 + 4
   \   000762   12....       LCALL   ?PUSH_XSTACK_I_TWO
   \   000765   75..15       MOV     ?V0 + 4,#0x15
   \   000768   75..00       MOV     ?V0 + 5,#0x0
   \   00076B   78..         MOV     R0,#?V0 + 4
   \   00076D   12....       LCALL   ?PUSH_XSTACK_I_TWO
   \   000770   7C00         MOV     R4,#0x0
   \   000772   7D00         MOV     R5,#0x0
   \   000774   7A82         MOV     R2,#-0x7e
   \   000776   7B00         MOV     R3,#0x0
   \   000778   12....       LCALL   ??Subroutine33_0 & 0xFFFF
   \                     ??CrossCallReturnLabel_76:
   \   00077B   12....       LCALL   ?DEALLOC_XSTACK8
   \   00077E   E9           MOV     A,R1
   \   00077F   7013         JNZ     ??parse_procotol_60
    554                    {
    555                      UART_Send_String( keyItems.active.key, SEC_KEY_LEN);
   \   000781                ; Setup parameters for call to function UART_Send_String
   \   000781   7C10         MOV     R4,#0x10
   \   000783   7D00         MOV     R5,#0x0
   \   000785   7408         MOV     A,#0x8
   \   000787   12....       LCALL   ?XSTACK_DISP0_8
   \   00078A   AA82         MOV     R2,DPL
   \   00078C   AB83         MOV     R3,DPH
   \   00078E   12....       LCALL   ??UART_Send_String?relay
   \   000791   02....       LJMP    ??parse_procotol_59 & 0xFFFF
    556                    }else
    557                    {
    558                      uprint("osal nv read nwkkey error");
   \                     ??parse_procotol_60:
   \   000794                ; Setup parameters for call to function uprint
   \   000794   7A..         MOV     R2,#`?<Constant "osal nv read nwkkey e...">` & 0xff
   \   000796   7B..         MOV     R3,#(`?<Constant "osal nv read nwkkey e...">` >> 8) & 0xff
   \                     ??parse_procotol_61:
   \   000798   12....       LCALL   ??uprint?relay
   \   00079B   02....       LJMP    ??parse_procotol_59 & 0xFFFF
    559                    }
    560                  }
    561                }
    562            
    563                if( len == 4 )
   \                     ??parse_procotol_52:
   \   00079E   7404         MOV     A,#0x4
   \   0007A0   65..         XRL     A,?V0 + 2
   \   0007A2   706B         JNZ     ??parse_procotol_62
    564                {
    565                  if( strstr( buff,"type") )
                                     ^
Warning[Pe167]: argument of type "unsigned char *" is incompatible with
          parameter of type "char const *"
   \   0007A4                ; Setup parameters for call to function strstr
   \   0007A4   7C..         MOV     R4,#`?<Constant "type">` & 0xff
   \   0007A6   7D..         MOV     R5,#(`?<Constant "type">` >> 8) & 0xff
   \   0007A8   12....       LCALL   ?Subroutine22 & 0xFFFF
   \                     ??CrossCallReturnLabel_42:
   \   0007AB   6027         JZ      ??parse_procotol_63
    566                  {
    567                    switch(zgDeviceLogicalType)
   \   0007AD   90....       MOV     DPTR,#zgDeviceLogicalType
   \   0007B0   E0           MOVX    A,@DPTR
   \   0007B1   6008         JZ      ??parse_procotol_64
   \   0007B3   14           DEC     A
   \   0007B4   600B         JZ      ??parse_procotol_65
   \   0007B6   14           DEC     A
   \   0007B7   600E         JZ      ??parse_procotol_66
   \   0007B9   8012         SJMP    ??parse_procotol_67
    568                    {
    569                    case ZG_DEVICETYPE_COORDINATOR:
    570                      uprint("Coordi");
   \                     ??parse_procotol_64:
   \   0007BB                ; Setup parameters for call to function uprint
   \   0007BB   7A..         MOV     R2,#`?<Constant "Coordi">` & 0xff
   \   0007BD   7B..         MOV     R3,#(`?<Constant "Coordi">` >> 8) & 0xff
   \   0007BF   8010         SJMP    ??parse_procotol_68
    571                      break;
    572                    case ZG_DEVICETYPE_ROUTER:
    573                      uprint("Router");
   \                     ??parse_procotol_65:
   \   0007C1                ; Setup parameters for call to function uprint
   \   0007C1   7A..         MOV     R2,#`?<Constant "Router">` & 0xff
   \   0007C3   7B..         MOV     R3,#(`?<Constant "Router">` >> 8) & 0xff
   \   0007C5   800A         SJMP    ??parse_procotol_68
    574                      break;
    575                    case ZG_DEVICETYPE_ENDDEVICE:
    576                      uprint("Enddev");
   \                     ??parse_procotol_66:
   \   0007C7                ; Setup parameters for call to function uprint
   \   0007C7   7A..         MOV     R2,#`?<Constant "Enddev">` & 0xff
   \   0007C9   7B..         MOV     R3,#(`?<Constant "Enddev">` >> 8) & 0xff
   \   0007CB   8004         SJMP    ??parse_procotol_68
    577                      break;
    578                    default:
    579                      uprint("Unknow");
   \                     ??parse_procotol_67:
   \   0007CD                ; Setup parameters for call to function uprint
   \   0007CD   7A..         MOV     R2,#`?<Constant "Unknow">` & 0xff
   \   0007CF   7B..         MOV     R3,#(`?<Constant "Unknow">` >> 8) & 0xff
   \                     ??parse_procotol_68:
   \   0007D1   12....       LCALL   ??uprint?relay
    580                      break;
    581          
    582                    } 
    583                  }
    584                  
    585                  if(buff[0] == 'p' && buff[1] == 'i' && buff[2]=='n' && buff[3] == 'g')
   \                     ??parse_procotol_63:
   \   0007D4   85..82       MOV     DPL,?V0 + 0
   \   0007D7   85..83       MOV     DPH,?V0 + 1
   \   0007DA   E0           MOVX    A,@DPTR
   \   0007DB   6470         XRL     A,#0x70
   \   0007DD   7066         JNZ     ??parse_procotol_59
   \   0007DF   A3           INC     DPTR
   \   0007E0   E0           MOVX    A,@DPTR
   \   0007E1   6469         XRL     A,#0x69
   \   0007E3   6003         JZ      $+5
   \   0007E5   02....       LJMP    ??parse_procotol_2 & 0xFFFF
   \   0007E8   85..82       MOV     DPL,?V0 + 0
   \   0007EB   85..83       MOV     DPH,?V0 + 1
   \   0007EE   A3           INC     DPTR
   \   0007EF   A3           INC     DPTR
   \   0007F0   E0           MOVX    A,@DPTR
   \   0007F1   646E         XRL     A,#0x6e
   \   0007F3   6003         JZ      $+5
   \   0007F5   02....       LJMP    ??parse_procotol_2 & 0xFFFF
   \   0007F8   85..82       MOV     DPL,?V0 + 0
   \   0007FB   85..83       MOV     DPH,?V0 + 1
   \   0007FE   A3           INC     DPTR
   \   0007FF   A3           INC     DPTR
   \   000800   A3           INC     DPTR
   \   000801   E0           MOVX    A,@DPTR
   \   000802   6467         XRL     A,#0x67
   \   000804   6003         JZ      $+5
   \   000806   02....       LJMP    ??parse_procotol_2 & 0xFFFF
    586                  {
    587                      uprint("pong");
   \   000809                ; Setup parameters for call to function uprint
   \   000809   7A..         MOV     R2,#`?<Constant "pong">` & 0xff
   \   00080B   7B..         MOV     R3,#(`?<Constant "pong">` >> 8) & 0xff
   \   00080D   8089         SJMP    ??parse_procotol_61
    588                  }
    589                
    590                }
    591            
    592              if( len == 21 )
   \                     ??parse_procotol_62:
   \   00080F   7415         MOV     A,#0x15
   \   000811   65..         XRL     A,?V0 + 2
   \   000813   7027         JNZ     ??parse_procotol_69
    593              {
    594                
    595                if(strstr(buff, "pass:"))
                                 ^
Warning[Pe167]: argument of type "unsigned char *" is incompatible with
          parameter of type "char const *"
   \   000815                ; Setup parameters for call to function strstr
   \   000815   7C..         MOV     R4,#`?<Constant "pass:">` & 0xff
   \   000817   7D..         MOV     R5,#(`?<Constant "pass:">` >> 8) & 0xff
   \   000819   12....       LCALL   ?Subroutine22 & 0xFFFF
   \                     ??CrossCallReturnLabel_43:
   \   00081C   6027         JZ      ??parse_procotol_59
    596                {
    597          #if defined (SECURE)
    598                    SSP_UpdateNwkKey( (byte*)(buff+5), 0);
   \   00081E                ; Setup parameters for call to function SSP_UpdateNwkKey
   \   00081E   7900         MOV     R1,#0x0
   \   000820   E5..         MOV     A,?V0 + 0
   \   000822   2405         ADD     A,#0x5
   \   000824   FA           MOV     R2,A
   \   000825   E5..         MOV     A,?V0 + 1
   \   000827   3400         ADDC    A,#0x0
   \   000829   FB           MOV     R3,A
   \   00082A   12....       LCALL   ??SSP_UpdateNwkKey?relay
    599                    SSP_SwitchNwkKey( 0 );
   \   00082D                ; Setup parameters for call to function SSP_SwitchNwkKey
   \   00082D   7900         MOV     R1,#0x0
   \   00082F   12....       LCALL   ??SSP_SwitchNwkKey?relay
    600          	  ZDApp_NVUpdate();
   \   000832                ; Setup parameters for call to function ZDApp_NVUpdate
   \   000832   12....       LCALL   ??ZDApp_NVUpdate?relay
    601                    uprint("change key");
   \   000835                ; Setup parameters for call to function uprint
   \   000835   7A..         MOV     R2,#`?<Constant "change key">` & 0xff
   \   000837   7B..         MOV     R3,#(`?<Constant "change key">` >> 8) & 0xff
   \   000839   02....       LJMP    ??parse_procotol_61 & 0xFFFF
    602          #endif
    603                }
    604              }
    605              
    606              if( len > 3 )
   \                     ??parse_procotol_69:
   \   00083C   E9           MOV     A,R1
   \   00083D   C3           CLR     C
   \   00083E   9404         SUBB    A,#0x4
   \   000840   5003         JNC     $+5
   \   000842   02....       LJMP    ??parse_procotol_2 & 0xFFFF
    607              {
    608                if(buff[0] == 0x09)
   \                     ??parse_procotol_59:
   \   000845   85..82       MOV     DPL,?V0 + 0
   \   000848   85..83       MOV     DPH,?V0 + 1
   \   00084B   E0           MOVX    A,@DPTR
   \   00084C   6409         XRL     A,#0x9
   \   00084E   7052         JNZ     ??parse_procotol_70
    609                {
    610                  if(buff[1] >= 0 && buff[1] <= 7)
                                    ^
Warning[Pe186]: pointless comparison of unsigned integer with zero
   \   000850   A3           INC     DPTR
   \   000851   E0           MOVX    A,@DPTR
   \   000852   C3           CLR     C
   \   000853   9408         SUBB    A,#0x8
   \   000855   4003         JC      $+5
   \   000857   02....       LJMP    ??parse_procotol_2 & 0xFFFF
    611                  {
    612                       tmp_ios = 0x0202 + buff[1];
   \   00085A   85..82       MOV     DPL,?V0 + 0
   \   00085D   85..83       MOV     DPH,?V0 + 1
   \   000860   12....       LCALL   ?Subroutine14 & 0xFFFF
    613                       if( osal_nv_item_init( tmp_ios, sizeof(uint8), NULL) == SUCCESS)
   \                     ??CrossCallReturnLabel_28:
   \   000863   12....       LCALL   ?PUSH_XSTACK_I_TWO
   \   000866   12....       LCALL   ?Subroutine17 & 0xFFFF
   \                     ??CrossCallReturnLabel_59:
   \   000869   12....       LCALL   ?DEALLOC_XSTACK8
   \   00086C   E9           MOV     A,R1
   \   00086D   702C         JNZ     ??parse_procotol_71
    614                       {
    615                         osal_nv_write(tmp_ios,0, sizeof(uint8),&buff[2]);
   \   00086F                ; Setup parameters for call to function osal_nv_write
   \   00086F   E5..         MOV     A,?V0 + 0
   \   000871   2402         ADD     A,#0x2
   \   000873   F5..         MOV     ?V0 + 4,A
   \   000875   E5..         MOV     A,?V0 + 1
   \   000877   3400         ADDC    A,#0x0
   \   000879   F5..         MOV     ?V0 + 5,A
   \   00087B   78..         MOV     R0,#?V0 + 4
   \   00087D   12....       LCALL   ?PUSH_XSTACK_I_TWO
   \   000880   75..01       MOV     ?V0 + 4,#0x1
   \   000883   75..00       MOV     ?V0 + 5,#0x0
   \   000886   78..         MOV     R0,#?V0 + 4
   \   000888   12....       LCALL   ?PUSH_XSTACK_I_TWO
   \   00088B   7C00         MOV     R4,#0x0
   \   00088D   7D00         MOV     R5,#0x0
   \   00088F   EE           MOV     A,R6
   \   000890   FA           MOV     R2,A
   \   000891   EF           MOV     A,R7
   \   000892   FB           MOV     R3,A
   \   000893   12....       LCALL   ??Subroutine32_0 & 0xFFFF
    616                       }else
   \                     ??CrossCallReturnLabel_72:
   \   000896   12....       LCALL   ?DEALLOC_XSTACK8
   \   000899   8007         SJMP    ??parse_procotol_70
    617                       {
    618                         uprint("osal_nv_item_init 0x09 failed");
   \                     ??parse_procotol_71:
   \   00089B                ; Setup parameters for call to function uprint
   \   00089B   7A..         MOV     R2,#`?<Constant "osal_nv_item_init 0x0...">` & 0xff
   \   00089D   7B..         MOV     R3,#(`?<Constant "osal_nv_item_init 0x0...">` >> 8) & 0xff
   \   00089F   12....       LCALL   ??uprint?relay
    619                       }
    620                  }
    621                }
    622                if(buff[0] == 0x10)
   \                     ??parse_procotol_70:
   \   0008A2   85..82       MOV     DPL,?V0 + 0
   \   0008A5   85..83       MOV     DPH,?V0 + 1
   \   0008A8   E0           MOVX    A,@DPTR
   \   0008A9   6410         XRL     A,#0x10
   \   0008AB   7053         JNZ     ??parse_procotol_2
    623                {
    624                  if(buff[1] >= 0 && buff[1] <= 7)
                                    ^
Warning[Pe186]: pointless comparison of unsigned integer with zero
   \   0008AD   A3           INC     DPTR
   \   0008AE   E0           MOVX    A,@DPTR
   \   0008AF   C3           CLR     C
   \   0008B0   9408         SUBB    A,#0x8
   \   0008B2   504C         JNC     ??parse_procotol_2
    625                  {
    626                    tmp_ios = 0x0210 + buff[1];
   \   0008B4   12....       LCALL   ?Subroutine15 & 0xFFFF
    627                    if( osal_nv_item_init( tmp_ios, 64*sizeof(uint8), NULL) == SUCCESS)
   \                     ??CrossCallReturnLabel_30:
   \   0008B7   12....       LCALL   ?PUSH_XSTACK_I_TWO
   \   0008BA   7C40         MOV     R4,#0x40
   \   0008BC   12....       LCALL   ??Subroutine29_0 & 0xFFFF
   \                     ??CrossCallReturnLabel_61:
   \   0008BF   12....       LCALL   ?DEALLOC_XSTACK8
   \   0008C2   E9           MOV     A,R1
   \   0008C3   7034         JNZ     ??parse_procotol_72
    628                    {
    629                      osal_nv_write(tmp_ios,0, sizeof(uint8)*buff[2],&buff[3]);
   \   0008C5                ; Setup parameters for call to function osal_nv_write
   \   0008C5   E5..         MOV     A,?V0 + 0
   \   0008C7   2403         ADD     A,#0x3
   \   0008C9   F5..         MOV     ?V0 + 4,A
   \   0008CB   E5..         MOV     A,?V0 + 1
   \   0008CD   3400         ADDC    A,#0x0
   \   0008CF   F5..         MOV     ?V0 + 5,A
   \   0008D1   78..         MOV     R0,#?V0 + 4
   \   0008D3   12....       LCALL   ?PUSH_XSTACK_I_TWO
   \   0008D6   85..82       MOV     DPL,?V0 + 0
   \   0008D9   85..83       MOV     DPH,?V0 + 1
   \   0008DC   A3           INC     DPTR
   \   0008DD   A3           INC     DPTR
   \   0008DE   E0           MOVX    A,@DPTR
   \   0008DF   F5..         MOV     ?V0 + 0,A
   \   0008E1   75..00       MOV     ?V0 + 1,#0x0
   \   0008E4   78..         MOV     R0,#?V0 + 0
   \   0008E6   12....       LCALL   ?PUSH_XSTACK_I_TWO
   \   0008E9   7C00         MOV     R4,#0x0
   \   0008EB   7D00         MOV     R5,#0x0
   \   0008ED   EE           MOV     A,R6
   \   0008EE   FA           MOV     R2,A
   \   0008EF   EF           MOV     A,R7
   \   0008F0   FB           MOV     R3,A
   \   0008F1   12....       LCALL   ??Subroutine32_0 & 0xFFFF
    630                    }else
   \                     ??CrossCallReturnLabel_73:
   \   0008F4   12....       LCALL   ?DEALLOC_XSTACK8
   \   0008F7   8007         SJMP    ??parse_procotol_2
    631                    {
    632                      uprint("osal_nv_item_init 0x10 failed");
   \                     ??parse_procotol_72:
   \   0008F9                ; Setup parameters for call to function uprint
   \   0008F9   7A..         MOV     R2,#`?<Constant "osal_nv_item_init 0x1...">` & 0xff
   \   0008FB   7B..         MOV     R3,#(`?<Constant "osal_nv_item_init 0x1...">` >> 8) & 0xff
   \                     ??parse_procotol_9:
   \   0008FD   12....       LCALL   ??uprint?relay
   \                     ??parse_procotol_2:
   \   000900   745D         MOV     A,#0x5d
   \   000902   12....       LCALL   ?DEALLOC_XSTACK8
   \   000905   7F08         MOV     R7,#0x8
   \   000907   02....       LJMP    ?BANKED_LEAVE_XDATA
   \   00090A                REQUIRE _A_P1
   \   00090A                REQUIRE _A_IEN0
   \   00090A                REQUIRE WDCTL
    633                    }
    634                  }
    635                }
    636              }
    637          }

   \                                 In  segment BANKED_CODE, align 1, keep-with-next
   \                     ?Subroutine24:
   \   000000   AA82         MOV     R2,DPL
   \   000002   AB83         MOV     R3,DPH
   \   000004   12....       LCALL   ??strtol?relay
   \   000007   7402         MOV     A,#0x2
   \   000009   22           RET

   \                                 In  segment BANKED_CODE, align 1, keep-with-next
   \                     ?Subroutine23:
   \   000000   E5..         MOV     A,?V0 + 0
   \   000002   2404         ADD     A,#0x4
   \   000004   FC           MOV     R4,A
   \   000005   E5..         MOV     A,?V0 + 1
   \   000007   3400         ADDC    A,#0x0
   \   000009   FD           MOV     R5,A
   \   00000A   7406         MOV     A,#0x6
   \   00000C   22           RET

   \                                 In  segment BANKED_CODE, align 1, keep-with-next
   \                     ?Subroutine22:
   \   000000   12....       LCALL   ??strstr?relay
   \   000003   8B..         MOV     ?V0 + 5,R3
   \   000005   EA           MOV     A,R2
   \   000006   45..         ORL     A,?V0 + 5
   \   000008   22           RET

   \                                 In  segment BANKED_CODE, align 1, keep-with-next
   \                     ?Subroutine20:
   \   000000   E5..         MOV     A,?V0 + 0
   \   000002   2402         ADD     A,#0x2
   \   000004   FC           MOV     R4,A
   \   000005   E5..         MOV     A,?V0 + 1
   \   000007   3400         ADDC    A,#0x0
   \   000009   FD           MOV     R5,A
   \   00000A   7403         MOV     A,#0x3
   \   00000C   22           RET

   \                                 In  segment BANKED_CODE, align 1, keep-with-next
   \                     ?Subroutine19:
   \   000000   AA82         MOV     R2,DPL
   \   000002   AB83         MOV     R3,DPH
   \   000004   12....       LCALL   ??strncpy?relay
   \   000007   7402         MOV     A,#0x2
   \   000009   22           RET

   \                                 In  segment BANKED_CODE, align 1, keep-with-next
   \                     ?Subroutine17:
   \   000000   7C01         MOV     R4,#0x1
   \   000002                REQUIRE ??Subroutine29_0
   \   000002                ; // Fall through to label ??Subroutine29_0

   \                                 In  segment BANKED_CODE, align 1, keep-with-next
   \                     ??Subroutine29_0:
   \   000000   7D00         MOV     R5,#0x0
   \   000002   EE           MOV     A,R6
   \   000003   FA           MOV     R2,A
   \   000004   EF           MOV     A,R7
   \   000005   FB           MOV     R3,A
   \   000006                REQUIRE ??Subroutine30_0
   \   000006                ; // Fall through to label ??Subroutine30_0

   \                                 In  segment BANKED_CODE, align 1, keep-with-next
   \                     ??Subroutine30_0:
   \   000000   12....       LCALL   ??osal_nv_item_init?relay
   \   000003   7402         MOV     A,#0x2
   \   000005   22           RET

   \                                 In  segment BANKED_CODE, align 1, keep-with-next
   \                     ?Subroutine15:
   \   000000   85..82       MOV     DPL,?V0 + 0
   \   000003   85..83       MOV     DPH,?V0 + 1
   \   000006   A3           INC     DPTR
   \   000007   E0           MOVX    A,@DPTR
   \   000008   2410         ADD     A,#0x10
   \   00000A   12....       LCALL   ?Subroutine27 & 0xFFFF
   \                     ??CrossCallReturnLabel_54:
   \   00000D   22           RET

   \                                 In  segment BANKED_CODE, align 1, keep-with-next
   \                     ?Subroutine14:
   \   000000   A3           INC     DPTR
   \   000001   E0           MOVX    A,@DPTR
   \   000002   2402         ADD     A,#0x2
   \   000004   12....       LCALL   ?Subroutine27 & 0xFFFF
   \                     ??CrossCallReturnLabel_55:
   \   000007   22           RET

   \                                 In  segment BANKED_CODE, align 1, keep-with-next
   \                     ?Subroutine27:
   \   000000   FE           MOV     R6,A
   \   000001   E4           CLR     A
   \   000002   3402         ADDC    A,#0x2
   \   000004   FF           MOV     R7,A
   \   000005                ; Setup parameters for call to function osal_nv_item_init
   \   000005                ; Setup parameters for call to function osal_nv_item_init
   \   000005                ; Setup parameters for call to function osal_nv_item_init
   \   000005                ; Setup parameters for call to function osal_nv_item_init
   \   000005   E4           CLR     A
   \   000006   F5..         MOV     ?V0 + 4,A
   \   000008   F5..         MOV     ?V0 + 5,A
   \   00000A   78..         MOV     R0,#?V0 + 4
   \   00000C   22           RET

   \                                 In  segment BANKED_CODE, align 1, keep-with-next
   \                     ?Subroutine6:
   \   000000   90....       MOV     DPTR,#ZDO_Config_Node_Descriptor
   \   000003   E0           MOVX    A,@DPTR
   \   000004   5407         ANL     A,#0x7
   \   000006   85..82       MOV     DPL,?XSP + 0
   \   000009   85..83       MOV     DPH,?XSP + 1
   \   00000C   F0           MOVX    @DPTR,A
   \   00000D                ; Setup parameters for call to function osal_nv_item_init
   \   00000D                ; Setup parameters for call to function osal_nv_item_init
   \   00000D                ; Setup parameters for call to function osal_nv_item_init
   \   00000D   8582..       MOV     ?V0 + 0,DPL
   \   000010   8583..       MOV     ?V0 + 1,DPH
   \   000013   78..         MOV     R0,#?V0 + 0
   \   000015   22           RET

   \                                 In  segment BANKED_CODE, align 1, keep-with-next
   \                     ?Subroutine18:
   \   000000   7C00         MOV     R4,#0x0
   \   000002   7D00         MOV     R5,#0x0
   \   000004   7A87         MOV     R2,#-0x79
   \   000006                REQUIRE ??Subroutine31_0
   \   000006                ; // Fall through to label ??Subroutine31_0

   \                                 In  segment BANKED_CODE, align 1, keep-with-next
   \                     ??Subroutine31_0:
   \   000000   7B00         MOV     R3,#0x0
   \   000002                REQUIRE ??Subroutine32_0
   \   000002                ; // Fall through to label ??Subroutine32_0

   \                                 In  segment BANKED_CODE, align 1, keep-with-next
   \                     ??Subroutine32_0:
   \   000000   12....       LCALL   ??osal_nv_write?relay
   \   000003   7404         MOV     A,#0x4
   \   000005   22           RET

   \                                 In  segment BANKED_CODE, align 1, keep-with-next
   \                     ?Subroutine21:
   \   000000   7C00         MOV     R4,#0x0
   \   000002   7D00         MOV     R5,#0x0
   \   000004   EE           MOV     A,R6
   \   000005   FA           MOV     R2,A
   \   000006   EF           MOV     A,R7
   \   000007   FB           MOV     R3,A
   \   000008                REQUIRE ??Subroutine33_0
   \   000008                ; // Fall through to label ??Subroutine33_0

   \                                 In  segment BANKED_CODE, align 1, keep-with-next
   \                     ??Subroutine33_0:
   \   000000   12....       LCALL   ??osal_nv_read?relay
   \   000003   7404         MOV     A,#0x4
   \   000005   22           RET
    638          

   \                                 In  segment BANKED_CODE, align 1, keep-with-next
    639          static void Serial_callBack(uint8 port, uint8 event)
   \                     Serial_callBack:
    640          {
   \   000000   74F5         MOV     A,#-0xb
   \   000002   12....       LCALL   ?BANKED_ENTER_XDATA
   \   000005                ; Saved register size: 11
   \   000005                ; Auto size: 41
   \   000005   74D7         MOV     A,#-0x29
   \   000007   12....       LCALL   ?ALLOC_XSTACK8
    641            
    642            zAddrType_t dstAddr;
    643          
    644            
    645            uint8 buff[32];
    646            uint8 readBytes = 0;
    647            
    648          
    649            
    650            uint8 yy1;
    651          
    652            
    653            uint8 i;
    654            byte nr;  
    655            
    656          
    657            
    658          
    659            //short_ddr = GenericApp_DstAddr.addr.shortAddr;
    660          
    661          //     uint16 devlist[ NWK_MAX_DEVICES + 1];
    662              
    663            
    664            readBytes = HalUARTRead(SER_PORT, buff, 31);
   \   00000A                ; Setup parameters for call to function HalUARTRead
   \   00000A   7C1F         MOV     R4,#0x1f
   \   00000C   7D00         MOV     R5,#0x0
   \   00000E   7409         MOV     A,#0x9
   \   000010   12....       LCALL   ?XSTACK_DISP0_8
   \   000013   AA82         MOV     R2,DPL
   \   000015   AB83         MOV     R3,DPH
   \   000017   7900         MOV     R1,#0x0
   \   000019   12....       LCALL   ??HalUARTRead?relay
   \   00001C   EA           MOV     A,R2
   \   00001D   FE           MOV     R6,A
    665            if (readBytes > 0)
   \   00001E   7003         JNZ     $+5
   \   000020   02....       LJMP    ??Serial_callBack_0 & 0xFFFF
    666            {
    667              //HalUARTWrite( SER_PORT, "DataRead: ",10);
    668              // HalUARTWrite( SER_PORT, buff, readBytes);
    669              
    670              if( readBytes == 1)
   \   000023   7401         MOV     A,#0x1
   \   000025   6E           XRL     A,R6
   \   000026   707B         JNZ     ??Serial_callBack_1
    671              {   
    672                  if(buff[0] == 0xCA)
   \   000028   7409         MOV     A,#0x9
   \   00002A   12....       LCALL   ?XSTACK_DISP0_8
   \   00002D   E0           MOVX    A,@DPTR
   \   00002E   64CA         XRL     A,#0xca
   \   000030   6003         JZ      $+5
   \   000032   02....       LJMP    ??Serial_callBack_0 & 0xFFFF
    673                  {
    674                    // 
    675                    // read self AssociatedDevList
    676                    yy1 = 1;
   \   000035   7E01         MOV     R6,#0x1
    677                    for(i=0;i< NWK_MAX_DEVICES; i++)
   \   000037   7C00         MOV     R4,#0x0
    678                    {
    679                       nr = AssociatedDevList[ i ].nodeRelation;
    680                       //if(nr > 0 && nr < 5) //CHILD_RFD CHILD_RFD_RX_IDLE CHILD_FFD CHILD_FFD_RX_IDLE
    681                       if( nr != 0XFF)
   \                     ??Serial_callBack_2:
   \   000039   EC           MOV     A,R4
   \   00003A   75F012       MOV     B,#0x12
   \   00003D   A4           MUL     AB
   \   00003E   F8           MOV     R0,A
   \   00003F   A9F0         MOV     R1,B
   \   000041   74..         MOV     A,#(AssociatedDevList + 4) & 0xff
   \   000043   28           ADD     A,R0
   \   000044   F582         MOV     DPL,A
   \   000046   74..         MOV     A,#((AssociatedDevList + 4) >> 8) & 0xff
   \   000048   39           ADDC    A,R1
   \   000049   F583         MOV     DPH,A
   \   00004B   E0           MOVX    A,@DPTR
   \   00004C   F4           CPL     A
   \   00004D   6026         JZ      ??Serial_callBack_3
    682                       {
    683                         //   myaddr.addrMode = (afAddrMode_t)Addr16Bit;
    684                         //   myaddr.endPoint = GENERICAPP_ENDPOINT;
    685                       //  if( AssociatedDevList[ i ].shortAddr != 0x0000)
    686                       //  {
    687                            //if( AssocIsChild( AssociatedDevList[ i ].shortAddr ) != 1 || AssociatedDevList[ i ].age > NWK_ROUTE_AGE_LIMIT)
    688                            //if( AssocIsChild( AssociatedDevList[ i ].shortAddr ) == 1 && AssociatedDevList[ i ].age > NWK_ROUTE_AGE_LIMIT )
    689                           // {
    690                              //  myaddr.addr.shortAddr = AssociatedDevList[ i ].shortAddr;
    691                                /*
    692                                if ( AF_DataRequest( &myaddr, &GenericApp_epDesc, GENERICAPP_CLUSTERID,(byte)osal_strlen( theMessageData ) + 1,
    693                                        (byte *)&theMessageData,
    694                                        &GenericApp_TransID,
    695                                        AF_ACK_REQUEST, AF_DEFAULT_RADIUS ) != afStatus_SUCCESS )
    696                                  {
    697                                    uprint("delete asso");
    698                                  */
    699                             //       delete_asso( AssociatedDevList[ i ]. addrIdx);
    700                                    
    701                            // }
    702                              //    else
    703                               //   {
    704                                  //  if( ZDSecMgrAuthenticationCheck(AssociatedDevList[ i ].shortAddr) == TRUE)
    705                                    {
    706                                      devlist[yy1] = AssociatedDevList[ i ].shortAddr;
   \   00004F   74..         MOV     A,#AssociatedDevList & 0xff
   \   000051   28           ADD     A,R0
   \   000052   F582         MOV     DPL,A
   \   000054   74..         MOV     A,#(AssociatedDevList >> 8) & 0xff
   \   000056   39           ADDC    A,R1
   \   000057   F583         MOV     DPH,A
   \   000059   E0           MOVX    A,@DPTR
   \   00005A   FA           MOV     R2,A
   \   00005B   A3           INC     DPTR
   \   00005C   E0           MOVX    A,@DPTR
   \   00005D   FB           MOV     R3,A
   \   00005E   EE           MOV     A,R6
   \   00005F   C3           CLR     C
   \   000060   33           RLC     A
   \   000061   F8           MOV     R0,A
   \   000062   E4           CLR     A
   \   000063   33           RLC     A
   \   000064   F9           MOV     R1,A
   \   000065   74..         MOV     A,#devlist & 0xff
   \   000067   28           ADD     A,R0
   \   000068   F582         MOV     DPL,A
   \   00006A   74..         MOV     A,#(devlist >> 8) & 0xff
   \   00006C   39           ADDC    A,R1
   \   00006D   F583         MOV     DPH,A
   \   00006F   EA           MOV     A,R2
   \   000070   F0           MOVX    @DPTR,A
   \   000071   A3           INC     DPTR
   \   000072   EB           MOV     A,R3
   \   000073   F0           MOVX    @DPTR,A
    707                                      yy1++;
   \   000074   0E           INC     R6
    708                                    }
    709                               //   }
    710                            
    711                            // }
    712                       }//else {break;}
    713                    }
   \                     ??Serial_callBack_3:
   \   000075   0C           INC     R4
   \   000076   EC           MOV     A,R4
   \   000077   C3           CLR     C
   \   000078   9415         SUBB    A,#0x15
   \   00007A   40BD         JC      ??Serial_callBack_2
    714                    devlist[0] = BUILD_UINT16(0xce,  AssocCount( PARENT, CHILD_FFD_RX_IDLE ) );
   \   00007C                ; Setup parameters for call to function AssocCount
   \   00007C   7A04         MOV     R2,#0x4
   \   00007E   7900         MOV     R1,#0x0
   \   000080   12....       LCALL   ??AssocCount?relay
   \   000083   EA           MOV     A,R2
   \   000084   FB           MOV     R3,A
   \   000085   E4           CLR     A
   \   000086   24CE         ADD     A,#-0x32
   \   000088   EB           MOV     A,R3
   \   000089   F9           MOV     R1,A
   \   00008A   90....       MOV     DPTR,#devlist
   \   00008D   74CE         MOV     A,#-0x32
   \   00008F   F0           MOVX    @DPTR,A
   \   000090   A3           INC     DPTR
   \   000091   E9           MOV     A,R1
   \   000092   F0           MOVX    @DPTR,A
    715                    ///devlist[0] = BUILD_UINT16(0xce,  yy1-1 );
    716                    UART_Send_String( (uint8*)&devlist[0], yy1*2);
   \   000093                ; Setup parameters for call to function UART_Send_String
   \   000093   EE           MOV     A,R6
   \   000094   33           RLC     A
   \   000095   FC           MOV     R4,A
   \   000096   E4           CLR     A
   \   000097   33           RLC     A
   \   000098   FD           MOV     R5,A
   \   000099   7A..         MOV     R2,#devlist & 0xff
   \   00009B   7B..         MOV     R3,#(devlist >> 8) & 0xff
   \   00009D   12....       LCALL   ??UART_Send_String?relay
    717                      //p1 = AssocMakeList( &cnt );
    718                      //UART_Send_String( (uint8*)p1,  AssocCount(1, 4)*2);
    719                      //osal_mem_free(p1);
    720                    return;
   \   0000A0   02....       LJMP    ??Serial_callBack_0 & 0xFFFF
    721                  }
    722              }
    723              
    724              
    725              
    726              if( readBytes >= 2)
   \                     ??Serial_callBack_1:
   \   0000A3   EE           MOV     A,R6
   \   0000A4   C3           CLR     C
   \   0000A5   9402         SUBB    A,#0x2
   \   0000A7   5003         JNC     $+5
   \   0000A9   02....       LJMP    ??Serial_callBack_0 & 0xFFFF
    727              {
    728                if( buff[0] == 'e' && buff[1] == '#')
   \   0000AC   7409         MOV     A,#0x9
   \   0000AE   12....       LCALL   ?XSTACK_DISP0_8
   \   0000B1   E0           MOVX    A,@DPTR
   \   0000B2   6465         XRL     A,#0x65
   \   0000B4   707D         JNZ     ??Serial_callBack_4
   \   0000B6   740A         MOV     A,#0xa
   \   0000B8   12....       LCALL   ?XSTACK_DISP0_8
   \   0000BB   E0           MOVX    A,@DPTR
   \   0000BC   6423         XRL     A,#0x23
   \   0000BE   6003         JZ      $+5
   \   0000C0   02....       LJMP    ??Serial_callBack_0 & 0xFFFF
    729                {
    730                    uprint("EndDevice match");
   \   0000C3                ; Setup parameters for call to function uprint
   \   0000C3   7A..         MOV     R2,#`?<Constant "EndDevice match">` & 0xff
   \   0000C5   7B..         MOV     R3,#(`?<Constant "EndDevice match">` >> 8) & 0xff
   \   0000C7   12....       LCALL   ??uprint?relay
    731                    HalLedSet ( HAL_LED_1, HAL_LED_MODE_OFF );
   \   0000CA                ; Setup parameters for call to function HalLedSet
   \   0000CA   7A00         MOV     R2,#0x0
   \   0000CC   7901         MOV     R1,#0x1
   \   0000CE   12....       LCALL   ??HalLedSet?relay
    732          
    733                    dstAddr.addrMode = Addr16Bit;
   \   0000D1   7408         MOV     A,#0x8
   \   0000D3   12....       LCALL   ?XSTACK_DISP0_8
   \   0000D6   7402         MOV     A,#0x2
   \   0000D8   12....       LCALL   ?Subroutine4 & 0xFFFF
    734                    dstAddr.addr.shortAddr = 0x0000; // Coordinator
   \                     ??CrossCallReturnLabel_1:
   \   0000DB   E4           CLR     A
   \   0000DC   F0           MOVX    @DPTR,A
   \   0000DD   A3           INC     DPTR
   \   0000DE   F0           MOVX    @DPTR,A
    735                    ZDP_EndDeviceBindReq( &dstAddr, NLME_GetShortAddr(), GenericApp_epDesc.endPoint,
    736                                      GENERICAPP_PROFID,
    737                                      GENERICAPP_MAX_CLUSTERS, (cId_t *)GenericApp_ClusterList,
    738                                      GENERICAPP_MAX_CLUSTERS, (cId_t *)GenericApp_ClusterList,
    739                                      FALSE );
   \   0000DF                ; Setup parameters for call to function NLME_GetShortAddr
   \   0000DF   12....       LCALL   ??NLME_GetShortAddr?relay
   \   0000E2   8A..         MOV     ?V0 + 0,R2
   \   0000E4   8B..         MOV     ?V0 + 1,R3
   \   0000E6   AC..         MOV     R4,?V0 + 0
   \   0000E8   AD..         MOV     R5,?V0 + 1
   \   0000EA   75....       MOV     ?V0 + 0,#GenericApp_ClusterList & 0xff
   \   0000ED   75....       MOV     ?V0 + 1,#(GenericApp_ClusterList >> 8) & 0xff
   \   0000F0                ; Setup parameters for call to function ZDP_EndDeviceBindReq
   \   0000F0   75..00       MOV     ?V0 + 2,#0x0
   \   0000F3   78..         MOV     R0,#?V0 + 2
   \   0000F5   12....       LCALL   ?PUSH_XSTACK_I_ONE
   \   0000F8   78..         MOV     R0,#?V0 + 0
   \   0000FA   12....       LCALL   ?PUSH_XSTACK_I_TWO
   \   0000FD   75..01       MOV     ?V0 + 2,#0x1
   \   000100   78..         MOV     R0,#?V0 + 2
   \   000102   12....       LCALL   ?PUSH_XSTACK_I_ONE
   \   000105   78..         MOV     R0,#?V0 + 0
   \   000107   12....       LCALL   ?PUSH_XSTACK_I_TWO
   \   00010A   75..01       MOV     ?V0 + 0,#0x1
   \   00010D   78..         MOV     R0,#?V0 + 0
   \   00010F   12....       LCALL   ?PUSH_XSTACK_I_ONE
   \   000112   75..04       MOV     ?V0 + 0,#0x4
   \   000115   75..0F       MOV     ?V0 + 1,#0xf
   \   000118   78..         MOV     R0,#?V0 + 0
   \   00011A   12....       LCALL   ?PUSH_XSTACK_I_TWO
   \   00011D   90....       MOV     DPTR,#GenericApp_epDesc
   \   000120   E0           MOVX    A,@DPTR
   \   000121   F9           MOV     R1,A
   \   000122   7409         MOV     A,#0x9
   \   000124   12....       LCALL   ?XSTACK_DISP0_8
   \   000127   AA82         MOV     R2,DPL
   \   000129   AB83         MOV     R3,DPH
   \   00012B   12....       LCALL   ??ZDP_EndDeviceBindReq?relay
   \   00012E   7409         MOV     A,#0x9
   \   000130   12....       LCALL   ?DEALLOC_XSTACK8
    740                
    741                }
    742           
    743                if( buff[0] == 'r' && buff[1] == '#')
   \                     ??Serial_callBack_4:
   \   000133   7409         MOV     A,#0x9
   \   000135   12....       LCALL   ?XSTACK_DISP0_8
   \   000138   E0           MOVX    A,@DPTR
   \   000139   6472         XRL     A,#0x72
   \   00013B   7065         JNZ     ??Serial_callBack_5
   \   00013D   740A         MOV     A,#0xa
   \   00013F   12....       LCALL   ?XSTACK_DISP0_8
   \   000142   E0           MOVX    A,@DPTR
   \   000143   6423         XRL     A,#0x23
   \   000145   6003         JZ      $+5
   \   000147   02....       LJMP    ??Serial_callBack_0 & 0xFFFF
    744                {
    745                    uprint("Router Device match");
   \   00014A                ; Setup parameters for call to function uprint
   \   00014A   7A..         MOV     R2,#`?<Constant "Router Device match">` & 0xff
   \   00014C   7B..         MOV     R3,#(`?<Constant "Router Device match">` >> 8) & 0xff
   \   00014E   12....       LCALL   ??uprint?relay
    746                    
    747          //        HalLedSet ( HAL_LED_1, HAL_LED_MODE_FLASH );
    748          
    749                dstAddr.addrMode = AddrBroadcast;
   \   000151   7408         MOV     A,#0x8
   \   000153   12....       LCALL   ?XSTACK_DISP0_8
   \   000156   740F         MOV     A,#0xf
   \   000158   12....       LCALL   ?Subroutine4 & 0xFFFF
    750                dstAddr.addr.shortAddr = NWK_BROADCAST_SHORTADDR;
   \                     ??CrossCallReturnLabel_2:
   \   00015B   74FF         MOV     A,#-0x1
   \   00015D   F0           MOVX    @DPTR,A
   \   00015E   A3           INC     DPTR
   \   00015F   F0           MOVX    @DPTR,A
    751                ZDP_MatchDescReq( &dstAddr, NWK_BROADCAST_SHORTADDR,
    752                                  GENERICAPP_PROFID,
    753                                  GENERICAPP_MAX_CLUSTERS, (cId_t *)GenericApp_ClusterList,
    754                                  GENERICAPP_MAX_CLUSTERS, (cId_t *)GenericApp_ClusterList,
    755                                  FALSE );
   \   000160   75....       MOV     ?V0 + 0,#GenericApp_ClusterList & 0xff
   \   000163   75....       MOV     ?V0 + 1,#(GenericApp_ClusterList >> 8) & 0xff
   \   000166                ; Setup parameters for call to function ZDP_MatchDescReq
   \   000166   75..00       MOV     ?V0 + 2,#0x0
   \   000169   78..         MOV     R0,#?V0 + 2
   \   00016B   12....       LCALL   ?PUSH_XSTACK_I_ONE
   \   00016E   78..         MOV     R0,#?V0 + 0
   \   000170   12....       LCALL   ?PUSH_XSTACK_I_TWO
   \   000173   75..01       MOV     ?V0 + 2,#0x1
   \   000176   78..         MOV     R0,#?V0 + 2
   \   000178   12....       LCALL   ?PUSH_XSTACK_I_ONE
   \   00017B   78..         MOV     R0,#?V0 + 0
   \   00017D   12....       LCALL   ?PUSH_XSTACK_I_TWO
   \   000180   75..04       MOV     ?V0 + 0,#0x4
   \   000183   75..0F       MOV     ?V0 + 1,#0xf
   \   000186   78..         MOV     R0,#?V0 + 0
   \   000188   12....       LCALL   ?PUSH_XSTACK_I_TWO
   \   00018B   7901         MOV     R1,#0x1
   \   00018D   7CFF         MOV     R4,#-0x1
   \   00018F   7DFF         MOV     R5,#-0x1
   \   000191   7408         MOV     A,#0x8
   \   000193   12....       LCALL   ?XSTACK_DISP0_8
   \   000196   AA82         MOV     R2,DPL
   \   000198   AB83         MOV     R3,DPH
   \   00019A   12....       LCALL   ??ZDP_MatchDescReq?relay
   \   00019D   7408         MOV     A,#0x8
   \   00019F   12....       LCALL   ?DEALLOC_XSTACK8
    756                
    757                }
    758          
    759          
    760               
    761                
    762                if(buff[0] == 0xd8 ) // d8 xx xx i o t ,etc,d8 xx xx ed f[a,c,f] 01
   \                     ??Serial_callBack_5:
   \   0001A2   7409         MOV     A,#0x9
   \   0001A4   12....       LCALL   ?XSTACK_DISP0_8
   \   0001A7   E0           MOVX    A,@DPTR
   \   0001A8   64D8         XRL     A,#0xd8
   \   0001AA   7020         JNZ     ??Serial_callBack_0
    763                {
    764                    //short_ddr = BUILD_UINT16(buff[1],buff[2]);
    765                   // if(short_ddr != 0x0000)
    766                    //{
    767                      SendData( BUILD_UINT16(buff[1],buff[2]), &buff[3], readBytes - 3);
   \   0001AC                ; Setup parameters for call to function SendData
   \   0001AC   74FD         MOV     A,#-0x3
   \   0001AE   2E           ADD     A,R6
   \   0001AF   F9           MOV     R1,A
   \   0001B0   740C         MOV     A,#0xc
   \   0001B2   12....       LCALL   ?XSTACK_DISP0_8
   \   0001B5   AC82         MOV     R4,DPL
   \   0001B7   AD83         MOV     R5,DPH
   \   0001B9   740A         MOV     A,#0xa
   \   0001BB   12....       LCALL   ?XSTACK_DISP0_8
   \   0001BE   E0           MOVX    A,@DPTR
   \   0001BF   FE           MOV     R6,A
   \   0001C0   740B         MOV     A,#0xb
   \   0001C2   12....       LCALL   ?XSTACK_DISP0_8
   \   0001C5   E0           MOVX    A,@DPTR
   \   0001C6   FB           MOV     R3,A
   \   0001C7   EE           MOV     A,R6
   \   0001C8   FA           MOV     R2,A
   \   0001C9   12....       LCALL   ??SendData?relay
    768                    //}else
    769                    //{
    770                      // send to myself
    771                    //}
    772                      return;
   \                     ??Serial_callBack_0:
   \   0001CC   7429         MOV     A,#0x29
   \   0001CE   12....       LCALL   ?DEALLOC_XSTACK8
   \   0001D1   7F03         MOV     R7,#0x3
   \   0001D3   02....       LJMP    ?BANKED_LEAVE_XDATA
    773                }
    774                
    775              }
    776          
    777          
    778            }  
    779          }
    780          

   \                                 In  segment BANKED_CODE, align 1, keep-with-next
    781          void serial_init(void )
   \                     serial_init:
    782          {
   \   000000   C082         PUSH    DPL
   \   000002   C083         PUSH    DPH
   \   000004                ; Saved register size: 2
   \   000004                ; Auto size: 29
   \   000004   74E3         MOV     A,#-0x1d
   \   000006   12....       LCALL   ?ALLOC_XSTACK8
    783            halUARTCfg_t uartConfig;
    784          
    785           
    786            uartConfig.configured           = TRUE;                                                   // 2x30 don't care - see uart driver.
   \   000009   85..82       MOV     DPL,?XSP + 0
   \   00000C   85..83       MOV     DPH,?XSP + 1
   \   00000F   7401         MOV     A,#0x1
   \   000011   F0           MOVX    @DPTR,A
    787            uartConfig.baudRate             = HAL_UART_BR_38400;                       //38400
   \   000012   12....       LCALL   ?XSTACK_DISP0_8
   \   000015   7402         MOV     A,#0x2
   \   000017   F0           MOVX    @DPTR,A
    788            uartConfig.flowControl          = FALSE;
   \   000018   12....       LCALL   ?XSTACK_DISP0_8
   \   00001B   E4           CLR     A
   \   00001C   F0           MOVX    @DPTR,A
    789            uartConfig.flowControlThreshold = 64;        // 64.
   \   00001D   7403         MOV     A,#0x3
   \   00001F   12....       LCALL   ?XSTACK_DISP0_8
   \   000022   7440         MOV     A,#0x40
   \   000024   F0           MOVX    @DPTR,A
   \   000025   A3           INC     DPTR
   \   000026   E4           CLR     A
   \   000027   F0           MOVX    @DPTR,A
    790            uartConfig.rx.maxBufSize        = 512;                  // 128
   \   000028   740A         MOV     A,#0xa
   \   00002A   12....       LCALL   ?XSTACK_DISP0_8
   \   00002D   E4           CLR     A
   \   00002E   F0           MOVX    @DPTR,A
   \   00002F   A3           INC     DPTR
   \   000030   7402         MOV     A,#0x2
   \   000032   F0           MOVX    @DPTR,A
    791            uartConfig.tx.maxBufSize        = 512;                  // 128
   \   000033   7412         MOV     A,#0x12
   \   000035   12....       LCALL   ?XSTACK_DISP0_8
   \   000038   E4           CLR     A
   \   000039   F0           MOVX    @DPTR,A
   \   00003A   A3           INC     DPTR
   \   00003B   7402         MOV     A,#0x2
   \   00003D   F0           MOVX    @DPTR,A
    792            uartConfig.idleTimeout          = 6;                      // 6
   \   00003E   7405         MOV     A,#0x5
   \   000040   12....       LCALL   ?XSTACK_DISP0_8
   \   000043   7406         MOV     A,#0x6
   \   000045   F0           MOVX    @DPTR,A
    793            uartConfig.intEnable            = TRUE;                                                 
   \   000046   7416         MOV     A,#0x16
   \   000048   12....       LCALL   ?XSTACK_DISP0_8
   \   00004B   7401         MOV     A,#0x1
   \   00004D   F0           MOVX    @DPTR,A
    794            uartConfig.callBackFunc         = Serial_callBack;                   // Call back function
   \   00004E   741B         MOV     A,#0x1b
   \   000050   12....       LCALL   ?XSTACK_DISP0_8
   \   000053   74..         MOV     A,#??Serial_callBack?relay & 0xff
   \   000055   F0           MOVX    @DPTR,A
   \   000056   A3           INC     DPTR
   \   000057   74..         MOV     A,#(??Serial_callBack?relay >> 8) & 0xff
   \   000059   12....       LCALL   ?Subroutine4 & 0xFFFF
    795            
    796            HalUARTOpen (SER_PORT, &uartConfig);
   \                     ??CrossCallReturnLabel_3:
   \   00005C   AA82         MOV     R2,DPL
   \   00005E   AB83         MOV     R3,DPH
   \   000060   7900         MOV     R1,#0x0
   \   000062   12....       LCALL   ??HalUARTOpen?relay
    797          
    798          }
   \   000065   741D         MOV     A,#0x1d
   \   000067   12....       LCALL   ?DEALLOC_XSTACK8
   \   00006A   02....       LJMP    ?Subroutine1 & 0xFFFF
    799          

   \                                 In  segment BANKED_CODE, align 1, keep-with-next
    800          void io_init(void)
   \                     io_init:
    801          {
   \   000000                ; Saved register size: 0
   \   000000                ; Auto size: 0
    802              /* For falling edge, the bit must be set. */
    803          /*
    804              PICTL &= ~(  HAL_KEY_JOY_MOVE_BIT ); 
    805              PICTL |= HAL_KEY_JOY_MOVE_BIT;
    806          
    807              P0IEN  |= HAL_KEY_SW_6_BIT;
    808              IEN1 |= BV(5);
    809              P0IFG = ~(HAL_KEY_SW_6_BIT);
    810          */
    811            P0DIR &= ~0x01;
   \   000000   53FDFE       ANL     0xfd,#0xfe
    812            
    813            P0DIR |= 0x80;
   \   000003   43FD80       ORL     0xfd,#0x80
    814            
    815            P0IFG &= ~0x01;
   \   000006   5389FE       ANL     0x89,#0xfe
    816            
    817            P0_7 = 1;
   \   000009   D287         SETB    0x80.7
    818            P1_1 = 0;
   \   00000B   C291         CLR     0x90.1
    819            P1_0 = 0;
   \   00000D   C290         CLR     0x90.0
    820          }
   \   00000F   02....       LJMP    ?BRET
   \   000012                REQUIRE P0DIR
   \   000012                REQUIRE P0IFG
   \   000012                REQUIRE _A_P0
   \   000012                REQUIRE _A_P1
    821          

   \                                 In  segment BANKED_CODE, align 1, keep-with-next
    822          void set_panid( uint16 u16NewPanid)
   \                     set_panid:
    823          {
   \   000000   74F6         MOV     A,#-0xa
   \   000002   12....       LCALL   ?BANKED_ENTER_XDATA
   \   000005                ; Saved register size: 10
   \   000005                ; Auto size: 2
   \   000005   74FE         MOV     A,#-0x2
   \   000007   12....       LCALL   ?ALLOC_XSTACK8
   \   00000A   85..82       MOV     DPL,?XSP + 0
   \   00000D   85..83       MOV     DPH,?XSP + 1
   \   000010   EA           MOV     A,R2
   \   000011   F0           MOVX    @DPTR,A
   \   000012   A3           INC     DPTR
   \   000013   EB           MOV     A,R3
   \   000014   12....       LCALL   ?Subroutine4 & 0xFFFF
    824            uint8 u8BackCode;
    825            _NIB.nwkPanId = u16NewPanid;
   \                     ??CrossCallReturnLabel_4:
   \   000017   E0           MOVX    A,@DPTR
   \   000018   F8           MOV     R0,A
   \   000019   A3           INC     DPTR
   \   00001A   E0           MOVX    A,@DPTR
   \   00001B   F9           MOV     R1,A
   \   00001C   90....       MOV     DPTR,#_NIB + 33
   \   00001F   E8           MOV     A,R0
   \   000020   F0           MOVX    @DPTR,A
   \   000021   A3           INC     DPTR
   \   000022   E9           MOV     A,R1
   \   000023   F0           MOVX    @DPTR,A
    826            macRadioSetPanID ( _NIB.nwkPanId);
   \   000024                ; Setup parameters for call to function macRadioSetPanID
   \   000024   90....       MOV     DPTR,#_NIB + 33
   \   000027   E0           MOVX    A,@DPTR
   \   000028   FA           MOV     R2,A
   \   000029   12....       LCALL   ??macRadioSetPanID?relay
    827            ZMacSetReq( ZMacPanId, (byte *)& _NIB.nwkPanId);
   \   00002C                ; Setup parameters for call to function ZMacSetReq
   \   00002C   7A..         MOV     R2,#(_NIB + 33) & 0xff
   \   00002E   7B..         MOV     R3,#((_NIB + 33) >> 8) & 0xff
   \   000030   7950         MOV     R1,#0x50
   \   000032   12....       LCALL   ??ZMacSetReq?relay
    828            
    829            u8BackCode = osal_nv_write(ZCD_NV_PANID, 0, 2, &u16NewPanid);
    830            if( u8BackCode == ZSUCCESS)
   \   000035                ; Setup parameters for call to function osal_nv_write
   \   000035   85..82       MOV     DPL,?XSP + 0
   \   000038   85..83       MOV     DPH,?XSP + 1
   \   00003B   8582..       MOV     ?V0 + 0,DPL
   \   00003E   8583..       MOV     ?V0 + 1,DPH
   \   000041   78..         MOV     R0,#?V0 + 0
   \   000043   12....       LCALL   ?PUSH_XSTACK_I_TWO
   \   000046   75..02       MOV     ?V0 + 0,#0x2
   \   000049   75..00       MOV     ?V0 + 1,#0x0
   \   00004C   78..         MOV     R0,#?V0 + 0
   \   00004E   12....       LCALL   ?PUSH_XSTACK_I_TWO
   \   000051   7C00         MOV     R4,#0x0
   \   000053   7D00         MOV     R5,#0x0
   \   000055   7A83         MOV     R2,#-0x7d
   \   000057   12....       LCALL   ??Subroutine31_0 & 0xFFFF
   \                     ??CrossCallReturnLabel_70:
   \   00005A   12....       LCALL   ?DEALLOC_XSTACK8
   \   00005D   E9           MOV     A,R1
   \   00005E   7007         JNZ     ??set_panid_0
    831            {
    832              NLME_UpdateNV(0x01);
   \   000060                ; Setup parameters for call to function NLME_UpdateNV
   \   000060   7901         MOV     R1,#0x1
   \   000062   12....       LCALL   ??NLME_UpdateNV?relay
   \   000065   8007         SJMP    ??set_panid_1
    833          //    HAL_SYSTEM_RESET();
    834            }
    835            else
    836            {
    837              uprint("set_panid failed");
   \                     ??set_panid_0:
   \   000067                ; Setup parameters for call to function uprint
   \   000067   7A..         MOV     R2,#`?<Constant "set_panid failed">` & 0xff
   \   000069   7B..         MOV     R3,#(`?<Constant "set_panid failed">` >> 8) & 0xff
   \   00006B   12....       LCALL   ??uprint?relay
    838            }
    839            
    840          }
   \                     ??set_panid_1:
   \   00006E   7402         MOV     A,#0x2
   \   000070   02....       LJMP    ?Subroutine0 & 0xFFFF
    841          

   \                                 In  segment BANKED_CODE, align 1, keep-with-next
    842          uint8 cb_ReadConfiguration( uint8 configId, uint8 len, void *pValue ) // it's just check the configId if existed,wont create one,unlikely osal_nv_item_init
   \                     cb_ReadConfiguration:
    843          {
   \   000000   74F4         MOV     A,#-0xc
   \   000002   12....       LCALL   ?BANKED_ENTER_XDATA
   \   000005                ; Saved register size: 12
   \   000005                ; Auto size: 0
   \   000005   E9           MOV     A,R1
   \   000006   FF           MOV     R7,A
   \   000007   EA           MOV     A,R2
   \   000008   FE           MOV     R6,A
   \   000009   8C..         MOV     ?V0 + 0,R4
   \   00000B   8D..         MOV     ?V0 + 1,R5
    844            uint8 size;
    845          
    846            size = (uint8)osal_nv_item_len( configId );
   \   00000D                ; Setup parameters for call to function osal_nv_item_len
   \   00000D   8F..         MOV     ?V0 + 2,R7
   \   00000F   AA..         MOV     R2,?V0 + 2
   \   000011   7B00         MOV     R3,#0x0
   \   000013   12....       LCALL   ??osal_nv_item_len?relay
   \   000016   EA           MOV     A,R2
   \   000017   F9           MOV     R1,A
    847            if ( size > len )
   \   000018   EE           MOV     A,R6
   \   000019   C3           CLR     C
   \   00001A   99           SUBB    A,R1
   \   00001B   5004         JNC     ??cb_ReadConfiguration_0
    848            {
    849              return ZFailure;
   \   00001D   7901         MOV     R1,#0x1
   \   00001F   801F         SJMP    ??cb_ReadConfiguration_1
    850            }
    851            else
    852            {
    853              return( osal_nv_read(configId, 0, size, pValue) );
   \                     ??cb_ReadConfiguration_0:
   \   000021                ; Setup parameters for call to function osal_nv_read
   \   000021   78..         MOV     R0,#?V0 + 0
   \   000023   12....       LCALL   ?PUSH_XSTACK_I_TWO
   \   000026   89..         MOV     ?V0 + 0,R1
   \   000028   75..00       MOV     ?V0 + 1,#0x0
   \   00002B   78..         MOV     R0,#?V0 + 0
   \   00002D   12....       LCALL   ?PUSH_XSTACK_I_TWO
   \   000030   7C00         MOV     R4,#0x0
   \   000032   7D00         MOV     R5,#0x0
   \   000034   8F..         MOV     ?V0 + 0,R7
   \   000036   AA..         MOV     R2,?V0 + 0
   \   000038   7B00         MOV     R3,#0x0
   \   00003A   12....       LCALL   ??Subroutine33_0 & 0xFFFF
    854            }
   \                     ??CrossCallReturnLabel_77:
   \   00003D   12....       LCALL   ?DEALLOC_XSTACK8
   \                     ??cb_ReadConfiguration_1:
   \   000040                REQUIRE ?Subroutine3
   \   000040                ; // Fall through to label ?Subroutine3
    855          }

   \                                 In  segment BANKED_CODE, align 1, keep-with-next
   \                     ?Subroutine3:
   \   000000   7F04         MOV     R7,#0x4
   \   000002   02....       LJMP    ?BANKED_LEAVE_XDATA
    856          

   \                                 In  segment BANKED_CODE, align 1, keep-with-next
    857          uint8 cb_WriteConfiguration( uint8 configId, uint8 len, void *pValue )
   \                     cb_WriteConfiguration:
    858          {
   \   000000   74F6         MOV     A,#-0xa
   \   000002   12....       LCALL   ?BANKED_ENTER_XDATA
   \   000005                ; Saved register size: 10
   \   000005                ; Auto size: 0
   \   000005   E9           MOV     A,R1
   \   000006   FF           MOV     R7,A
   \   000007   EA           MOV     A,R2
   \   000008   FE           MOV     R6,A
    859            return( osal_nv_write(configId, 0, len, pValue) );
   \   000009                ; Setup parameters for call to function osal_nv_write
   \   000009   8C..         MOV     ?V0 + 0,R4
   \   00000B   8D..         MOV     ?V0 + 1,R5
   \   00000D   78..         MOV     R0,#?V0 + 0
   \   00000F   12....       LCALL   ?PUSH_XSTACK_I_TWO
   \   000012   8E..         MOV     ?V0 + 0,R6
   \   000014   75..00       MOV     ?V0 + 1,#0x0
   \   000017   78..         MOV     R0,#?V0 + 0
   \   000019   12....       LCALL   ?PUSH_XSTACK_I_TWO
   \   00001C   7C00         MOV     R4,#0x0
   \   00001E   7D00         MOV     R5,#0x0
   \   000020   8F..         MOV     ?V0 + 0,R7
   \   000022   AA..         MOV     R2,?V0 + 0
   \   000024   12....       LCALL   ??Subroutine31_0 & 0xFFFF
   \                     ??CrossCallReturnLabel_71:
   \   000027                REQUIRE ?Subroutine0
   \   000027                ; // Fall through to label ?Subroutine0
    860          }
    861          
    862          
    863          /*********************************************************************
    864           * LOCAL FUNCTIONS
    865           */
    866          static void GenericApp_ProcessZDOMsgs( zdoIncomingMsg_t *inMsg );
    867          static void GenericApp_HandleKeys( byte shift, byte keys );
    868          static void GenericApp_MessageMSGCB( afIncomingMSGPacket_t *pckt );
    869          static void GenericApp_SendTheMessage( afIncomingMSGPacket_t* );
    870          
    871          #if defined( IAR_ARMCM3_LM )
    872          static void GenericApp_ProcessRtosMessage( void );
    873          #endif
    874          
    875          /*********************************************************************
    876           * NETWORK LAYER CALLBACKS
    877           */
    878          
    879          

   \                                 In  segment BANKED_CODE, align 1, keep-with-next
    880          void GenericApp_Init( uint8 task_id )
   \                     GenericApp_Init:
    881          {
   \   000000   74F6         MOV     A,#-0xa
   \   000002   12....       LCALL   ?BANKED_ENTER_XDATA
   \   000005                ; Saved register size: 10
   \   000005                ; Auto size: 0
   \   000005   E9           MOV     A,R1
    882            
    883          //  zclSE_Init( &GenericApp_SimpleDesc );
    884            uint16 size;
    885            
    886            
    887            GenericApp_TaskID = task_id;
   \   000006   90....       MOV     DPTR,#GenericApp_TaskID
   \   000009   F0           MOVX    @DPTR,A
    888            GenericApp_NwkState = DEV_INIT;
   \   00000A   90....       MOV     DPTR,#GenericApp_NwkState
   \   00000D   7401         MOV     A,#0x1
   \   00000F   F0           MOVX    @DPTR,A
    889            GenericApp_TransID = 0;
   \   000010   90....       MOV     DPTR,#GenericApp_TransID
   \   000013   E4           CLR     A
   \   000014   F0           MOVX    @DPTR,A
    890          
    891            // Device hardware initialization can be added here or in main() (Zmain.c).
    892            // If the hardware is application specific - add it here.
    893            // If the hardware is other parts of the device add it in main().
    894          
    895            GenericApp_DstAddr.addrMode = (afAddrMode_t)Addr16Bit;
   \   000015   90....       MOV     DPTR,#GenericApp_DstAddr + 8
   \   000018   7402         MOV     A,#0x2
   \   00001A   F0           MOVX    @DPTR,A
    896            GenericApp_DstAddr.endPoint = GENERICAPP_ENDPOINT;
   \   00001B   A3           INC     DPTR
   \   00001C   7414         MOV     A,#0x14
   \   00001E   F0           MOVX    @DPTR,A
    897            GenericApp_DstAddr.addr.shortAddr = 0xFFFF;
   \   00001F   90....       MOV     DPTR,#GenericApp_DstAddr
   \   000022   74FF         MOV     A,#-0x1
   \   000024   F0           MOVX    @DPTR,A
   \   000025   A3           INC     DPTR
   \   000026   F0           MOVX    @DPTR,A
    898          
    899            // Fill out the endpoint description.
    900            GenericApp_epDesc.endPoint = GENERICAPP_ENDPOINT;
   \   000027   90....       MOV     DPTR,#GenericApp_epDesc
   \   00002A   7414         MOV     A,#0x14
   \   00002C   F0           MOVX    @DPTR,A
    901            GenericApp_epDesc.task_id = &GenericApp_TaskID;
   \   00002D   A3           INC     DPTR
   \   00002E   74..         MOV     A,#GenericApp_TaskID & 0xff
   \   000030   F0           MOVX    @DPTR,A
   \   000031   A3           INC     DPTR
   \   000032   74..         MOV     A,#(GenericApp_TaskID >> 8) & 0xff
   \   000034   F0           MOVX    @DPTR,A
    902            GenericApp_epDesc.simpleDesc
    903                      = (SimpleDescriptionFormat_t *)&GenericApp_SimpleDesc;
   \   000035   A3           INC     DPTR
   \   000036   74..         MOV     A,#GenericApp_SimpleDesc & 0xff
   \   000038   F0           MOVX    @DPTR,A
   \   000039   A3           INC     DPTR
   \   00003A   74..         MOV     A,#(GenericApp_SimpleDesc >> 8) & 0xff
   \   00003C   F0           MOVX    @DPTR,A
    904            GenericApp_epDesc.latencyReq = noLatencyReqs;
   \   00003D   A3           INC     DPTR
   \   00003E   E4           CLR     A
   \   00003F   F0           MOVX    @DPTR,A
    905          
    906            // Register the endpoint description with the AF
    907            afRegister( &GenericApp_epDesc );
   \   000040                ; Setup parameters for call to function afRegister
   \   000040   7A..         MOV     R2,#GenericApp_epDesc & 0xff
   \   000042   7B..         MOV     R3,#(GenericApp_epDesc >> 8) & 0xff
   \   000044   12....       LCALL   ??afRegister?relay
    908          
    909          
    910            RegisterForKeys( GenericApp_TaskID );
   \   000047                ; Setup parameters for call to function RegisterForKeys
   \   000047   90....       MOV     DPTR,#GenericApp_TaskID
   \   00004A   E0           MOVX    A,@DPTR
   \   00004B   F9           MOV     R1,A
   \   00004C   12....       LCALL   ??RegisterForKeys?relay
    911          
    912            // Update the display
    913          #if defined ( LCD_SUPPORTED )
    914            HalLcdWriteString( "GenericApp", HAL_LCD_LINE_1 );
   \   00004F                ; Setup parameters for call to function HalLcdWriteString
   \   00004F   7901         MOV     R1,#0x1
   \   000051   7A..         MOV     R2,#`?<Constant "GenericApp">` & 0xff
   \   000053   7B..         MOV     R3,#(`?<Constant "GenericApp">` >> 8) & 0xff
   \   000055   12....       LCALL   ??HalLcdWriteString?relay
    915          #endif
    916          
    917          #if !defined( ZDO_COORDINATOR )
    918            ZDO_RegisterForZDOMsg( GenericApp_TaskID, End_Device_Bind_rsp );
    919            ZDO_RegisterForZDOMsg( GenericApp_TaskID, Match_Desc_rsp );
    920            
    921          #endif
    922          
    923          
    924          #if defined( IAR_ARMCM3_LM )
    925          
    926            RTOS_RegisterApp( task_id, GENERICAPP_RTOS_MSG_EVT );
    927          #endif
    928            
    929          #if defined ( BUILD_ALL_DEVICES )
    930            size = osal_nv_item_len( ZCD_NV_LOGICAL_TYPE );
   \   000058                ; Setup parameters for call to function osal_nv_item_len
   \   000058   7A87         MOV     R2,#-0x79
   \   00005A   7B00         MOV     R3,#0x0
   \   00005C   12....       LCALL   ??osal_nv_item_len?relay
   \   00005F   8A..         MOV     ?V0 + 0,R2
   \   000061   8B..         MOV     ?V0 + 1,R3
   \   000063   A8..         MOV     R0,?V0 + 0
   \   000065   A9..         MOV     R1,?V0 + 1
    931            if( size  <= sizeof(zgDeviceLogicalType) && size != 0 )
   \   000067   C3           CLR     C
   \   000068   E8           MOV     A,R0
   \   000069   9402         SUBB    A,#0x2
   \   00006B   E9           MOV     A,R1
   \   00006C   9400         SUBB    A,#0x0
   \   00006E   500F         JNC     ??GenericApp_Init_0
   \   000070   E8           MOV     A,R0
   \   000071   49           ORL     A,R1
   \   000072   600B         JZ      ??GenericApp_Init_0
    932            {
    933              cb_ReadConfiguration( ZCD_NV_LOGICAL_TYPE, sizeof(zgDeviceLogicalType), &zgDeviceLogicalType);
   \   000074                ; Setup parameters for call to function cb_ReadConfiguration
   \   000074   7C..         MOV     R4,#zgDeviceLogicalType & 0xff
   \   000076   7D..         MOV     R5,#(zgDeviceLogicalType >> 8) & 0xff
   \   000078   7A01         MOV     R2,#0x1
   \   00007A   7987         MOV     R1,#-0x79
   \   00007C   12....       LCALL   ??cb_ReadConfiguration?relay
    934            }
    935            
    936          #endif
    937          
    938          #if defined ( HOLD_AUTO_START )
    939              // HOLD_AUTO_START is a compile option that will surpress ZDApp
    940              //  from starting the device and wait for the application to
    941              //  start the device.
    942            
    943            if(zgDeviceLogicalType == ZG_DEVICETYPE_COORDINATOR)
   \                     ??GenericApp_Init_0:
   \   00007F   90....       MOV     DPTR,#zgDeviceLogicalType
   \   000082   E0           MOVX    A,@DPTR
   \   000083   7007         JNZ     ??GenericApp_Init_1
    944              uprint("Coord0\n");
   \   000085                ; Setup parameters for call to function uprint
   \   000085   7A..         MOV     R2,#`?<Constant "Coord0\\n">` & 0xff
   \   000087   7B..         MOV     R3,#(`?<Constant "Coord0\\n">` >> 8) & 0xff
   \   000089   12....       LCALL   ??uprint?relay
    945            if(zgDeviceLogicalType == ZG_DEVICETYPE_ROUTER)
   \                     ??GenericApp_Init_1:
   \   00008C   90....       MOV     DPTR,#zgDeviceLogicalType
   \   00008F   E0           MOVX    A,@DPTR
   \   000090   6401         XRL     A,#0x1
   \   000092   7007         JNZ     ??GenericApp_Init_2
    946              uprint("Router0\n");
   \   000094                ; Setup parameters for call to function uprint
   \   000094   7A..         MOV     R2,#`?<Constant "Router0\\n">` & 0xff
   \   000096   7B..         MOV     R3,#(`?<Constant "Router0\\n">` >> 8) & 0xff
   \   000098   12....       LCALL   ??uprint?relay
    947            
    948            ZDOInitDevice(0);
   \                     ??GenericApp_Init_2:
   \   00009B                ; Setup parameters for call to function ZDOInitDevice
   \   00009B   7A00         MOV     R2,#0x0
   \   00009D   7B00         MOV     R3,#0x0
   \   00009F   12....       LCALL   ??ZDOInitDevice?relay
    949            
    950            if(zgDeviceLogicalType == ZG_DEVICETYPE_COORDINATOR)
   \   0000A2   90....       MOV     DPTR,#zgDeviceLogicalType
   \   0000A5   E0           MOVX    A,@DPTR
   \   0000A6   7007         JNZ     ??GenericApp_Init_3
    951              uprint("Coord\n");
   \   0000A8                ; Setup parameters for call to function uprint
   \   0000A8   7A..         MOV     R2,#`?<Constant "Coord\\n">` & 0xff
   \   0000AA   7B..         MOV     R3,#(`?<Constant "Coord\\n">` >> 8) & 0xff
   \   0000AC   12....       LCALL   ??uprint?relay
    952            if(zgDeviceLogicalType == ZG_DEVICETYPE_ROUTER)
   \                     ??GenericApp_Init_3:
   \   0000AF   90....       MOV     DPTR,#zgDeviceLogicalType
   \   0000B2   E0           MOVX    A,@DPTR
   \   0000B3   6401         XRL     A,#0x1
   \   0000B5   7007         JNZ     ??GenericApp_Init_4
    953              uprint("Router\n");
   \   0000B7                ; Setup parameters for call to function uprint
   \   0000B7   7A..         MOV     R2,#`?<Constant "Router\\n">` & 0xff
   \   0000B9   7B..         MOV     R3,#(`?<Constant "Router\\n">` >> 8) & 0xff
   \   0000BB   12....       LCALL   ??uprint?relay
    954          
    955            
    956          #endif   
    957            
    958            io_init();
   \                     ??GenericApp_Init_4:
   \   0000BE                ; Setup parameters for call to function io_init
   \   0000BE   12....       LCALL   ??io_init?relay
    959            
    960            serial_init( );
   \   0000C1                ; Setup parameters for call to function serial_init
   \   0000C1   12....       LCALL   ??serial_init?relay
    961          
    962            
    963          //  HalLedSet( HAL_LED_2, HAL_LED_MODE_ON );
    964          //  HalLedSet( HAL_LED_1, HAL_LED_MODE_ON );
    965          //  NLME_PermitJoiningRequest(0xFE);
    966          
    967          
    968            
    969          }
   \   0000C4   02....       LJMP    ??Subroutine34_0 & 0xFFFF
    970          

   \                                 In  segment BANKED_CODE, align 1, keep-with-next
    971          uint16 GenericApp_ProcessEvent( uint8 task_id, uint16 events )
   \                     GenericApp_ProcessEvent:
    972          {
   \   000000   74F4         MOV     A,#-0xc
   \   000002   12....       LCALL   ?BANKED_ENTER_XDATA
   \   000005                ; Saved register size: 12
   \   000005                ; Auto size: 0
   \   000005   8A..         MOV     ?V0 + 0,R2
   \   000007   8B..         MOV     ?V0 + 1,R3
    973            afIncomingMSGPacket_t *MSGpkt;
    974            afDataConfirm_t *afDataConfirm;
    975          
    976            // Data Confirmation message fields
    977            byte sentEP;
    978            ZStatus_t sentStatus;
    979            byte sentTransID;       // This should match the value sent
    980            (void)task_id;  // Intentionally unreferenced parameter
    981          
    982            if ( events & SYS_EVENT_MSG )
   \   000009   EB           MOV     A,R3
   \   00000A   5480         ANL     A,#0x80
   \   00000C   7003         JNZ     $+5
   \   00000E   02....       LJMP    ??GenericApp_ProcessEvent_0 & 0xFFFF
    983            {
    984              MSGpkt = (afIncomingMSGPacket_t *)osal_msg_receive( GenericApp_TaskID );
   \   000011                ; Setup parameters for call to function osal_msg_receive
   \   000011   800D         SJMP    ??GenericApp_ProcessEvent_1
    985              while ( MSGpkt )
    986              {
    987                switch ( MSGpkt->hdr.event )
    988                {
    989                  case ZDO_CB_MSG:
    990                    GenericApp_ProcessZDOMsgs( (zdoIncomingMsg_t *)MSGpkt );
    991                    break;
    992          
    993                  case KEY_CHANGE:
    994                    {
    995                     // HalLedSet ( HAL_LED_1, HAL_LED_MODE_BLINK );
    996                     // UART_Send_String("KEY_CHANGE", 10);
    997                      GenericApp_HandleKeys( ((keyChange_t *)MSGpkt)->state, ((keyChange_t *)MSGpkt)->keys );
    998                    }
    999                    break;
   1000          
   1001                  case AF_DATA_CONFIRM_CMD:
   1002                    // This message is received as a confirmation of a data packet sent.
   1003                    // The status is of ZStatus_t type [defined in ZComDef.h]
   1004                    // The message fields are defined in AF.h
   1005                    afDataConfirm = (afDataConfirm_t *)MSGpkt;
   1006                    sentEP = afDataConfirm->endpoint;
   1007                    sentStatus = afDataConfirm->hdr.status;
   1008                    sentTransID = afDataConfirm->transID;
   1009                    (void)sentEP;
   1010                    (void)sentTransID;
   1011          
   1012                    // Action taken when confirmation is received.
   1013                    if ( sentStatus != ZSuccess )
   1014                    {
   1015                      // The data wasn't delivered -- Do something
   1016                      uprint("AF_DATA_CONFIRM_CMD ERR");
   1017                      
   1018                    }
   1019                    break;
   1020                            
   1021                  case AF_INCOMING_MSG_CMD:
   1022                    
   1023                    
   1024                    GenericApp_MessageMSGCB( MSGpkt );
   1025                    break;
   1026          
   1027                  case ZDO_STATE_CHANGE:
   1028                    GenericApp_NwkState = (devStates_t)(MSGpkt->hdr.status);
   \                     ??GenericApp_ProcessEvent_2:
   \   000013   A3           INC     DPTR
   \   000014   E0           MOVX    A,@DPTR
   \   000015   90....       MOV     DPTR,#GenericApp_NwkState
   \   000018   F0           MOVX    @DPTR,A
   1029                    if ( (GenericApp_NwkState == DEV_ZB_COORD)
   1030                        || (GenericApp_NwkState == DEV_ROUTER)
   1031                        || (GenericApp_NwkState == DEV_END_DEVICE) )
   1032                    {
   1033          /*
   1034                      osal_start_timerEx( GenericApp_TaskID,
   1035                                          GENERICAPP_SEND_MSG_EVT,
   1036                                          GENERICAPP_SEND_MSG_TIMEOUT );
   1037          */
   1038                    }
   1039                    
   1040                    break;
   1041          
   1042                  default:
   1043                    break;
   1044                }
   1045          
   1046                // Release the memory
   1047                osal_msg_deallocate( (uint8 *)MSGpkt );
   \                     ??GenericApp_ProcessEvent_3:
   \   000019                ; Setup parameters for call to function osal_msg_deallocate
   \   000019   EE           MOV     A,R6
   \   00001A   FA           MOV     R2,A
   \   00001B   EF           MOV     A,R7
   \   00001C   FB           MOV     R3,A
   \   00001D   12....       LCALL   ??osal_msg_deallocate?relay
   1048          
   1049                // Next
   1050                MSGpkt = (afIncomingMSGPacket_t *)osal_msg_receive( GenericApp_TaskID );
   \   000020                ; Setup parameters for call to function osal_msg_receive
   \                     ??GenericApp_ProcessEvent_1:
   \   000020   90....       MOV     DPTR,#GenericApp_TaskID
   \   000023   E0           MOVX    A,@DPTR
   \   000024   F9           MOV     R1,A
   \   000025   12....       LCALL   ??osal_msg_receive?relay
   \   000028   8A..         MOV     ?V0 + 2,R2
   \   00002A   8B..         MOV     ?V0 + 3,R3
   \   00002C   AE..         MOV     R6,?V0 + 2
   \   00002E   AF..         MOV     R7,?V0 + 3
   \   000030   EE           MOV     A,R6
   \   000031   4F           ORL     A,R7
   \   000032   7003         JNZ     $+5
   \   000034   02....       LJMP    ??GenericApp_ProcessEvent_4 & 0xFFFF
   \   000037   8E82         MOV     DPL,R6
   \   000039   8F83         MOV     DPH,R7
   \   00003B   E0           MOVX    A,@DPTR
   \   00003C   24E6         ADD     A,#-0x1a
   \   00003E   7003         JNZ     $+5
   \   000040   02....       LJMP    ??GenericApp_ProcessEvent_5 & 0xFFFF
   \   000043   245A         ADD     A,#0x5a
   \   000045   7003         JNZ     $+5
   \   000047   02....       LJMP    ??GenericApp_ProcessEvent_6 & 0xFFFF
   \   00004A   24EF         ADD     A,#-0x11
   \   00004C   60C5         JZ      ??GenericApp_ProcessEvent_2
   \   00004E   24FE         ADD     A,#-0x2
   \   000050   6009         JZ      ??GenericApp_ProcessEvent_7
   \   000052   24D6         ADD     A,#-0x2a
   \   000054   7003         JNZ     $+5
   \   000056   02....       LJMP    ??GenericApp_ProcessEvent_8 & 0xFFFF
   \   000059   80BE         SJMP    ??GenericApp_ProcessEvent_3
   \                     ??GenericApp_ProcessEvent_7:
   \   00005B   EE           MOV     A,R6
   \   00005C   240C         ADD     A,#0xc
   \   00005E   12....       LCALL   ??Subroutine35_0 & 0xFFFF
   \                     ??CrossCallReturnLabel_78:
   \   000061   F5..         MOV     ?V0 + 2,A
   \   000063   A3           INC     DPTR
   \   000064   E0           MOVX    A,@DPTR
   \   000065   F5..         MOV     ?V0 + 3,A
   \   000067   78..         MOV     R0,#?V0 + 2
   \   000069   12....       LCALL   ?US_SWITCH_SPARSE
   \                     `?<Jumptable for GenericApp_ProcessEvent>_0`:
   \   00006C   0000         DW        0
   \   00006E   0200         DW        2
   \   000070   0680         DW        32774
   \   000072   ....         DW        ??GenericApp_ProcessEvent_9
   \   000074   2080         DW        32800
   \   000076   ....         DW        ??GenericApp_ProcessEvent_10
   \   000078   ....         DW        ??GenericApp_ProcessEvent_11
   \                     ??GenericApp_ProcessEvent_9:
   \   00007A                ; Setup parameters for call to function uprint
   \   00007A   7A..         MOV     R2,#`?<Constant "Match_Desc_rsp">` & 0xff
   \   00007C   7B..         MOV     R3,#(`?<Constant "Match_Desc_rsp">` >> 8) & 0xff
   \   00007E   12....       LCALL   ??uprint?relay
   \   000081                ; Setup parameters for call to function ZDO_ParseEPListRsp
   \   000081   EE           MOV     A,R6
   \   000082   FA           MOV     R2,A
   \   000083   EF           MOV     A,R7
   \   000084   FB           MOV     R3,A
   \   000085   12....       LCALL   ??ZDO_ParseEPListRsp?relay
   \   000088   EA           MOV     A,R2
   \   000089   4B           ORL     A,R3
   \   00008A   608D         JZ      ??GenericApp_ProcessEvent_3
   \   00008C   8A82         MOV     DPL,R2
   \   00008E   8B83         MOV     DPH,R3
   \   000090   E0           MOVX    A,@DPTR
   \   000091   702B         JNZ     ??GenericApp_ProcessEvent_12
   \   000093   A3           INC     DPTR
   \   000094   A3           INC     DPTR
   \   000095   A3           INC     DPTR
   \   000096   E0           MOVX    A,@DPTR
   \   000097   6025         JZ      ??GenericApp_ProcessEvent_12
   \   000099   90....       MOV     DPTR,#GenericApp_DstAddr + 8
   \   00009C   7402         MOV     A,#0x2
   \   00009E   F0           MOVX    @DPTR,A
   \   00009F   8A82         MOV     DPL,R2
   \   0000A1   8B83         MOV     DPH,R3
   \   0000A3   A3           INC     DPTR
   \   0000A4   E0           MOVX    A,@DPTR
   \   0000A5   F8           MOV     R0,A
   \   0000A6   A3           INC     DPTR
   \   0000A7   E0           MOVX    A,@DPTR
   \   0000A8   F9           MOV     R1,A
   \   0000A9   90....       MOV     DPTR,#GenericApp_DstAddr
   \   0000AC   E8           MOV     A,R0
   \   0000AD   F0           MOVX    @DPTR,A
   \   0000AE   A3           INC     DPTR
   \   0000AF   E9           MOV     A,R1
   \   0000B0   F0           MOVX    @DPTR,A
   \   0000B1   8A82         MOV     DPL,R2
   \   0000B3   8B83         MOV     DPH,R3
   \   0000B5   A3           INC     DPTR
   \   0000B6   A3           INC     DPTR
   \   0000B7   A3           INC     DPTR
   \   0000B8   A3           INC     DPTR
   \   0000B9   E0           MOVX    A,@DPTR
   \   0000BA   90....       MOV     DPTR,#GenericApp_DstAddr + 9
   \   0000BD   F0           MOVX    @DPTR,A
   \                     ??GenericApp_ProcessEvent_12:
   \   0000BE                ; Setup parameters for call to function osal_mem_free
   \   0000BE   12....       LCALL   ??osal_mem_free?relay
   \   0000C1   02....       LJMP    ??GenericApp_ProcessEvent_3 & 0xFFFF
   \                     ??GenericApp_ProcessEvent_10:
   \   0000C4                ; Setup parameters for call to function uprint
   \   0000C4   7A..         MOV     R2,#`?<Constant "End_Device_Bind_rsp">` & 0xff
   \   0000C6   7B..         MOV     R3,#(`?<Constant "End_Device_Bind_rsp">` >> 8) & 0xff
   \   0000C8   12....       LCALL   ??uprint?relay
   \   0000CB   EE           MOV     A,R6
   \   0000CC   2413         ADD     A,#0x13
   \   0000CE   12....       LCALL   ??Subroutine36_0 & 0xFFFF
   \                     ??CrossCallReturnLabel_86:
   \   0000D1   6003         JZ      $+5
   \   0000D3   02....       LJMP    ??GenericApp_ProcessEvent_3 & 0xFFFF
   \   0000D6                ; Setup parameters for call to function HalLedSet
   \   0000D6   7A01         MOV     R2,#0x1
   \   0000D8   7902         MOV     R1,#0x2
   \   0000DA   12....       LCALL   ??HalLedSet?relay
   \   0000DD   02....       LJMP    ??GenericApp_ProcessEvent_3 & 0xFFFF
   \                     ??GenericApp_ProcessEvent_11:
   \   0000E0                ; Setup parameters for call to function uprint
   \   0000E0   7A..         MOV     R2,#`?<Constant "GenericApp_ProcessZDO...">` & 0xff
   \   0000E2   7B..         MOV     R3,#(`?<Constant "GenericApp_ProcessZDO...">` >> 8) & 0xff
   \                     ??GenericApp_ProcessEvent_13:
   \   0000E4   12....       LCALL   ??uprint?relay
   \   0000E7   02....       LJMP    ??GenericApp_ProcessEvent_3 & 0xFFFF
   \                     ??GenericApp_ProcessEvent_6:
   \   0000EA   A3           INC     DPTR
   \   0000EB   A3           INC     DPTR
   \   0000EC   A3           INC     DPTR
   \   0000ED   E0           MOVX    A,@DPTR
   \   0000EE   F5..         MOV     ?V0 + 2,A
   \   0000F0   A2E0         MOV     C,0xE0 /* A   */.0
   \   0000F2   5007         JNC     ??GenericApp_ProcessEvent_14
   \   0000F4                ; Setup parameters for call to function uprint
   \   0000F4   7A..         MOV     R2,#`?<Constant "key1">` & 0xff
   \   0000F6   7B..         MOV     R3,#(`?<Constant "key1">` >> 8) & 0xff
   \   0000F8   12....       LCALL   ??uprint?relay
   \                     ??GenericApp_ProcessEvent_14:
   \   0000FB   E5..         MOV     A,?V0 + 2
   \   0000FD   A2E1         MOV     C,0xE0 /* A   */.1
   \   0000FF   5007         JNC     ??GenericApp_ProcessEvent_15
   \   000101                ; Setup parameters for call to function uprint
   \   000101   7A..         MOV     R2,#`?<Constant "key2">` & 0xff
   \   000103   7B..         MOV     R3,#(`?<Constant "key2">` >> 8) & 0xff
   \   000105   12....       LCALL   ??uprint?relay
   \                     ??GenericApp_ProcessEvent_15:
   \   000108   E5..         MOV     A,?V0 + 2
   \   00010A   A2E4         MOV     C,0xE0 /* A   */.4
   \   00010C   5007         JNC     ??GenericApp_ProcessEvent_16
   \   00010E                ; Setup parameters for call to function uprint
   \   00010E   7A..         MOV     R2,#`?<Constant "key3">` & 0xff
   \   000110   7B..         MOV     R3,#(`?<Constant "key3">` >> 8) & 0xff
   \   000112   12....       LCALL   ??uprint?relay
   \                     ??GenericApp_ProcessEvent_16:
   \   000115   E5..         MOV     A,?V0 + 2
   \   000117   A2E3         MOV     C,0xE0 /* A   */.3
   \   000119   5007         JNC     ??GenericApp_ProcessEvent_17
   \   00011B                ; Setup parameters for call to function uprint
   \   00011B   7A..         MOV     R2,#`?<Constant "key4">` & 0xff
   \   00011D   7B..         MOV     R3,#(`?<Constant "key4">` >> 8) & 0xff
   \   00011F   12....       LCALL   ??uprint?relay
   \                     ??GenericApp_ProcessEvent_17:
   \   000122   E5..         MOV     A,?V0 + 2
   \   000124   A2E2         MOV     C,0xE0 /* A   */.2
   \   000126   5007         JNC     ??GenericApp_ProcessEvent_18
   \   000128                ; Setup parameters for call to function uprint
   \   000128   7A..         MOV     R2,#`?<Constant "key5">` & 0xff
   \   00012A   7B..         MOV     R3,#(`?<Constant "key5">` >> 8) & 0xff
   \   00012C   12....       LCALL   ??uprint?relay
   \                     ??GenericApp_ProcessEvent_18:
   \   00012F   E5..         MOV     A,?V0 + 2
   \   000131   A2E5         MOV     C,0xE0 /* A   */.5
   \   000133   5007         JNC     ??GenericApp_ProcessEvent_19
   \   000135                ; Setup parameters for call to function uprint
   \   000135   7A..         MOV     R2,#`?<Constant "key6">` & 0xff
   \   000137   7B..         MOV     R3,#(`?<Constant "key6">` >> 8) & 0xff
   \   000139   12....       LCALL   ??uprint?relay
   \                     ??GenericApp_ProcessEvent_19:
   \   00013C   E5..         MOV     A,?V0 + 2
   \   00013E   A2E6         MOV     C,0xE0 /* A   */.6
   \   000140   4003         JC      $+5
   \   000142   02....       LJMP    ??GenericApp_ProcessEvent_3 & 0xFFFF
   \   000145                ; Setup parameters for call to function uprint
   \   000145   7A..         MOV     R2,#`?<Constant "key7">` & 0xff
   \   000147   7B..         MOV     R3,#(`?<Constant "key7">` >> 8) & 0xff
   \   000149   8099         SJMP    ??GenericApp_ProcessEvent_13
   \                     ??GenericApp_ProcessEvent_8:
   \   00014B   A3           INC     DPTR
   \   00014C   E0           MOVX    A,@DPTR
   \   00014D   7003         JNZ     $+5
   \   00014F   02....       LJMP    ??GenericApp_ProcessEvent_3 & 0xFFFF
   \   000152                ; Setup parameters for call to function uprint
   \   000152   7A..         MOV     R2,#`?<Constant "AF_DATA_CONFIRM_CMD ERR">` & 0xff
   \   000154   7B..         MOV     R3,#(`?<Constant "AF_DATA_CONFIRM_CMD ERR">` >> 8) & 0xff
   \   000156   808C         SJMP    ??GenericApp_ProcessEvent_13
   \                     ??GenericApp_ProcessEvent_5:
   \   000158                ; Setup parameters for call to function GenericApp_MessageMSGCB
   \   000158   EE           MOV     A,R6
   \   000159   FA           MOV     R2,A
   \   00015A   EF           MOV     A,R7
   \   00015B   FB           MOV     R3,A
   \   00015C   12....       LCALL   ??GenericApp_MessageMSGCB?relay
   \   00015F   02....       LJMP    ??GenericApp_ProcessEvent_3 & 0xFFFF
   1051              }
   1052          
   1053              // return unprocessed events
   1054              return (events ^ SYS_EVENT_MSG);
   \                     ??GenericApp_ProcessEvent_4:
   \   000162   AA..         MOV     R2,?V0 + 0
   \   000164   E5..         MOV     A,?V0 + 1
   \   000166   6480         XRL     A,#0x80
   \   000168   FB           MOV     R3,A
   \   000169   8004         SJMP    ??GenericApp_ProcessEvent_20
   1055            }
   1056          
   1057            // Send a message out - This event is generated by a timer
   1058            //  (setup in GenericApp_Init()).
   1059          
   1060          
   1061            
   1062          #if defined( IAR_ARMCM3_LM )
   1063            // Receive a message from the RTOS queue
   1064            if ( events & GENERICAPP_RTOS_MSG_EVT )
   1065            {
   1066              // Process message from RTOS queue
   1067              GenericApp_ProcessRtosMessage();
   1068          
   1069              // return unprocessed events
   1070              return (events ^ GENERICAPP_RTOS_MSG_EVT);
   1071            }
   1072          #endif
   1073          
   1074            // Discard unknown events
   1075            return 0;
   \                     ??GenericApp_ProcessEvent_0:
   \   00016B   7A00         MOV     R2,#0x0
   \   00016D   7B00         MOV     R3,#0x0
   \                     ??GenericApp_ProcessEvent_20:
   \   00016F   02....       LJMP    ?Subroutine3 & 0xFFFF
   1076          }

   \                                 In  segment BANKED_CODE, align 1, keep-with-next
   \                     ??Subroutine35_0:
   \   000000   F582         MOV     DPL,A
   \   000002   EF           MOV     A,R7
   \   000003   3400         ADDC    A,#0x0
   \   000005   F583         MOV     DPH,A
   \   000007   E0           MOVX    A,@DPTR
   \   000008   22           RET

   \                                 In  segment BANKED_CODE, align 1, keep-with-next
   \                     ??Subroutine36_0:
   \   000000   F582         MOV     DPL,A
   \   000002   EF           MOV     A,R7
   \   000003   3400         ADDC    A,#0x0
   \   000005   F583         MOV     DPH,A
   \   000007   E0           MOVX    A,@DPTR
   \   000008   F8           MOV     R0,A
   \   000009   A3           INC     DPTR
   \   00000A   E0           MOVX    A,@DPTR
   \   00000B   F583         MOV     DPH,A
   \   00000D   8882         MOV     DPL,R0
   \   00000F   E0           MOVX    A,@DPTR
   \   000010   22           RET
   1077          
   1078          
   1079          static void GenericApp_ProcessZDOMsgs( zdoIncomingMsg_t *inMsg )
   1080          {
   1081            
   1082            
   1083            switch ( inMsg->clusterID )
   1084            {
   1085              case End_Device_Bind_rsp:
   1086                uprint("End_Device_Bind_rsp");
   1087                if ( ZDO_ParseBindRsp( inMsg ) == ZSuccess )
   1088                {
   1089                  // Light LED
   1090                  HalLedSet( HAL_LED_2, HAL_LED_MODE_ON );
   1091                }
   1092          #if defined( BLINK_LEDS )
   1093                else
   1094                {
   1095                  // Flash LED to show failure
   1096                  //HalLedSet ( HAL_LED_1, HAL_LED_MODE_FLASH );
   1097                }
   1098          #endif
   1099                break;
   1100          
   1101              case Match_Desc_rsp:
   1102                {
   1103                  uprint("Match_Desc_rsp");
   1104                  
   1105                  ZDO_ActiveEndpointRsp_t *pRsp = ZDO_ParseEPListRsp( inMsg );
   1106                  if ( pRsp )
   1107                  {
   1108                    if ( pRsp->status == ZSuccess && pRsp->cnt )
   1109                    {
   1110                      GenericApp_DstAddr.addrMode = (afAddrMode_t)Addr16Bit;
   1111                      GenericApp_DstAddr.addr.shortAddr = pRsp->nwkAddr;
   1112                      // Take the first endpoint, Can be changed to search through endpoints
   1113                      GenericApp_DstAddr.endPoint = pRsp->epList[0];
   1114          
   1115                      // Light LED
   1116                      //HalLedSet( HAL_LED_1, HAL_LED_MODE_ON );
   1117                    }
   1118                    osal_mem_free( pRsp );
   1119                  }
   1120                }
   1121                break;
   1122            default:
   1123                uprint("GenericApp_ProcessZDOMsgs");
   1124                break;
   1125            }
   1126          }
   1127          
   1128          /*********************************************************************
   1129           * @fn      GenericApp_HandleKeys
   1130           *
   1131           * @brief   Handles all key events for this device.
   1132           *
   1133           * @param   shift - true if in shift/alt.
   1134           * @param   keys - bit field for key events. Valid entries:
   1135           *                 HAL_KEY_SW_4
   1136           *                 HAL_KEY_SW_3
   1137           *                 HAL_KEY_SW_2
   1138           *                 HAL_KEY_SW_1
   1139           *
   1140           * @return  none
   1141           */
   1142          static void GenericApp_HandleKeys( uint8 shift, uint8 keys )
   1143          {
   1144          
   1145          
   1146            // Shift is used to make each button/switch dual purpose.
   1147            ///UART_Send_String( (byte*)keys, 1);
   1148          
   1149              if ( keys & HAL_KEY_SW_1 )
   1150              {
   1151                 uprint("key1");
   1152              }
   1153              if ( keys & HAL_KEY_SW_2 )
   1154              {
   1155                uprint("key2");
   1156              }
   1157              if ( keys & HAL_KEY_SW_3 )
   1158              {
   1159                uprint("key3");
   1160              }
   1161              if ( keys & HAL_KEY_SW_4 )
   1162              {
   1163                uprint("key4");
   1164              }
   1165              
   1166              if ( keys & HAL_KEY_SW_5 )
   1167              {
   1168                uprint("key5");
   1169              }
   1170          
   1171              if ( keys & HAL_KEY_SW_6 )
   1172              {
   1173                uprint("key6");
   1174              }
   1175              
   1176              if ( keys & HAL_KEY_SW_7 )
   1177              {
   1178                uprint("key7");
   1179              }
   1180             
   1181          /*  
   1182            if ( shift )
   1183            {
   1184           
   1185              if ( keys & HAL_KEY_SW_1 )
   1186              {
   1187                 uprint("key1");
   1188              }
   1189              if ( keys & HAL_KEY_SW_2 )
   1190              {
   1191                uprint("key2");
   1192              }
   1193              if ( keys & HAL_KEY_SW_3 )
   1194              {
   1195                uprint("key3");
   1196              }
   1197              if ( keys & HAL_KEY_SW_4 )
   1198              {
   1199                uprint("key4");
   1200              }
   1201              
   1202              if ( keys & HAL_KEY_SW_5 )
   1203              {
   1204                uprint("key5");
   1205              }
   1206          
   1207              if ( keys & HAL_KEY_SW_6 )
   1208             {
   1209                uprint("key6");
   1210             }
   1211             if ( keys & HAL_KEY_SW_7 )
   1212             {
   1213                uprint("key7");
   1214             }
   1215            }
   1216            else
   1217            {
   1218          
   1219              if ( keys & HAL_KEY_SW_2 )
   1220              {
   1221                uprint("key2 no s");
   1222                HalLedSet ( HAL_LED_1, HAL_LED_MODE_OFF );
   1223          
   1224                // Initiate an End Device Bind Request for the mandatory endpoint
   1225                dstAddr.addrMode = Addr16Bit;
   1226                dstAddr.addr.shortAddr = 0x0000; // Coordinator
   1227                ZDP_EndDeviceBindReq( &dstAddr, NLME_GetShortAddr(),
   1228                                      GenericApp_epDesc.endPoint,
   1229                                      GENERICAPP_PROFID,
   1230                                      GENERICAPP_MAX_CLUSTERS, (cId_t *)GenericApp_ClusterList,
   1231                                      GENERICAPP_MAX_CLUSTERS, (cId_t *)GenericApp_ClusterList,
   1232                                      FALSE );
   1233              }
   1234          
   1235              if ( keys & HAL_KEY_SW_1 )
   1236              {
   1237                uprint("key1 no s");
   1238              }
   1239              
   1240              if ( keys & HAL_KEY_SW_4 )
   1241             {
   1242                uprint("key4 no s");
   1243                HalLedSet ( HAL_LED_1, HAL_LED_MODE_OFF );
   1244                // Initiate a Match Description Request (Service Discovery)
   1245                dstAddr.addrMode = AddrBroadcast;
   1246                dstAddr.addr.shortAddr = NWK_BROADCAST_SHORTADDR;
   1247                ZDP_MatchDescReq( &dstAddr, NWK_BROADCAST_SHORTADDR,
   1248                                  GENERICAPP_PROFID,
   1249                                  GENERICAPP_MAX_CLUSTERS, (cId_t *)GenericApp_ClusterList,
   1250                                  GENERICAPP_MAX_CLUSTERS, (cId_t *)GenericApp_ClusterList,
   1251                                  FALSE );
   1252              }
   1253              
   1254              if ( keys & HAL_KEY_SW_6 )
   1255              {
   1256                uprint("key6 no s");
   1257                AF_DataRequest( &GenericApp_DstAddr, &GenericApp_epDesc,
   1258                                 GENERICAPP_CLUSTERID,
   1259                                 6,
   1260                                 "hello6",
   1261                                 &GenericApp_TransID,
   1262                                 AF_DISCV_ROUTE, AF_DEFAULT_RADIUS );         
   1263              }   
   1264          
   1265              if ( keys & HAL_KEY_SW_7 )
   1266              {
   1267                uprint("key7 no s");    
   1268              }
   1269            }
   1270          */
   1271            /*
   1272                HalLedSet ( HAL_LED_1, HAL_LED_MODE_FLASH );
   1273          
   1274                dstAddr.addrMode = AddrBroadcast;
   1275                dstAddr.addr.shortAddr = NWK_BROADCAST_SHORTADDR;
   1276                ZDP_MatchDescReq( &dstAddr, NWK_BROADCAST_SHORTADDR,
   1277                                  GENERICAPP_PROFID,
   1278                                  GENERICAPP_MAX_CLUSTERS, (cId_t *)GenericApp_ClusterList,
   1279                                  GENERICAPP_MAX_CLUSTERS, (cId_t *)GenericApp_ClusterList,
   1280                                  FALSE );
   1281              */  
   1282          
   1283          }
   1284          
   1285          /*********************************************************************
   1286           * LOCAL FUNCTIONS
   1287           */
   1288          
   1289          /*********************************************************************
   1290           * @fn      GenericApp_MessageMSGCB
   1291           *
   1292           * @brief   Data message processor callback.  This function processes
   1293           *          any incoming data - probably from other devices.  So, based
   1294           *          on cluster ID, perform the intended action.
   1295           *
   1296           * @param   none
   1297           *
   1298           * @return  none
   1299           */

   \                                 In  segment BANKED_CODE, align 1, keep-with-next
   1300          static void GenericApp_MessageMSGCB( afIncomingMSGPacket_t *pkt )
   \                     GenericApp_MessageMSGCB:
   1301          {
   \   000000   74F7         MOV     A,#-0x9
   \   000002   12....       LCALL   ?BANKED_ENTER_XDATA
   \   000005                ; Saved register size: 9
   \   000005                ; Auto size: 12
   \   000005   74F4         MOV     A,#-0xc
   \   000007   12....       LCALL   ?ALLOC_XSTACK8
   \   00000A   EA           MOV     A,R2
   \   00000B   FE           MOV     R6,A
   \   00000C   EB           MOV     A,R3
   \   00000D   FF           MOV     R7,A
   1302            unsigned char buff[12];
   1303          
   1304            byte nr;
                        ^
Warning[Pe177]: variable "nr" was declared but never referenced
   1305            uint8 i;
                         ^
Warning[Pe177]: variable "i" was declared but never referenced
   1306            uint8 ass_num;
                         ^
Warning[Pe550]: variable "ass_num" was set but never used
   1307            uint8*u8p;
   1308            
   1309            uint8 yy1;
                         ^
Warning[Pe550]: variable "yy1" was set but never used
   1310            
   1311            
   1312            afAddrType_t myaddr; // use for p2p
                                ^
Warning[Pe177]: variable "myaddr" was declared but never referenced
   1313            
   1314            ass_num = 0;
   1315            
   1316            switch ( pkt->clusterId )
   \   00000E   8E82         MOV     DPL,R6
   \   000010   8F83         MOV     DPH,R7
   \   000012   A3           INC     DPTR
   \   000013   A3           INC     DPTR
   \   000014   A3           INC     DPTR
   \   000015   A3           INC     DPTR
   \   000016   E0           MOVX    A,@DPTR
   \   000017   6401         XRL     A,#0x1
   \   000019   7002         JNZ     ??GenericApp_MessageMSGCB_0
   \   00001B   A3           INC     DPTR
   \   00001C   E0           MOVX    A,@DPTR
   \                     ??GenericApp_MessageMSGCB_0:
   \   00001D   6003         JZ      $+5
   \   00001F   02....       LJMP    ??GenericApp_MessageMSGCB_1 & 0xFFFF
   1317            {
   1318              case GENERICAPP_CLUSTERID:
   1319              if( pkt->cmd.DataLength == 1)
   \   000022   12....       LCALL   ?Subroutine11 & 0xFFFF
   \                     ??CrossCallReturnLabel_82:
   \   000025   6401         XRL     A,#0x1
   \   000027   7002         JNZ     ??GenericApp_MessageMSGCB_2
   \   000029   A3           INC     DPTR
   \   00002A   E0           MOVX    A,@DPTR
   \                     ??GenericApp_MessageMSGCB_2:
   \   00002B   7034         JNZ     ??CrossCallReturnLabel_31
   1320              {      
   1321                  yy1 = 1;
   1322                  if(pkt->cmd.Data[0] == 0x01) /// GET short address 
   \   00002D   12....       LCALL   ?Subroutine8 & 0xFFFF
   \                     ??CrossCallReturnLabel_87:
   \   000030   6401         XRL     A,#0x1
   \   000032   6003         JZ      $+5
   \   000034   02....       LJMP    ??CrossCallReturnLabel_32 & 0xFFFF
   1323                  {
   1324                    buff[0] = 0x02;
   \   000037   85..82       MOV     DPL,?XSP + 0
   \   00003A   85..83       MOV     DPH,?XSP + 1
   \   00003D   7402         MOV     A,#0x2
   \   00003F   F0           MOVX    @DPTR,A
   1325                    buff[1] = LO_UINT16(_NIB.nwkDevAddress);
   \   000040   90....       MOV     DPTR,#_NIB + 20
   \   000043   E0           MOVX    A,@DPTR
   \   000044   C0E0         PUSH    A
   \   000046   7401         MOV     A,#0x1
   \   000048   12....       LCALL   ?XSTACK_DISP0_8
   \   00004B   D0E0         POP     A
   \   00004D   F0           MOVX    @DPTR,A
   1326                    buff[2] = HI_UINT16(_NIB.nwkDevAddress);
   \   00004E   90....       MOV     DPTR,#_NIB + 21
   \   000051   E0           MOVX    A,@DPTR
   \   000052   C0E0         PUSH    A
   \   000054   7402         MOV     A,#0x2
   \   000056   12....       LCALL   ?XSTACK_DISP0_8
   \   000059   D0E0         POP     A
   \   00005B   F0           MOVX    @DPTR,A
   1327                    SendData( pkt->srcAddr.addr.shortAddr, buff, 3);
   \   00005C                ; Setup parameters for call to function SendData
   \   00005C   7903         MOV     R1,#0x3
   \   00005E   12....       LCALL   ?Subroutine16 & 0xFFFF
   1328                  }
   1329          #if !defined( ZDO_COORDINATOR ) 
   1330                  if(pkt->cmd.Data[0] == 0x03)
   1331                  {
   1332                    /// return mac address : ac xx xx ieee addr
   1333                         myaddr.addrMode = (afAddrMode_t)Addr16Bit;
   1334                         myaddr.endPoint = GENERICAPP_ENDPOINT;          
   1335                         myaddr.addr.shortAddr = 0x0000;
   1336                         
   1337                      ieeeAddr = NLME_GetExtAddr();
   1338                      osal_cpyExtAddr(buff+3, ieeeAddr);
   1339                      buff[0] = 0x04;
   1340                      buff[1] = LO_UINT16(_NIB.nwkDevAddress);
   1341                      buff[2] = HI_UINT16(_NIB.nwkDevAddress);
   1342                      AF_DataRequest( &myaddr, &GenericApp_epDesc, GENERICAPP_CLUSTERID,  11,
   1343                                    &buff[0],
   1344                                    &GenericApp_TransID,
   1345                                    AF_DISCV_ROUTE, AF_DEFAULT_RADIUS );
   1346                           
   1347                      
   1348                  }
   1349                  // only routers return devlist
   1350                  if( pkt->cmd.Data[0] == 0xCA )
   1351                  {
   1352                         myaddr.addrMode = (afAddrMode_t)Addr16Bit;
   1353                         myaddr.endPoint = GENERICAPP_ENDPOINT;          
   1354                         myaddr.addr.shortAddr = 0x0000;
   1355                    
   1356                  ass_num = AssocCount(0, 4);
   1357                //  if( ass_num > 0)
   1358                  //{
   1359                    for(i=0;i< NWK_MAX_DEVICES; i++)
   1360                    {
   1361                       nr = AssociatedDevList[ i ].nodeRelation;
   1362                        if(nr > 0 && nr < 5) //CHILD_RFD CHILD_RFD_RX_IDLE CHILD_FFD CHILD_FFD_RX_IDLE
   1363                       //if( nr != 0XFF)
   1364                       {
   1365                       //  if( AssociatedDevList[ i ].shortAddr != 0x0000)
   1366                       //  {
   1367                            //if( AssocIsChild( AssociatedDevList[ i ].shortAddr ) != 1 || AssociatedDevList[ i ].age > NWK_ROUTE_AGE_LIMIT)
   1368                            //if( AssocIsChild( AssociatedDevList[ i ].shortAddr ) == 1 && AssociatedDevList[ i ].age > NWK_ROUTE_AGE_LIMIT )
   1369                           // {
   1370                              //  myaddr.addr.shortAddr = AssociatedDevList[ i ].shortAddr;
   1371                                /*
   1372                                if ( AF_DataRequest( &myaddr, &GenericApp_epDesc, GENERICAPP_CLUSTERID,(byte)osal_strlen( theMessageData ) + 1,
   1373                                        (byte *)&theMessageData,
   1374                                        &GenericApp_TransID,
   1375                                        AF_ACK_REQUEST, AF_DEFAULT_RADIUS ) != afStatus_SUCCESS )
   1376                                  {
   1377                                    uprint("delete asso");
   1378                                  */
   1379                             //       delete_asso( AssociatedDevList[ i ]. addrIdx);
   1380                                    
   1381                            // }
   1382                              //    else
   1383                               //   {
   1384                                    devlist[yy1] = AssociatedDevList[ i ].shortAddr;
   1385                                    yy1++;
   1386                               //   }
   1387                            
   1388                            // }
   1389                       }
   1390                        else { break; }
   1391                    }
   1392                 // }else
   1393                  //{
   1394                    //devlist[yy1] = 0;
   1395                  //}
   1396                    devlist[0] = BUILD_UINT16(0xce,  ass_num );
   1397                    if ( AF_DataRequest( &myaddr, &GenericApp_epDesc, GENERICAPP_CLUSTERID, yy1*2,
   1398                                    (byte *)&devlist,
   1399                                    &GenericApp_TransID,
   1400                                    AF_DISCV_ROUTE, AF_DEFAULT_RADIUS ) != afStatus_SUCCESS )
   1401                    {
   1402                        uprint("send failed");
   1403                    }
   1404                  
   1405                    
   1406                    //cb_SendDataRequest( 0x0000, GENERICAPP_CLUSTERID, yy1*2+1, (uint8*)&devlist[0], 0, AF_DISCV_ROUTE, 0 );
   1407                    
   1408                    //UART_Send_String( (uint8*)&devlist[0], yy1*2);
   1409                    
   1410                      //p1 = AssocMakeList( &cnt );
   1411                      //UART_Send_String( (uint8*)p1,  AssocCount(1, 4)*2);
   1412                      //osal_mem_free(p1);
   1413                  }
   1414          #endif  
   1415                  
   1416              } //if( pkt->cmd.DataLength == 1)
   1417              
   1418              if( pkt->cmd.DataLength == 3)
   \                     ??CrossCallReturnLabel_31:
   \   000061   12....       LCALL   ?Subroutine11 & 0xFFFF
   \                     ??CrossCallReturnLabel_83:
   \   000064   6403         XRL     A,#0x3
   \   000066   7002         JNZ     ??GenericApp_MessageMSGCB_3
   \   000068   A3           INC     DPTR
   \   000069   E0           MOVX    A,@DPTR
   \                     ??GenericApp_MessageMSGCB_3:
   \   00006A   7065         JNZ     ??GenericApp_MessageMSGCB_4
   1419              { 
   1420                  //ed fa 01 ,turn on led 1
   1421                  //ed ff 01  turn off led 1
   1422                  if( pkt->cmd.Data[0] == 0xed  && pkt->cmd.Data[1] == 0xfa )
   \   00006C   12....       LCALL   ?Subroutine8 & 0xFFFF
   \                     ??CrossCallReturnLabel_88:
   \   00006F   64ED         XRL     A,#0xed
   \   000071   7017         JNZ     ??GenericApp_MessageMSGCB_5
   \   000073   12....       LCALL   ?Subroutine9 & 0xFFFF
   \                     ??CrossCallReturnLabel_16:
   \   000076   64FA         XRL     A,#0xfa
   \   000078   7010         JNZ     ??GenericApp_MessageMSGCB_5
   1423                  {
   1424                      switch(pkt->cmd.Data[2])
   \   00007A   12....       LCALL   ?Subroutine10 & 0xFFFF
   \                     ??CrossCallReturnLabel_20:
   \   00007D   6005         JZ      ??GenericApp_MessageMSGCB_6
   \   00007F   14           DEC     A
   \   000080   6006         JZ      ??GenericApp_MessageMSGCB_7
   \   000082   8006         SJMP    ??GenericApp_MessageMSGCB_5
   1425                      {
   1426                        case 0x01:
   1427                          LED1 = 1;
   \                     ??GenericApp_MessageMSGCB_6:
   \   000084   D290         SETB    0x90.0
   1428                          break;
   \   000086   8002         SJMP    ??GenericApp_MessageMSGCB_5
   1429                        case 0x02:
   1430                           LED2 = 1;
   \                     ??GenericApp_MessageMSGCB_7:
   \   000088   D291         SETB    0x90.1
   1431                          break;
   1432                        default:break;
   1433                      }
   1434                             
   1435                  }
   1436                  if( pkt->cmd.Data[0] == 0xed  && pkt->cmd.Data[1] == 0xff )
   \                     ??GenericApp_MessageMSGCB_5:
   \   00008A   12....       LCALL   ?Subroutine12 & 0xFFFF
   \                     ??CrossCallReturnLabel_23:
   \   00008D   7016         JNZ     ??GenericApp_MessageMSGCB_8
   \   00008F   12....       LCALL   ?Subroutine9 & 0xFFFF
   \                     ??CrossCallReturnLabel_17:
   \   000092   F4           CPL     A
   \   000093   7010         JNZ     ??GenericApp_MessageMSGCB_8
   1437                  {
   1438                      switch(pkt->cmd.Data[2])
   \   000095   12....       LCALL   ?Subroutine10 & 0xFFFF
   \                     ??CrossCallReturnLabel_21:
   \   000098   6005         JZ      ??GenericApp_MessageMSGCB_9
   \   00009A   14           DEC     A
   \   00009B   6006         JZ      ??GenericApp_MessageMSGCB_10
   \   00009D   8006         SJMP    ??GenericApp_MessageMSGCB_8
   1439                      {
   1440                        case 0x01:
   1441                          LED1 = 0;
   \                     ??GenericApp_MessageMSGCB_9:
   \   00009F   C290         CLR     0x90.0
   1442                          break;
   \   0000A1   8002         SJMP    ??GenericApp_MessageMSGCB_8
   1443                        case 0x02:
   1444                           LED2 = 0;
   \                     ??GenericApp_MessageMSGCB_10:
   \   0000A3   C291         CLR     0x90.1
   1445                          break;
   1446                        default:break;
   1447                      }          
   1448                  }
   1449                  if( pkt->cmd.Data[0] == 0xed  && pkt->cmd.Data[1] == 0xfc ) //
   \                     ??GenericApp_MessageMSGCB_8:
   \   0000A5   12....       LCALL   ?Subroutine12 & 0xFFFF
   \                     ??CrossCallReturnLabel_24:
   \   0000A8   7027         JNZ     ??GenericApp_MessageMSGCB_4
   \   0000AA   12....       LCALL   ?Subroutine9 & 0xFFFF
   \                     ??CrossCallReturnLabel_18:
   \   0000AD   64FC         XRL     A,#0xfc
   \   0000AF   7020         JNZ     ??GenericApp_MessageMSGCB_4
   1450                  {
   1451                      switch(pkt->cmd.Data[2])
   \   0000B1   12....       LCALL   ?Subroutine10 & 0xFFFF
   \                     ??CrossCallReturnLabel_22:
   \   0000B4   6005         JZ      ??GenericApp_MessageMSGCB_11
   \   0000B6   14           DEC     A
   \   0000B7   600E         JZ      ??GenericApp_MessageMSGCB_12
   \   0000B9   8016         SJMP    ??GenericApp_MessageMSGCB_4
   1452                      {
   1453                        case 0x01:
   1454                          LED1 = !LED1;
   \                     ??GenericApp_MessageMSGCB_11:
   \   0000BB   D2F0         SETB    B.0
   \   0000BD   A290         MOV     C,0x90.0
   \   0000BF   30F001       JNB     B.0,??GenericApp_MessageMSGCB_13
   \   0000C2   B3           CPL     C
   \                     ??GenericApp_MessageMSGCB_13:
   \   0000C3   9290         MOV     0x90.0,C
   1455                          break;
   \   0000C5   800A         SJMP    ??GenericApp_MessageMSGCB_4
   1456                        case 0x02:
   1457                           LED2 = !LED2;
   \                     ??GenericApp_MessageMSGCB_12:
   \   0000C7   D2F0         SETB    B.0
   \   0000C9   A291         MOV     C,0x90.1
   \   0000CB   30F001       JNB     B.0,??GenericApp_MessageMSGCB_14
   \   0000CE   B3           CPL     C
   \                     ??GenericApp_MessageMSGCB_14:
   \   0000CF   9291         MOV     0x90.1,C
   1458                          break;
   1459                        default:break;
   1460                      }          
   1461                  }
   1462                  
   1463              } // if( pkt->cmd.DataLength == 3)
   1464              if( pkt->cmd.DataLength == 4)
   \                     ??GenericApp_MessageMSGCB_4:
   \   0000D1   12....       LCALL   ?Subroutine11 & 0xFFFF
   \                     ??CrossCallReturnLabel_84:
   \   0000D4   6404         XRL     A,#0x4
   \   0000D6   7002         JNZ     ??GenericApp_MessageMSGCB_15
   \   0000D8   A3           INC     DPTR
   \   0000D9   E0           MOVX    A,@DPTR
   \                     ??GenericApp_MessageMSGCB_15:
   \   0000DA   6003         JZ      $+5
   \   0000DC   02....       LJMP    ??CrossCallReturnLabel_32 & 0xFFFF
   1465              {
   1466                if( pkt->cmd.Data[0] == 'p' && pkt->cmd.Data[1] =='i' && pkt->cmd.Data[2] == 'n' && pkt->cmd.Data[3] == 'g')
   \   0000DF   12....       LCALL   ?Subroutine8 & 0xFFFF
   \                     ??CrossCallReturnLabel_89:
   \   0000E2   6470         XRL     A,#0x70
   \   0000E4   707B         JNZ     ??CrossCallReturnLabel_32
   \   0000E6   12....       LCALL   ?Subroutine9 & 0xFFFF
   \                     ??CrossCallReturnLabel_19:
   \   0000E9   6469         XRL     A,#0x69
   \   0000EB   7074         JNZ     ??CrossCallReturnLabel_32
   \   0000ED   12....       LCALL   ?Subroutine13 & 0xFFFF
   \                     ??CrossCallReturnLabel_25:
   \   0000F0   E0           MOVX    A,@DPTR
   \   0000F1   646E         XRL     A,#0x6e
   \   0000F3   706C         JNZ     ??CrossCallReturnLabel_32
   \   0000F5   12....       LCALL   ?Subroutine13 & 0xFFFF
   \                     ??CrossCallReturnLabel_26:
   \   0000F8   A3           INC     DPTR
   \   0000F9   E0           MOVX    A,@DPTR
   \   0000FA   6467         XRL     A,#0x67
   \   0000FC   7063         JNZ     ??CrossCallReturnLabel_32
   1467                {
   1468                    buff[0] = pkt->LinkQuality;
   \   0000FE   EE           MOV     A,R6
   \   0000FF   2416         ADD     A,#0x16
   \   000101   12....       LCALL   ??Subroutine35_0 & 0xFFFF
   \                     ??CrossCallReturnLabel_79:
   \   000104   85..82       MOV     DPL,?XSP + 0
   \   000107   85..83       MOV     DPH,?XSP + 1
   \   00010A   F0           MOVX    @DPTR,A
   1469                    buff[1] = pkt->SecurityUse;
   \   00010B   EE           MOV     A,R6
   \   00010C   2419         ADD     A,#0x19
   \   00010E   12....       LCALL   ??Subroutine35_0 & 0xFFFF
   \                     ??CrossCallReturnLabel_80:
   \   000111   C0E0         PUSH    A
   \   000113   7401         MOV     A,#0x1
   \   000115   12....       LCALL   ?XSTACK_DISP0_8
   \   000118   D0E0         POP     A
   \   00011A   F0           MOVX    @DPTR,A
   1470                    u8p = (uint8*)&pkt->timestamp;
   \   00011B   EE           MOV     A,R6
   \   00011C   241A         ADD     A,#0x1a
   \   00011E   F8           MOV     R0,A
   \   00011F   EF           MOV     A,R7
   \   000120   3400         ADDC    A,#0x0
   \   000122   F9           MOV     R1,A
   1471                    
   1472                    buff[2] = u8p[0];
   \   000123   8882         MOV     DPL,R0
   \   000125   8983         MOV     DPH,R1
   \   000127   E0           MOVX    A,@DPTR
   \   000128   C0E0         PUSH    A
   \   00012A   7402         MOV     A,#0x2
   \   00012C   12....       LCALL   ?XSTACK_DISP0_8
   \   00012F   D0E0         POP     A
   \   000131   12....       LCALL   ?Subroutine7 & 0xFFFF
   1473                    buff[3] = u8p[1];
   \                     ??CrossCallReturnLabel_13:
   \   000134   E0           MOVX    A,@DPTR
   \   000135   C0E0         PUSH    A
   \   000137   7403         MOV     A,#0x3
   \   000139   12....       LCALL   ?XSTACK_DISP0_8
   \   00013C   D0E0         POP     A
   \   00013E   12....       LCALL   ?Subroutine7 & 0xFFFF
   1474                    buff[4] = u8p[2];
   \                     ??CrossCallReturnLabel_14:
   \   000141   A3           INC     DPTR
   \   000142   E0           MOVX    A,@DPTR
   \   000143   C0E0         PUSH    A
   \   000145   7404         MOV     A,#0x4
   \   000147   12....       LCALL   ?XSTACK_DISP0_8
   \   00014A   D0E0         POP     A
   \   00014C   12....       LCALL   ?Subroutine7 & 0xFFFF
   1475                    buff[5] = u8p[3];
   \                     ??CrossCallReturnLabel_15:
   \   00014F   A3           INC     DPTR
   \   000150   A3           INC     DPTR
   \   000151   E0           MOVX    A,@DPTR
   \   000152   C0E0         PUSH    A
   \   000154   7405         MOV     A,#0x5
   \   000156   12....       LCALL   ?XSTACK_DISP0_8
   \   000159   D0E0         POP     A
   \   00015B   F0           MOVX    @DPTR,A
   1476                    
   1477                    SendData( pkt->srcAddr.addr.shortAddr, buff, 6);
   \   00015C                ; Setup parameters for call to function SendData
   \   00015C   7906         MOV     R1,#0x6
   \   00015E   12....       LCALL   ?Subroutine16 & 0xFFFF
   1478                }
   1479              }
   1480              
   1481          #if defined( LCD_SUPPORTED )
   1482                UART_Send_String( &pkt->cmd.Data[0], pkt->cmd.DataLength);
   \                     ??CrossCallReturnLabel_32:
   \   000161                ; Setup parameters for call to function UART_Send_String
   \   000161   12....       LCALL   ?Subroutine11 & 0xFFFF
   \                     ??CrossCallReturnLabel_85:
   \   000164   FC           MOV     R4,A
   \   000165   A3           INC     DPTR
   \   000166   E0           MOVX    A,@DPTR
   \   000167   FD           MOV     R5,A
   \   000168   EE           MOV     A,R6
   \   000169   2422         ADD     A,#0x22
   \   00016B   12....       LCALL   ??Subroutine35_0 & 0xFFFF
   \                     ??CrossCallReturnLabel_81:
   \   00016E   FA           MOV     R2,A
   \   00016F   A3           INC     DPTR
   \   000170   E0           MOVX    A,@DPTR
   \   000171   FB           MOV     R3,A
   \   000172   12....       LCALL   ??UART_Send_String?relay
   1483          #endif
   1484              
   1485                break;
   1486            default:break;
   1487            }
   1488            
   1489            
   1490          
   1491            
   1492          }
   \                     ??GenericApp_MessageMSGCB_1:
   \   000175   740C         MOV     A,#0xc
   \   000177   12....       LCALL   ?DEALLOC_XSTACK8
   \   00017A   02....       LJMP    ?Subroutine2 & 0xFFFF
   \   00017D                REQUIRE _A_P1

   \                                 In  segment BANKED_CODE, align 1, keep-with-next
   \                     ?Subroutine16:
   \   000000   85..82       MOV     DPL,?XSP + 0
   \   000003   85..83       MOV     DPH,?XSP + 1
   \   000006   AC82         MOV     R4,DPL
   \   000008   AD83         MOV     R5,DPH
   \   00000A   8E82         MOV     DPL,R6
   \   00000C   8F83         MOV     DPH,R7
   \   00000E   A3           INC     DPTR
   \   00000F   A3           INC     DPTR
   \   000010   A3           INC     DPTR
   \   000011   A3           INC     DPTR
   \   000012   A3           INC     DPTR
   \   000013   A3           INC     DPTR
   \   000014   E0           MOVX    A,@DPTR
   \   000015   FA           MOV     R2,A
   \   000016   A3           INC     DPTR
   \   000017   E0           MOVX    A,@DPTR
   \   000018   FB           MOV     R3,A
   \   000019   12....       LCALL   ??SendData?relay
   \   00001C   22           RET

   \                                 In  segment BANKED_CODE, align 1, keep-with-next
   \                     ?Subroutine13:
   \   000000   12....       LCALL   ?Subroutine25 & 0xFFFF
   \                     ??CrossCallReturnLabel_51:
   \   000003   22           RET

   \                                 In  segment BANKED_CODE, align 1, keep-with-next
   \                     ?Subroutine25:
   \   000000   12....       LCALL   ?Subroutine28 & 0xFFFF
   \                     ??CrossCallReturnLabel_56:
   \   000003   A3           INC     DPTR
   \   000004   A3           INC     DPTR
   \   000005   22           RET

   \                                 In  segment BANKED_CODE, align 1, keep-with-next
   \                     ?Subroutine12:
   \   000000   12....       LCALL   ?Subroutine26 & 0xFFFF
   \                     ??CrossCallReturnLabel_53:
   \   000003   E0           MOVX    A,@DPTR
   \   000004   64ED         XRL     A,#0xed
   \   000006   22           RET

   \                                 In  segment BANKED_CODE, align 1, keep-with-next
   \                     ?Subroutine11:
   \   000000   EE           MOV     A,R6
   \   000001   2420         ADD     A,#0x20
   \   000003                REQUIRE ??Subroutine35_0
   \   000003                ; // Fall through to label ??Subroutine35_0

   \                                 In  segment BANKED_CODE, align 1, keep-with-next
   \                     ?Subroutine10:
   \   000000   12....       LCALL   ?Subroutine25 & 0xFFFF
   \                     ??CrossCallReturnLabel_50:
   \   000003   E0           MOVX    A,@DPTR
   \   000004   14           DEC     A
   \   000005   22           RET

   \                                 In  segment BANKED_CODE, align 1, keep-with-next
   \                     ?Subroutine9:
   \   000000   12....       LCALL   ?Subroutine26 & 0xFFFF
   \                     ??CrossCallReturnLabel_52:
   \   000003   A3           INC     DPTR
   \   000004   E0           MOVX    A,@DPTR
   \   000005   22           RET

   \                                 In  segment BANKED_CODE, align 1, keep-with-next
   \                     ?Subroutine26:
   \   000000   12....       LCALL   ?Subroutine28 & 0xFFFF
   \                     ??CrossCallReturnLabel_57:
   \   000003   22           RET

   \                                 In  segment BANKED_CODE, align 1, keep-with-next
   \                     ?Subroutine28:
   \   000000   EE           MOV     A,R6
   \   000001   2422         ADD     A,#0x22
   \   000003   F582         MOV     DPL,A
   \   000005   EF           MOV     A,R7
   \   000006   3400         ADDC    A,#0x0
   \   000008   F583         MOV     DPH,A
   \   00000A   A3           INC     DPTR
   \   00000B   E0           MOVX    A,@DPTR
   \   00000C   F583         MOV     DPH,A
   \   00000E   8882         MOV     DPL,R0
   \   000010   22           RET

   \                                 In  segment BANKED_CODE, align 1, keep-with-next
   \                     ?Subroutine8:
   \   000000   EE           MOV     A,R6
   \   000001   2422         ADD     A,#0x22
   \   000003                REQUIRE ??Subroutine36_0
   \   000003                ; // Fall through to label ??Subroutine36_0

   \                                 In  segment BANKED_CODE, align 1, keep-with-next
   \                     ?Subroutine7:
   \   000000   F0           MOVX    @DPTR,A
   \   000001   8882         MOV     DPL,R0
   \   000003   8983         MOV     DPH,R1
   \   000005   A3           INC     DPTR
   \   000006   22           RET

   \                                 In  segment XDATA_ID, align 1, keep-with-next
   \                     `?<Initializer for GenericApp_SimpleDesc>`:
   \   000000   14           DB 20
   \   000001   040F         DW 3844
   \   000003   0100         DW 1
   \   000005   00           DB 0
   \   000006   01           DB 1
   \   000007   ....         DW GenericApp_ClusterList
   \   000009   01           DB 1
   \   00000A   ....         DW GenericApp_ClusterList

   \                                 In  segment BANK_RELAYS, align 1
   \                     ??SendData?relay:
   \   000000   12....       LCALL   ?BDISPATCH
   \   000003   ......       DC24    SendData

   \                                 In  segment BANK_RELAYS, align 1
   \                     ??Delay?relay:
   \   000000   12....       LCALL   ?BDISPATCH
   \   000003   ......       DC24    Delay

   \                                 In  segment BANK_RELAYS, align 1
   \                     ??UART_Send_String?relay:
   \   000000   12....       LCALL   ?BDISPATCH
   \   000003   ......       DC24    UART_Send_String

   \                                 In  segment BANK_RELAYS, align 1
   \                     ??uprint?relay:
   \   000000   12....       LCALL   ?BDISPATCH
   \   000003   ......       DC24    uprint

   \                                 In  segment BANK_RELAYS, align 1
   \                     ??parse_procotol?relay:
   \   000000   12....       LCALL   ?BDISPATCH
   \   000003   ......       DC24    parse_procotol

   \                                 In  segment BANK_RELAYS, align 1
   \                     ??Serial_callBack?relay:
   \   000000   12....       LCALL   ?BDISPATCH
   \   000003   ......       DC24    Serial_callBack

   \                                 In  segment BANK_RELAYS, align 1
   \                     ??serial_init?relay:
   \   000000   12....       LCALL   ?BDISPATCH
   \   000003   ......       DC24    serial_init

   \                                 In  segment BANK_RELAYS, align 1
   \                     ??io_init?relay:
   \   000000   12....       LCALL   ?BDISPATCH
   \   000003   ......       DC24    io_init

   \                                 In  segment BANK_RELAYS, align 1
   \                     ??set_panid?relay:
   \   000000   12....       LCALL   ?BDISPATCH
   \   000003   ......       DC24    set_panid

   \                                 In  segment BANK_RELAYS, align 1
   \                     ??cb_ReadConfiguration?relay:
   \   000000   12....       LCALL   ?BDISPATCH
   \   000003   ......       DC24    cb_ReadConfiguration

   \                                 In  segment BANK_RELAYS, align 1
   \                     ??cb_WriteConfiguration?relay:
   \   000000   12....       LCALL   ?BDISPATCH
   \   000003   ......       DC24    cb_WriteConfiguration

   \                                 In  segment BANK_RELAYS, align 1
   \                     ??GenericApp_Init?relay:
   \   000000   12....       LCALL   ?BDISPATCH
   \   000003   ......       DC24    GenericApp_Init

   \                                 In  segment BANK_RELAYS, align 1
   \                     ??GenericApp_ProcessEvent?relay:
   \   000000   12....       LCALL   ?BDISPATCH
   \   000003   ......       DC24    GenericApp_ProcessEvent

   \                                 In  segment BANK_RELAYS, align 1
   \                     ??GenericApp_MessageMSGCB?relay:
   \   000000   12....       LCALL   ?BDISPATCH
   \   000003   ......       DC24    GenericApp_MessageMSGCB

   \                                 In  segment XDATA_ROM_C, align 1
   \                     `?<Constant "set device to coordi ...">`:
   \   000000   73657420     DB "set device to coordi failed"
   \            64657669
   \            63652074
   \            6F20636F
   \            6F726469
   \            20666169
   \            6C656400

   \                                 In  segment XDATA_ROM_C, align 1
   \                     `?<Constant "set device to coordi,...">`:
   \   000000   73657420     DB "set device to coordi,restart it"
   \            64657669
   \            63652074
   \            6F20636F
   \            6F726469
   \            2C726573
   \            74617274
   \            20697400

   \                                 In  segment XDATA_ROM_C, align 1
   \                     `?<Constant "set device to router ...">`:
   \   000000   73657420     DB "set device to router failed"
   \            64657669
   \            63652074
   \            6F20726F
   \            75746572
   \            20666169
   \            6C656400

   \                                 In  segment XDATA_ROM_C, align 1
   \                     `?<Constant "set device to router,...">`:
   \   000000   73657420     DB "set device to router,restart it"
   \            64657669
   \            63652074
   \            6F20726F
   \            75746572
   \            2C726573
   \            74617274
   \            20697400

   \                                 In  segment XDATA_ROM_C, align 1
   \                     `?<Constant "set device to end dev...">`:
   \   000000   73657420     DB "set device to end device failed"
   \            64657669
   \            63652074
   \            6F20656E
   \            64206465
   \            76696365
   \            20666169
   \            6C656400

   \                                 In  segment XDATA_ROM_C, align 1
   \                     `?<Constant "set device to end dev...">_1`:
   \   000000   73657420     DB "set device to end device,restart it"
   \            64657669
   \            63652074
   \            6F20656E
   \            64206465
   \            76696365
   \            2C726573
   \            74617274
   \            20697400

   \                                 In  segment XDATA_ROM_C, align 1
   \                     `?<Constant "osal_nv_item_init 0x0...">`:
   \   000000   6F73616C     DB "osal_nv_item_init 0x09 failed"
   \            5F6E765F
   \            6974656D
   \            5F696E69
   \            74203078
   \            30392066
   \            61696C65
   \            6400    

   \                                 In  segment XDATA_ROM_C, align 1
   \                     `?<Constant "osal_nv_item_init 0x1...">`:
   \   000000   6F73616C     DB "osal_nv_item_init 0x10 failed"
   \            5F6E765F
   \            6974656D
   \            5F696E69
   \            74203078
   \            31302066
   \            61696C65
   \            6400    

   \                                 In  segment XDATA_ROM_C, align 1
   \                     `?<Constant "send failed,0xca 0x03...">`:
   \   000000   73656E64     DB "send failed,0xca 0x03 0x01"
   \            20666169
   \            6C65642C
   \            30786361
   \            20307830
   \            33203078
   \            303100  

   \                                 In  segment XDATA_ROM_C, align 1
   \                     `?<Constant "reboot">`:
   \   000000   7265626F     DB "reboot"
   \            6F7400  

   \                                 In  segment XDATA_ROM_C, align 1
   \                     `?<Constant "nwkkey">`:
   \   000000   6E776B6B     DB "nwkkey"
   \            657900  

   \                                 In  segment XDATA_ROM_C, align 1
   \                     `?<Constant "osal nv read nwkkey e...">`:
   \   000000   6F73616C     DB "osal nv read nwkkey error"
   \            206E7620
   \            72656164
   \            206E776B
   \            6B657920
   \            6572726F
   \            7200    

   \                                 In  segment XDATA_ROM_C, align 1
   \                     `?<Constant "type">`:
   \   000000   74797065     DB "type"
   \            00      

   \                                 In  segment XDATA_ROM_C, align 1
   \                     `?<Constant "Coordi">`:
   \   000000   436F6F72     DB "Coordi"
   \            646900  

   \                                 In  segment XDATA_ROM_C, align 1
   \                     `?<Constant "Router">`:
   \   000000   526F7574     DB "Router"
   \            657200  

   \                                 In  segment XDATA_ROM_C, align 1
   \                     `?<Constant "Enddev">`:
   \   000000   456E6464     DB "Enddev"
   \            657600  

   \                                 In  segment XDATA_ROM_C, align 1
   \                     `?<Constant "Unknow">`:
   \   000000   556E6B6E     DB "Unknow"
   \            6F7700  

   \                                 In  segment XDATA_ROM_C, align 1
   \                     `?<Constant "pong">`:
   \   000000   706F6E67     DB "pong"
   \            00      

   \                                 In  segment XDATA_ROM_C, align 1
   \                     `?<Constant "pass:">`:
   \   000000   70617373     DB "pass:"
   \            3A00    

   \                                 In  segment XDATA_ROM_C, align 1
   \                     `?<Constant "change key">`:
   \   000000   6368616E     DB "change key"
   \            6765206B
   \            657900  

   \                                 In  segment XDATA_ROM_C, align 1
   \                     `?<Constant "EndDevice match">`:
   \   000000   456E6444     DB "EndDevice match"
   \            65766963
   \            65206D61
   \            74636800

   \                                 In  segment XDATA_ROM_C, align 1
   \                     `?<Constant "Router Device match">`:
   \   000000   526F7574     DB "Router Device match"
   \            65722044
   \            65766963
   \            65206D61
   \            74636800

   \                                 In  segment XDATA_ROM_C, align 1
   \                     `?<Constant "set_panid failed">`:
   \   000000   7365745F     DB "set_panid failed"
   \            70616E69
   \            64206661
   \            696C6564
   \            00      

   \                                 In  segment XDATA_ROM_C, align 1
   \                     `?<Constant "GenericApp">`:
   \   000000   47656E65     DB "GenericApp"
   \            72696341
   \            707000  

   \                                 In  segment XDATA_ROM_C, align 1
   \                     `?<Constant "Coord0\\n">`:
   \   000000   436F6F72     DB "Coord0\012"
   \            64300A00

   \                                 In  segment XDATA_ROM_C, align 1
   \                     `?<Constant "Router0\\n">`:
   \   000000   526F7574     DB "Router0\012"
   \            6572300A
   \            00      

   \                                 In  segment XDATA_ROM_C, align 1
   \                     `?<Constant "Coord\\n">`:
   \   000000   436F6F72     DB "Coord\012"
   \            640A00  

   \                                 In  segment XDATA_ROM_C, align 1
   \                     `?<Constant "Router\\n">`:
   \   000000   526F7574     DB "Router\012"
   \            65720A00

   \                                 In  segment XDATA_ROM_C, align 1
   \                     `?<Constant "AF_DATA_CONFIRM_CMD ERR">`:
   \   000000   41465F44     DB "AF_DATA_CONFIRM_CMD ERR"
   \            4154415F
   \            434F4E46
   \            49524D5F
   \            434D4420
   \            45525200

   \                                 In  segment XDATA_ROM_C, align 1
   \                     `?<Constant "End_Device_Bind_rsp">`:
   \   000000   456E645F     DB "End_Device_Bind_rsp"
   \            44657669
   \            63655F42
   \            696E645F
   \            72737000

   \                                 In  segment XDATA_ROM_C, align 1
   \                     `?<Constant "Match_Desc_rsp">`:
   \   000000   4D617463     DB "Match_Desc_rsp"
   \            685F4465
   \            73635F72
   \            737000  

   \                                 In  segment XDATA_ROM_C, align 1
   \                     `?<Constant "GenericApp_ProcessZDO...">`:
   \   000000   47656E65     DB "GenericApp_ProcessZDOMsgs"
   \            72696341
   \            70705F50
   \            726F6365
   \            73735A44
   \            4F4D7367
   \            7300    

   \                                 In  segment XDATA_ROM_C, align 1
   \                     `?<Constant "key1">`:
   \   000000   6B657931     DB "key1"
   \            00      

   \                                 In  segment XDATA_ROM_C, align 1
   \                     `?<Constant "key2">`:
   \   000000   6B657932     DB "key2"
   \            00      

   \                                 In  segment XDATA_ROM_C, align 1
   \                     `?<Constant "key3">`:
   \   000000   6B657933     DB "key3"
   \            00      

   \                                 In  segment XDATA_ROM_C, align 1
   \                     `?<Constant "key4">`:
   \   000000   6B657934     DB "key4"
   \            00      

   \                                 In  segment XDATA_ROM_C, align 1
   \                     `?<Constant "key5">`:
   \   000000   6B657935     DB "key5"
   \            00      

   \                                 In  segment XDATA_ROM_C, align 1
   \                     `?<Constant "key6">`:
   \   000000   6B657936     DB "key6"
   \            00      

   \                                 In  segment XDATA_ROM_C, align 1
   \                     `?<Constant "key7">`:
   \   000000   6B657937     DB "key7"
   \            00      

   \                                 In  segment XDATA_ROM_C, align 1
   \                     __Constant_800:
   \   000000   00080000     DD 2048

   \                                 In  segment XDATA_ROM_C, align 1
   \                     __Constant_1000:
   \   000000   00100000     DD 4096

   \                                 In  segment XDATA_ROM_C, align 1
   \                     __Constant_2000:
   \   000000   00200000     DD 8192

   \                                 In  segment XDATA_ROM_C, align 1
   \                     __Constant_4000:
   \   000000   00400000     DD 16384

   \                                 In  segment XDATA_ROM_C, align 1
   \                     __Constant_8000:
   \   000000   00800000     DD 32768

   \                                 In  segment XDATA_ROM_C, align 1
   \                     __Constant_10000:
   \   000000   00000100     DD 65536

   \                                 In  segment XDATA_ROM_C, align 1
   \                     __Constant_20000:
   \   000000   00000200     DD 131072

   \                                 In  segment XDATA_ROM_C, align 1
   \                     __Constant_40000:
   \   000000   00000400     DD 262144

   \                                 In  segment XDATA_ROM_C, align 1
   \                     __Constant_80000:
   \   000000   00000800     DD 524288

   \                                 In  segment XDATA_ROM_C, align 1
   \                     __Constant_100000:
   \   000000   00001000     DD 1048576

   \                                 In  segment XDATA_ROM_C, align 1
   \                     __Constant_200000:
   \   000000   00002000     DD 2097152

   \                                 In  segment XDATA_ROM_C, align 1
   \                     __Constant_400000:
   \   000000   00004000     DD 4194304

   \                                 In  segment XDATA_ROM_C, align 1
   \                     __Constant_800000:
   \   000000   00008000     DD 8388608

   \                                 In  segment XDATA_ROM_C, align 1
   \                     __Constant_1000000:
   \   000000   00000001     DD 16777216

   \                                 In  segment XDATA_ROM_C, align 1
   \                     __Constant_2000000:
   \   000000   00000002     DD 33554432

   \                                 In  segment XDATA_ROM_C, align 1
   \                     __Constant_4000000:
   \   000000   00000004     DD 67108864
   1493          
   1494          /*********************************************************************
   1495           * @fn      GenericApp_SendTheMessage
   1496           *
   1497           * @brief   Send "the" message.
   1498           *
   1499           * @param   none
   1500           *
   1501           * @return  none
   1502           */
   1503          static void GenericApp_SendTheMessage( afIncomingMSGPacket_t *pkt )
                             ^
Warning[Pe177]: function "GenericApp_SendTheMessage" was declared but never
          referenced
   1504          {
   1505            
   1506          
   1507            
   1508            char theMessageData[] = "Hello World";
   1509          
   1510            
   1511            if ( AF_DataRequest( &pkt->srcAddr, &GenericApp_epDesc,
   1512                                 GENERICAPP_CLUSTERID,
   1513                                 (byte)osal_strlen( theMessageData ) + 1,
   1514                                 (byte *)&theMessageData,
   1515                                 &GenericApp_TransID,
   1516                                 AF_DISCV_ROUTE, AF_DEFAULT_RADIUS ) == afStatus_SUCCESS )
   1517            {
   1518              // Successfully requested to be sent.
   1519              uprint("ok");
   1520            }
   1521            else
   1522            {
   1523              uprint("err");
   1524              // Error occurred in request to send.
   1525            }
   1526          }
   1527          
   1528          #if defined( IAR_ARMCM3_LM )
   1529          /*********************************************************************
   1530           * @fn      GenericApp_ProcessRtosMessage
   1531           *
   1532           * @brief   Receive message from RTOS queue, send response back.
   1533           *
   1534           * @param   none
   1535           *
   1536           * @return  none
   1537           */
   1538          static void GenericApp_ProcessRtosMessage( void )
   1539          {
   1540            osalQueue_t inMsg;
   1541          
   1542            if ( osal_queue_receive( OsalQueue, &inMsg, 0 ) == pdPASS )
   1543            {
   1544              uint8 cmndId = inMsg.cmnd;
   1545              uint32 counter = osal_build_uint32( inMsg.cbuf, 4 );
   1546          
   1547              switch ( cmndId )
   1548              {
   1549                case CMD_INCR:
   1550                  counter += 1;  /* Increment the incoming counter */
   1551                                 /* Intentionally fall through next case */
   1552          
   1553                case CMD_ECHO:
   1554                {
   1555                  userQueue_t outMsg;
   1556          
   1557                  outMsg.resp = RSP_CODE | cmndId;  /* Response ID */
   1558                  osal_buffer_uint32( outMsg.rbuf, counter );    /* Increment counter */
   1559                  osal_queue_send( UserQueue1, &outMsg, 0 );  /* Send back to UserTask */
   1560                  break;
   1561                }
   1562                
   1563                default:
   1564                  break;  /* Ignore unknown command */    
   1565              }
   1566            }
   1567          }
   1568          #endif
   1569          
   1570          /*********************************************************************
   1571           */
   1572          
   1573          /*
   1574          #pragma vector=URX0_VECTOR
   1575          __interrupt static void UART0_ISR(void)
   1576          {
   1577            URX0IF=0;//
   1578            temp=U0DBUF;//temp
   1579          }
   1580          */
   1581          
   1582          
   1583          
   1584          

   Maximum stack usage in bytes:

     Function                     ISTACK PSTACK XSTACK
     --------                     ------ ------ ------
     Delay                            0      0      0
     GenericApp_Init                  0      0     10
       -> afRegister                  0      0     20
       -> RegisterForKeys             0      0     20
       -> HalLcdWriteString           0      0     20
       -> osal_nv_item_len            0      0     20
       -> cb_ReadConfiguration        0      0     20
       -> uprint                      0      0     20
       -> uprint                      0      0     20
       -> ZDOInitDevice               0      0     20
       -> uprint                      0      0     20
       -> uprint                      0      0     20
       -> io_init                     0      0     20
       -> serial_init                 0      0     20
     GenericApp_MessageMSGCB          1      0     33
       -> SendData                    0      0     42
       -> SendData                    0      0     42
       -> UART_Send_String            0      0     42
     GenericApp_ProcessEvent          0      0     12
       -> osal_msg_receive            0      0     24
       -> osal_msg_deallocate         0      0     24
       -> osal_msg_receive            0      0     24
       -> uprint                      0      0     24
       -> ZDO_ParseEPListRsp          0      0     24
       -> osal_mem_free               0      0     24
       -> uprint                      0      0     24
       -> HalLedSet                   0      0     24
       -> uprint                      0      0     24
       -> uprint                      0      0     24
       -> uprint                      0      0     24
       -> uprint                      0      0     24
       -> uprint                      0      0     24
       -> uprint                      0      0     24
       -> uprint                      0      0     24
       -> uprint                      0      0     24
       -> uprint                      0      0     24
       -> GenericApp_MessageMSGCB     0      0     24
     SendData                         0      0    140
       -> AF_DataRequest              0      0     62
     Serial_callBack                  0      0     61
       -> HalUARTRead                 0      0    104
       -> AssocCount                  0      0    104
       -> UART_Send_String            0      0    104
       -> uprint                      0      0    104
       -> HalLedSet                   0      0    104
       -> NLME_GetShortAddr           0      0    104
       -> ZDP_EndDeviceBindReq        0      0    122
       -> uprint                      0      0    104
       -> ZDP_MatchDescReq            0      0    120
       -> SendData                    0      0    104
     UART_Send_String                 2      0    109
       -> HalUARTWrite                4      0      0
     cb_ReadConfiguration             0      0     26
       -> osal_nv_item_len            0      0     24
       -> osal_nv_read                0      0     32
     cb_WriteConfiguration            0      0     14
       -> osal_nv_write               0      0     28
     io_init                          0      0     10
     parse_procotol                   1      0    113
       -> SendData                    0      0    218
       -> UART_Send_String            0      0    218
       -> UART_Send_String            0      0    218
       -> UART_Send_String            0      0    218
       -> NLME_GetExtAddr             0      0    218
       -> strncpy                     0      0    222
       -> UART_Send_String            0      0    218
       -> osal_nv_item_init           0      0    222
       -> osal_nv_write               0      0    226
       -> uprint                      0      0    218
       -> zgWriteStartupOptions       0      0    218
       -> uprint                      0      0    218
       -> osal_nv_item_init           0      0    222
       -> osal_nv_write               0      0    226
       -> uprint                      0      0    218
       -> zgWriteStartupOptions       0      0    218
       -> uprint                      0      0    218
       -> osal_nv_item_init           0      0    222
       -> osal_nv_write               0      0    226
       -> uprint                      0      0    218
       -> zgWriteStartupOptions       0      0    218
       -> uprint                      0      0    218
       -> osal_nv_item_init           0      0    222
       -> osal_nv_read                0      0    226
       -> UART_Send_String            0      0    218
       -> uprint                      0      0    218
       -> osal_nv_item_init           0      0    222
       -> osal_nv_read                0      0    226
       -> UART_Send_String            0      0    218
       -> uprint                      0      0    218
       -> NLME_UpdateNV               0      0    218
       -> ZMacSetReq                  0      0    218
       -> osal_nv_item_init           0      0    222
       -> osal_nv_write               0      0    226
       -> UART_Send_String            0      0    218
       -> SendData                    0      0    218
       -> uprint                      0      0    218
       -> HalAdcRead                  0      0    218
       -> UART_Send_String            0      0    218
       -> HalAdcRead                  0      0    218
       -> UART_Send_String            0      0    218
       -> HalAdcRead                  0      0    218
       -> UART_Send_String            0      0    218
       -> HalAdcRead                  0      0    218
       -> UART_Send_String            0      0    218
       -> HalAdcRead                  0      0    218
       -> UART_Send_String            0      0    218
       -> strstr                      0      0    218
       -> strncpy                     0      0    222
       -> strncpy                     0      0    222
       -> strtol                      0      0    222
       -> strtol                      0      0    222
       -> set_panid                   0      0    218
       -> zgWriteStartupOptions       0      0    218
       -> strncpy                     0      0    222
       -> strncpy                     0      0    222
       -> strtol                      0      0    222
       -> strtol                      0      0    222
       -> NLME_UpdateNV               0      0    218
       -> strstr                      0      0    218
       -> osal_nv_read                0      0    226
       -> UART_Send_String            0      0    218
       -> uprint                      0      0    218
       -> strstr                      0      0    218
       -> uprint                      0      0    218
       -> uprint                      0      0    218
       -> uprint                      0      0    218
       -> uprint                      0      0    218
       -> uprint                      0      0    218
       -> strstr                      0      0    218
       -> SSP_UpdateNwkKey            0      0    218
       -> SSP_SwitchNwkKey            0      0    218
       -> ZDApp_NVUpdate              0      0    218
       -> uprint                      0      0    218
       -> osal_nv_item_init           0      0    222
       -> osal_nv_write               0      0    226
       -> uprint                      0      0    218
       -> osal_nv_item_init           0      0    222
       -> osal_nv_write               0      0    226
       -> uprint                      0      0    218
     serial_init                      2      0     39
       -> HalUARTOpen                 4      0     58
     set_panid                        0      0    125
       -> macRadioSetPanID            0      0     24
       -> ZMacSetReq                  0      0     24
       -> osal_nv_write               0      0     32
       -> NLME_UpdateNV               0      0     24
       -> uprint                      0      0     24
     uprint                           0      0    118
       -> strlen                      0      0     18
       -> UART_Send_String            0      0     18


   Segment part sizes:

     Function/Label                           Bytes
     --------------                           -----
     _A_P0                                       1
     P0IFG                                       1
     _A_P1                                       1
     _A_IEN0                                     1
     WDCTL                                       1
     P0DIR                                       1
     devlist                                    44
     ieeeAddr                                    2
     short_ddr                                   2
     panid                                       2
     GenericApp_ClusterList                      2
     GenericApp_SimpleDesc                      12
     GenericApp_epDesc                           6
     GenericApp_TaskID                           1
     GenericApp_NwkState                         1
     GenericApp_TransID                          1
     App_NwkState                                1
     GenericApp_DstAddr                         12
     SendData                                  118
     ?Subroutine4                                8
     ?Subroutine0                                3
     ??Subroutine34_0                            5
     Delay                                      83
     ?Subroutine5                                9
     UART_Send_String                            9
     ?Subroutine1                                7
     uprint                                     23
     ?Subroutine2                                5
     parse_procotol                           2314
     ?Subroutine24                              10
     ?Subroutine23                              13
     ?Subroutine22                               9
     ?Subroutine20                              13
     ?Subroutine19                              10
     ?Subroutine17                               2
     ??Subroutine29_0                            6
     ??Subroutine30_0                            6
     ?Subroutine15                              14
     ?Subroutine14                               8
     ?Subroutine27                              13
     ?Subroutine6                               22
     ?Subroutine18                               6
     ??Subroutine31_0                            2
     ??Subroutine32_0                            6
     ?Subroutine21                               8
     ??Subroutine33_0                            6
     Serial_callBack                           470
     serial_init                               109
     io_init                                    18
     set_panid                                 115
     cb_ReadConfiguration                       64
     ?Subroutine3                                5
     cb_WriteConfiguration                      39
     GenericApp_Init                           199
     GenericApp_ProcessEvent                   370
     ??Subroutine35_0                            9
     ??Subroutine36_0                           17
     GenericApp_MessageMSGCB                   381
     ?Subroutine16                              29
     ?Subroutine13                               4
     ?Subroutine25                               6
     ?Subroutine12                               7
     ?Subroutine11                               3
     ?Subroutine10                               6
     ?Subroutine9                                6
     ?Subroutine26                               4
     ?Subroutine28                              17
     ?Subroutine8                                3
     ?Subroutine7                                7
     ?<Initializer for GenericApp_SimpleDesc>   12
     ??SendData?relay                            6
     ??Delay?relay                               6
     ??UART_Send_String?relay                    6
     ??uprint?relay                              6
     ??parse_procotol?relay                      6
     ??Serial_callBack?relay                     6
     ??serial_init?relay                         6
     ??io_init?relay                             6
     ??set_panid?relay                           6
     ??cb_ReadConfiguration?relay                6
     ??cb_WriteConfiguration?relay               6
     ??GenericApp_Init?relay                     6
     ??GenericApp_ProcessEvent?relay             6
     ??GenericApp_MessageMSGCB?relay             6
     ?<Constant "set device to coordi ...">     28
     ?<Constant "set device to coordi,...">     32
     ?<Constant "set device to router ...">     28
     ?<Constant "set device to router,...">     32
     ?<Constant "set device to end dev...">     32
     ?<Constant "set device to end dev...">_1   36
     ?<Constant "osal_nv_item_init 0x0...">     30
     ?<Constant "osal_nv_item_init 0x1...">     30
     ?<Constant "send failed,0xca 0x03...">     27
     ?<Constant "reboot">                        7
     ?<Constant "nwkkey">                        7
     ?<Constant "osal nv read nwkkey e...">     26
     ?<Constant "type">                          5
     ?<Constant "Coordi">                        7
     ?<Constant "Router">                        7
     ?<Constant "Enddev">                        7
     ?<Constant "Unknow">                        7
     ?<Constant "pong">                          5
     ?<Constant "pass:">                         6
     ?<Constant "change key">                   11
     ?<Constant "EndDevice match">              16
     ?<Constant "Router Device match">          20
     ?<Constant "set_panid failed">             17
     ?<Constant "GenericApp">                   11
     ?<Constant "Coord0\n">                      8
     ?<Constant "Router0\n">                     9
     ?<Constant "Coord\n">                       7
     ?<Constant "Router\n">                      8
     ?<Constant "AF_DATA_CONFIRM_CMD ERR">      24
     ?<Constant "End_Device_Bind_rsp">          20
     ?<Constant "Match_Desc_rsp">               15
     ?<Constant "GenericApp_ProcessZDO...">     26
     ?<Constant "key1">                          5
     ?<Constant "key2">                          5
     ?<Constant "key3">                          5
     ?<Constant "key4">                          5
     ?<Constant "key5">                          5
     ?<Constant "key6">                          5
     ?<Constant "key7">                          5
     __Constant_800                              4
     __Constant_1000                             4
     __Constant_2000                             4
     __Constant_4000                             4
     __Constant_8000                             4
     __Constant_10000                            4
     __Constant_20000                            4
     __Constant_40000                            4
     __Constant_80000                            4
     __Constant_100000                           4
     __Constant_200000                           4
     __Constant_400000                           4
     __Constant_800000                           4
     __Constant_1000000                          4
     __Constant_2000000                          4
     __Constant_4000000                          4

 
 4 626 bytes in segment BANKED_CODE
    84 bytes in segment BANK_RELAYS
     6 bytes in segment SFR_AN
    12 bytes in segment XDATA_I
    12 bytes in segment XDATA_ID
   652 bytes in segment XDATA_ROM_C
    72 bytes in segment XDATA_Z
 
 4 722 bytes of CODE  memory
   588 bytes of CONST memory (+ 64 bytes shared)
     0 bytes of DATA  memory (+  6 bytes shared)
    84 bytes of XDATA memory

Errors: none
Warnings: 21
